Archive member included to satisfy reference by file (symbol)

C:\Nburn/lib/DBNANO54415.a(hardware_init.od)
                              c:/nburn/gcc-m68k/bin/../lib/gcc/m68k-unknown-elf/5.2.0/m54455\nb-crt0.o (hardware_init_hook)
C:\Nburn/lib/DBNANO54415.a(serial.od)
                              Drivers\dsm2.od (UartData)
C:\Nburn/lib/DBNANO54415.a(pins.od)
                              main.od (Pins)
C:\Nburn/lib/DBNANO54415.a(SimpleAD.od)
                              main.od (_Z15InitSingleEndADv)
C:\Nburn/lib/DBNANO54415.a(FlashOps.od)
                              C:\Nburn/lib/DBNANO54415.a(hardware_init.od) (CopySPIFlashImageOnBoot)
C:\Nburn/lib/DBNANO54415.a(HiResTimer.od)
                              Drivers\MPU9250.od (_ZN10HiResTimer4initEd)
C:\Nburn/lib/DBNANO54415.a(netwait.od)
                              main.od (_Z29InitializeNetworkGDB_and_Waitv)
C:\Nburn/lib/DBNANO54415.a(pin_irq.od)
                              Drivers\Odometer.od (_Z9SetPinIrqiiPFvvE)
C:\Nburn/lib/DBNANO54415.a(dbethernet.od)
                              C:\Nburn/lib/DBNANO54415.a(netwait.od) (_Z17GDBDebugConnectedv)
C:\Nburn/lib/DBNANO54415.a(bsp.od)
                              C:\Nburn/lib/DBNANO54415.a(serial.od) (CPU_CLOCK)
C:\Nburn/lib/DBNANO54415.a(localio.od)
                              C:\Nburn/lib/DBNANO54415.a(serial.od) (_Z13GetUartRecordi)
C:\Nburn/lib/DBNANO54415.a(userparam.od)
                              main.od (_Z18SaveUserParametersPvi)
C:\Nburn/lib/DBNANO54415.a(multichanneli2c.od)
                              main.od (MultiChannel_I2CInit)
C:\Nburn/lib/DBNANO54415.a(bspa.od)
                              C:\Nburn/lib/DBNANO54415.a(bsp.od) (CatchNullWrites)
C:\Nburn/lib/DBNANO54415.a(defpins.od)
                              C:\Nburn/lib/DBNANO54415.a(bsp.od) (_Z14SetDefPinUsagev)
C:\Nburn/lib/DBNANO54415.a(ethernet.od)
                              C:\Nburn/lib/DBNANO54415.a(dbethernet.od) (enet0)
C:\Nburn/lib/DBNANO54415.a(etherprint.od)
                              C:\Nburn/lib/DBNANO54415.a(ethernet.od) (_ZN12EthernetVars9EtherLinkEv)
C:\Nburn/lib/DBNANO54415.a(emulticast.od)
                              C:\Nburn/lib/DBNANO54415.a(ethernet.od) (_ZN12EthernetVars18EthEnableMulticastE6MACADR)
C:\Nburn/lib/DBNANO54415.a(SPIFlash.od)
                              C:\Nburn/lib/DBNANO54415.a(FlashOps.od) (_ZN8SPIFlashC1Ei)
C:\Nburn/lib/DBNANO54415.a(ethernetauxdb.od)
                              C:\Nburn/lib/DBNANO54415.a(dbethernet.od) (_Z16OSMaxTasksEnetDBv)
C:\Nburn/lib/DBNANO54415.a(ether2nd.od)
                              C:\Nburn/lib/DBNANO54415.a(dbethernet.od) (EthernetBlock1)
C:\Nburn/lib/DBNANO54415.a(etherswitch.od)
                              C:\Nburn/lib/DBNANO54415.a(emulticast.od) (_Z14UpdateMacTableblPhjj)
C:\Nburn/lib/DBNANO54415.a(weak_autoenet_var.od)
                              C:\Nburn/lib/DBNANO54415.a(ethernet.od) (bAutomatic2ndEther)
C:\Nburn/lib/DBNANO54415.a(i2c_class.od)
                              C:\Nburn/lib/DBNANO54415.a(multichanneli2c.od) (I2C)
C:\Nburn/lib/DBNetBurner.a(ucosmcfa.od)
                              C:\Nburn/lib/DBNANO54415.a(bsp.od) (OSCtxSw)
C:\Nburn/lib/DBNetBurner.a(software_init.od)
                              c:/nburn/gcc-m68k/bin/../lib/gcc/m68k-unknown-elf/5.2.0/m54455\nb-crt0.o (software_init_hook)
C:\Nburn/lib/DBNetBurner.a(main.od)
                              c:/nburn/gcc-m68k/bin/../lib/gcc/m68k-unknown-elf/5.2.0/m54455\nb-crt0.o (main)
C:\Nburn/lib/DBNetBurner.a(ucosmcfc.od)
                              main.od (_Z17OSTaskCreatewNamePFvPvES_S_S_hPKc)
C:\Nburn/lib/DBNetBurner.a(ucos.od)
                              C:\Nburn/lib/DBNANO54415.a(dbethernet.od) (TimeTick)
C:\Nburn/lib/DBNetBurner.a(cppmain.od)
                              C:\Nburn/lib/DBNetBurner.a(main.od) (cppmain)
C:\Nburn/lib/DBNetBurner.a(debugtrap.od)
                              C:\Nburn/lib/DBNANO54415.a(bsp.od) (_Z23SetAddressReadRangeTrapmm)
C:\Nburn/lib/DBNetBurner.a(ucosmain.od)
                              C:\Nburn/lib/DBNANO54415.a(dbethernet.od) (OSTCBTbl)
C:\Nburn/lib/DBNetBurner.a(fileio.od)
                              C:\Nburn/lib/DBNetBurner.a(ucosmain.od) (ioctl)
C:\Nburn/lib/DBNetBurner.a(system.od)
                              C:\Nburn/lib/DBNANO54415.a(serial.od) (rnd_cnt)
C:\Nburn/lib/DBNetBurner.a(utils.od)
                              C:\Nburn/lib/DBNANO54415.a(ethernet.od) (frames_tx)
C:\Nburn/lib/DBNetBurner.a(ip.od)
                              C:\Nburn/lib/DBNANO54415.a(dbethernet.od) (wGlobalPktId)
C:\Nburn/lib/DBNetBurner.a(buffers.od)
                              C:\Nburn/lib/DBNANO54415.a(bsp.od) (static_pool_buffers)
C:\Nburn/lib/DBNetBurner.a(arp.od)
                              C:\Nburn/lib/DBNetBurner.a(ip.od) (_Z25GetInterfaceForMyAddress47IPADDR4)
C:\Nburn/lib/DBNetBurner.a(udp.od)
                              C:\Nburn/lib/DBNetBurner.a(ip.od) (_Z12process_udp4P11pool_bufferP5IPPKTt)
C:\Nburn/lib/DBNetBurner.a(ftpd.od)
                              Drivers\introspec.od (_Z9FTPDStartth)
C:\Nburn/lib/DBNetBurner.a(tcp.od)
                              C:\Nburn/lib/DBNetBurner.a(ip.od) (_Z12process_tcp4P11pool_bufferP5IPPKTt)
C:\Nburn/lib/DBNetBurner.a(extraio.od)
                              Drivers\introspec.od (_Z10GetExtraFDPvP14IoExpandStruct)
C:\Nburn/lib/DBNetBurner.a(http.od)
                              main.od (_Z9StartHTTPt)
C:\Nburn/lib/DBNetBurner.a(httpinternal.od)
                              C:\Nburn/lib/DBNetBurner.a(http.od) (TheErrorHandler)
C:\Nburn/lib/DBNetBurner.a(httpstricmp.od)
                              C:\Nburn/lib/DBNetBurner.a(httpinternal.od) (_Z11httpstricmpPKcS0_)
C:\Nburn/lib/DBNetBurner.a(htmldecomp.od)
                              C:\Nburn/lib/DBNetBurner.a(httpinternal.od) (_Z16SendFullResponsePKci)
C:\Nburn/lib/DBNetBurner.a(iosys.od)
                              C:\Nburn/lib/DBNANO54415.a(serial.od) (_Z12SetDataAvaili)
C:\Nburn/lib/DBNetBurner.a(new_ops.od)
                              Drivers\introspec.od (_Znwm)
C:\Nburn/lib/DBNetBurner.a(autoip.od)
                              C:\Nburn/lib/DBNetBurner.a(arp.od) (_ZN12AutoIPClient16addressCollisionEv)
C:\Nburn/lib/DBNetBurner.a(dhcpc.od)
                              main.od (_Z25GetDHCPAddressIfNecessaryib)
C:\Nburn/lib/DBNetBurner.a(netrx.od)
                              C:\Nburn/lib/DBNANO54415.a(ethernet.od) (_Z7NetDoRXP11pool_bufferti)
C:\Nburn/lib/DBNetBurner.a(netinterface.od)
                              C:\Nburn/lib/DBNetBurner.a(ip.od) (pArpFunc)
C:\Nburn/lib/DBNetBurner.a(multiconfig.od)
                              C:\Nburn/lib/DBNANO54415.a(ether2nd.od) (_Z16SetupIFConfigRecR15_InterfaceBlock)
C:\Nburn/lib/DBNetBurner.a(taskmon.od)
                              main.od (_Z17EnableTaskMonitorv)
C:\Nburn/lib/DBNetBurner.a(smarttrap.od)
                              C:\Nburn/lib/DBNANO54415.a(bsp.od) (smart_trap_asm)
C:\Nburn/lib/DBNetBurner.a(autoupdate.od)
                              main.od (_Z16EnableAutoUpdatev)
C:\Nburn/lib/DBNetBurner.a(device.od)
                              C:\Nburn/lib/DBNetBurner.a(cppmain.od) (_Z19DeviceInitializeSemv)
C:\Nburn/lib/DBNetBurner.a(base64.od)
                              C:\Nburn/lib/DBNetBurner.a(htmldecomp.od) (_ZN6b64ctxC1EPci)
C:\Nburn/lib/DBNetBurner.a(nbiprintf.od)
                              main.od (iprintf)
C:\Nburn/lib/DBNetBurner.a(nbprintf.od)
                              Drivers\introspec.od (printf)
C:\Nburn/lib/DBNetBurner.a(nbsiprintf.od)
                              C:\Nburn/lib/DBNetBurner.a(utils.od) (siprintf)
C:\Nburn/lib/DBNetBurner.a(nbsprintf.od)
                              tests.od (sprintf)
C:\Nburn/lib/DBNetBurner.a(weakumain.od)
                              C:\Nburn/lib/DBNetBurner.a(cppmain.od) (_Z8UserMainPv)
C:\Nburn/lib/DBNetBurner.a(cusermain.od)
                              C:\Nburn/lib/DBNetBurner.a(weakumain.od) (callcusermain)
C:\Nburn/lib/DBNetBurner.a(fdprintf.od)
                              C:\Nburn/lib/DBNetBurner.a(ftpd.od) (_Z8fdprintfiPKcz)
C:\Nburn/lib/DBNetBurner.a(websocket_handler.od)
                              C:\Nburn/lib/DBNetBurner.a(httpinternal.od) (TheWSHandler)
C:\Nburn/lib/DBNetBurner.a(ipv6_addr.od)
                              C:\Nburn/lib/DBNetBurner.a(tcp.od) (_ZNK7IPADDR65printEbb)
C:\Nburn/lib/DBNetBurner.a(ipv6_tcp.od)
                              C:\Nburn/lib/DBNetBurner.a(tcp.od) (_Z7IsMyIp6RK7IPADDR6)
C:\Nburn/lib/DBNetBurner.a(ipv6_ip.od)
                              C:\Nburn/lib/DBNetBurner.a(ipv6_tcp.od) (_ZN22IPV6_ROOT_EL_CONTAINER4FindERK7IPADDR6b)
C:\Nburn/lib/DBNetBurner.a(ipv6_udp.od)
                              C:\Nburn/lib/DBNetBurner.a(udp.od) (_ZN9UDPPacket11SetUpUdpPktEP11pool_buffer)
C:\Nburn/lib/DBNetBurner.a(ipv6_printhelp.od)
                              C:\Nburn/lib/DBNetBurner.a(nbiprintf.od) (_ZN7IPADDR611GetPrintLenEb)
C:\Nburn/lib/DBNetBurner.a(ipv6_extensions.od)
                              C:\Nburn/lib/DBNetBurner.a(ipv6_ip.od) (_ZN13IPv6Interface18JoinMulticastGroupERK7IPADDR6)
C:\Nburn/lib/DBNetBurner.a(ipv6_multicast.od)
                              C:\Nburn/lib/DBNetBurner.a(ipv6_ip.od) (_Z17ListeningForGroupRK7IPADDR6)
C:\Nburn/lib/DBNetBurner.a(ipv6_show.od)
                              C:\Nburn/lib/DBNetBurner.a(ipv6_ip.od) (_ZN11IPV6_PREFIX8ShowItemEv)
C:\Nburn/lib/DBNetBurner.a(ipv6_dhcp.od)
                              C:\Nburn/lib/DBNetBurner.a(ipv6_ip.od) (_ZN2NB2V66DHCPv610DHCPClient16ProcessDHCPAvailEP13IPv6Interfaceh)
C:\Nburn/lib/DBNetBurner.a(multicast.od)
                              C:\Nburn/lib/DBNetBurner.a(ipv6_multicast.od) (mrecs)
C:\Nburn/lib/DBNetBurner.a(random.od)
                              C:\Nburn/lib/DBNetBurner.a(ipv6_dhcp.od) (_Z14GetRandomDwordv)
C:\Nburn/lib/DBNetBurner.a(nbfloatprint.od)
                              C:\Nburn/lib/DBNetBurner.a(nbprintf.od) (_Z14TheFloatPrintfcPFiPvPKciES_dR7pfstate)
C:\Nburn/lib/DBNetBurner.a(fdiprintf.od)
                              C:\Nburn/lib/DBNetBurner.a(fdprintf.od) (_Z11putafdcharsPvPKci)
C:\Nburn/lib/DBNetBurner.a(md5c.od)
                              C:\Nburn/lib/DBNetBurner.a(random.od) (_ZN7MD5_CTX8__UpdateEPKhj)
c:/nburn/gcc-m68k/bin/../m68k-unknown-elf/sysroot/lib/m54455\libstdc++.a(pure.o)
                              Drivers\introspec.od (__cxa_pure_virtual)
c:/nburn/gcc-m68k/bin/../m68k-unknown-elf/sysroot/lib/m54455\libstdc++.a(eh_terminate.o)
                              c:/nburn/gcc-m68k/bin/../m68k-unknown-elf/sysroot/lib/m54455\libstdc++.a(pure.o) (_ZSt9terminatev)
c:/nburn/gcc-m68k/bin/../m68k-unknown-elf/sysroot/lib/m54455\libstdc++.a(del_op.o)
                              Map.od (_ZdlPv)
c:/nburn/gcc-m68k/bin/../m68k-unknown-elf/sysroot/lib/m54455\libstdc++.a(del_ops.o)
                              Nav.od (_ZdlPvm)
c:/nburn/gcc-m68k/bin/../m68k-unknown-elf/sysroot/lib/m54455\libstdc++.a(eh_unex_handler.o)
                              c:/nburn/gcc-m68k/bin/../m68k-unknown-elf/sysroot/lib/m54455\libstdc++.a(eh_terminate.o) (_ZN10__cxxabiv120__unexpected_handlerE)
c:/nburn/gcc-m68k/bin/../m68k-unknown-elf/sysroot/lib/m54455\libstdc++.a(eh_term_handler.o)
                              c:/nburn/gcc-m68k/bin/../m68k-unknown-elf/sysroot/lib/m54455\libstdc++.a(eh_terminate.o) (_ZN10__cxxabiv119__terminate_handlerE)
c:/nburn/gcc-m68k/bin/../m68k-unknown-elf/sysroot/lib/m54455\libstdc++.a(eh_catch.o)
                              c:/nburn/gcc-m68k/bin/../m68k-unknown-elf/sysroot/lib/m54455\libstdc++.a(eh_terminate.o) (__cxa_begin_catch)
c:/nburn/gcc-m68k/bin/../m68k-unknown-elf/sysroot/lib/m54455\libstdc++.a(eh_personality.o)
                              c:/nburn/gcc-m68k/bin/../m68k-unknown-elf/sysroot/lib/m54455\libstdc++.a(eh_terminate.o) (__gxx_personality_v0)
c:/nburn/gcc-m68k/bin/../m68k-unknown-elf/sysroot/lib/m54455\libstdc++.a(eh_exception.o)
                              c:/nburn/gcc-m68k/bin/../m68k-unknown-elf/sysroot/lib/m54455\libstdc++.a(eh_personality.o) (_ZNSt13bad_exceptionD1Ev)
c:/nburn/gcc-m68k/bin/../m68k-unknown-elf/sysroot/lib/m54455\libstdc++.a(eh_globals.o)
                              c:/nburn/gcc-m68k/bin/../m68k-unknown-elf/sysroot/lib/m54455\libstdc++.a(eh_catch.o) (__cxa_get_globals_fast)
c:/nburn/gcc-m68k/bin/../m68k-unknown-elf/sysroot/lib/m54455\libstdc++.a(vterminate.o)
                              c:/nburn/gcc-m68k/bin/../m68k-unknown-elf/sysroot/lib/m54455\libstdc++.a(eh_term_handler.o) (_ZN9__gnu_cxx27__verbose_terminate_handlerEv)
c:/nburn/gcc-m68k/bin/../m68k-unknown-elf/sysroot/lib/m54455\libstdc++.a(eh_alloc.o)
                              c:/nburn/gcc-m68k/bin/../m68k-unknown-elf/sysroot/lib/m54455\libstdc++.a(eh_personality.o) (__cxa_allocate_exception)
c:/nburn/gcc-m68k/bin/../m68k-unknown-elf/sysroot/lib/m54455\libstdc++.a(cp-demangle.o)
                              c:/nburn/gcc-m68k/bin/../m68k-unknown-elf/sysroot/lib/m54455\libstdc++.a(vterminate.o) (__cxa_demangle)
c:/nburn/gcc-m68k/bin/../m68k-unknown-elf/sysroot/lib/m54455\libstdc++.a(eh_throw.o)
                              c:/nburn/gcc-m68k/bin/../m68k-unknown-elf/sysroot/lib/m54455\libstdc++.a(eh_personality.o) (__cxa_throw)
c:/nburn/gcc-m68k/bin/../m68k-unknown-elf/sysroot/lib/m54455\libstdc++.a(eh_type.o)
                              c:/nburn/gcc-m68k/bin/../m68k-unknown-elf/sysroot/lib/m54455\libstdc++.a(vterminate.o) (__cxa_current_exception_type)
c:/nburn/gcc-m68k/bin/../m68k-unknown-elf/sysroot/lib/m54455\libstdc++.a(si_class_type_info.o)
                              c:/nburn/gcc-m68k/bin/../m68k-unknown-elf/sysroot/lib/m54455\libstdc++.a(eh_exception.o) (_ZTVN10__cxxabiv120__si_class_type_infoE)
c:/nburn/gcc-m68k/bin/../m68k-unknown-elf/sysroot/lib/m54455\libstdc++.a(eh_call.o)
                              c:/nburn/gcc-m68k/bin/../m68k-unknown-elf/sysroot/lib/m54455\libstdc++.a(eh_personality.o) (__cxa_call_terminate)
c:/nburn/gcc-m68k/bin/../m68k-unknown-elf/sysroot/lib/m54455\libstdc++.a(class_type_info.o)
                              c:/nburn/gcc-m68k/bin/../m68k-unknown-elf/sysroot/lib/m54455\libstdc++.a(si_class_type_info.o) (_ZNK10__cxxabiv117__class_type_info11__do_upcastEPKS0_PPv)
c:/nburn/gcc-m68k/bin/../m68k-unknown-elf/sysroot/lib/m54455\libstdc++.a(tinfo.o)
                              c:/nburn/gcc-m68k/bin/../m68k-unknown-elf/sysroot/lib/m54455\libstdc++.a(class_type_info.o) (_ZNSt9type_infoD2Ev)
c:/nburn/gcc-m68k/bin/../m68k-unknown-elf/sysroot/lib/m54455\libm.a(lib_a-s_cos.o)
                              Nav.od (cos)
c:/nburn/gcc-m68k/bin/../m68k-unknown-elf/sysroot/lib/m54455\libm.a(lib_a-s_fpclassify.o)
                              C:\Nburn/lib/DBNetBurner.a(nbfloatprint.od) (__fpclassifyd)
c:/nburn/gcc-m68k/bin/../m68k-unknown-elf/sysroot/lib/m54455\libm.a(lib_a-s_modf.o)
                              C:\Nburn/lib/DBNetBurner.a(nbfloatprint.od) (modf)
c:/nburn/gcc-m68k/bin/../m68k-unknown-elf/sysroot/lib/m54455\libm.a(lib_a-s_round.o)
                              Drivers\SpinningLidar.od (round)
c:/nburn/gcc-m68k/bin/../m68k-unknown-elf/sysroot/lib/m54455\libm.a(lib_a-s_sin.o)
                              Nav.od (sin)
c:/nburn/gcc-m68k/bin/../m68k-unknown-elf/sysroot/lib/m54455\libm.a(lib_a-w_atan2.o)
                              Nav.od (atan2)
c:/nburn/gcc-m68k/bin/../m68k-unknown-elf/sysroot/lib/m54455\libm.a(lib_a-w_pow.o)
                              Nav.od (pow)
c:/nburn/gcc-m68k/bin/../m68k-unknown-elf/sysroot/lib/m54455\libm.a(lib_a-w_sqrt.o)
                              Nav.od (sqrt)
c:/nburn/gcc-m68k/bin/../m68k-unknown-elf/sysroot/lib/m54455\libm.a(lib_a-wf_asin.o)
                              Drivers\IMUSetupAndSample.od (asinf)
c:/nburn/gcc-m68k/bin/../m68k-unknown-elf/sysroot/lib/m54455\libm.a(lib_a-wf_atan2.o)
                              Drivers\IMUSetupAndSample.od (atan2f)
c:/nburn/gcc-m68k/bin/../m68k-unknown-elf/sysroot/lib/m54455\libm.a(lib_a-wf_sqrt.o)
                              Drivers\MadgwickFilter.od (sqrtf)
c:/nburn/gcc-m68k/bin/../m68k-unknown-elf/sysroot/lib/m54455\libm.a(lib_a-e_atan2.o)
                              c:/nburn/gcc-m68k/bin/../m68k-unknown-elf/sysroot/lib/m54455\libm.a(lib_a-w_atan2.o) (__ieee754_atan2)
c:/nburn/gcc-m68k/bin/../m68k-unknown-elf/sysroot/lib/m54455\libm.a(lib_a-e_pow.o)
                              c:/nburn/gcc-m68k/bin/../m68k-unknown-elf/sysroot/lib/m54455\libm.a(lib_a-w_pow.o) (__ieee754_pow)
c:/nburn/gcc-m68k/bin/../m68k-unknown-elf/sysroot/lib/m54455\libm.a(lib_a-e_rem_pio2.o)
                              c:/nburn/gcc-m68k/bin/../m68k-unknown-elf/sysroot/lib/m54455\libm.a(lib_a-s_cos.o) (__ieee754_rem_pio2)
c:/nburn/gcc-m68k/bin/../m68k-unknown-elf/sysroot/lib/m54455\libm.a(lib_a-e_sqrt.o)
                              c:/nburn/gcc-m68k/bin/../m68k-unknown-elf/sysroot/lib/m54455\libm.a(lib_a-w_sqrt.o) (__ieee754_sqrt)
c:/nburn/gcc-m68k/bin/../m68k-unknown-elf/sysroot/lib/m54455\libm.a(lib_a-ef_asin.o)
                              c:/nburn/gcc-m68k/bin/../m68k-unknown-elf/sysroot/lib/m54455\libm.a(lib_a-wf_asin.o) (__ieee754_asinf)
c:/nburn/gcc-m68k/bin/../m68k-unknown-elf/sysroot/lib/m54455\libm.a(lib_a-ef_atan2.o)
                              c:/nburn/gcc-m68k/bin/../m68k-unknown-elf/sysroot/lib/m54455\libm.a(lib_a-wf_atan2.o) (__ieee754_atan2f)
c:/nburn/gcc-m68k/bin/../m68k-unknown-elf/sysroot/lib/m54455\libm.a(lib_a-ef_sqrt.o)
                              c:/nburn/gcc-m68k/bin/../m68k-unknown-elf/sysroot/lib/m54455\libm.a(lib_a-wf_sqrt.o) (__ieee754_sqrtf)
c:/nburn/gcc-m68k/bin/../m68k-unknown-elf/sysroot/lib/m54455\libm.a(lib_a-k_cos.o)
                              c:/nburn/gcc-m68k/bin/../m68k-unknown-elf/sysroot/lib/m54455\libm.a(lib_a-s_cos.o) (__kernel_cos)
c:/nburn/gcc-m68k/bin/../m68k-unknown-elf/sysroot/lib/m54455\libm.a(lib_a-k_rem_pio2.o)
                              c:/nburn/gcc-m68k/bin/../m68k-unknown-elf/sysroot/lib/m54455\libm.a(lib_a-e_rem_pio2.o) (__kernel_rem_pio2)
c:/nburn/gcc-m68k/bin/../m68k-unknown-elf/sysroot/lib/m54455\libm.a(lib_a-k_sin.o)
                              c:/nburn/gcc-m68k/bin/../m68k-unknown-elf/sysroot/lib/m54455\libm.a(lib_a-s_cos.o) (__kernel_sin)
c:/nburn/gcc-m68k/bin/../m68k-unknown-elf/sysroot/lib/m54455\libm.a(lib_a-s_atan.o)
                              c:/nburn/gcc-m68k/bin/../m68k-unknown-elf/sysroot/lib/m54455\libm.a(lib_a-e_atan2.o) (atan)
c:/nburn/gcc-m68k/bin/../m68k-unknown-elf/sysroot/lib/m54455\libm.a(lib_a-s_fabs.o)
                              c:/nburn/gcc-m68k/bin/../m68k-unknown-elf/sysroot/lib/m54455\libm.a(lib_a-e_atan2.o) (fabs)
c:/nburn/gcc-m68k/bin/../m68k-unknown-elf/sysroot/lib/m54455\libm.a(lib_a-s_finite.o)
                              c:/nburn/gcc-m68k/bin/../m68k-unknown-elf/sysroot/lib/m54455\libm.a(lib_a-w_pow.o) (finite)
c:/nburn/gcc-m68k/bin/../m68k-unknown-elf/sysroot/lib/m54455\libm.a(lib_a-s_floor.o)
                              c:/nburn/gcc-m68k/bin/../m68k-unknown-elf/sysroot/lib/m54455\libm.a(lib_a-k_rem_pio2.o) (floor)
c:/nburn/gcc-m68k/bin/../m68k-unknown-elf/sysroot/lib/m54455\libm.a(lib_a-s_lib_ver.o)
                              c:/nburn/gcc-m68k/bin/../m68k-unknown-elf/sysroot/lib/m54455\libm.a(lib_a-w_pow.o) (__fdlib_version)
c:/nburn/gcc-m68k/bin/../m68k-unknown-elf/sysroot/lib/m54455\libm.a(lib_a-s_matherr.o)
                              c:/nburn/gcc-m68k/bin/../m68k-unknown-elf/sysroot/lib/m54455\libm.a(lib_a-w_pow.o) (matherr)
c:/nburn/gcc-m68k/bin/../m68k-unknown-elf/sysroot/lib/m54455\libm.a(lib_a-s_nan.o)
                              c:/nburn/gcc-m68k/bin/../m68k-unknown-elf/sysroot/lib/m54455\libm.a(lib_a-wf_asin.o) (nan)
c:/nburn/gcc-m68k/bin/../m68k-unknown-elf/sysroot/lib/m54455\libm.a(lib_a-s_rint.o)
                              c:/nburn/gcc-m68k/bin/../m68k-unknown-elf/sysroot/lib/m54455\libm.a(lib_a-w_pow.o) (rint)
c:/nburn/gcc-m68k/bin/../m68k-unknown-elf/sysroot/lib/m54455\libm.a(lib_a-s_scalbn.o)
                              c:/nburn/gcc-m68k/bin/../m68k-unknown-elf/sysroot/lib/m54455\libm.a(lib_a-e_pow.o) (scalbn)
c:/nburn/gcc-m68k/bin/../m68k-unknown-elf/sysroot/lib/m54455\libm.a(lib_a-sf_atan.o)
                              c:/nburn/gcc-m68k/bin/../m68k-unknown-elf/sysroot/lib/m54455\libm.a(lib_a-ef_atan2.o) (atanf)
c:/nburn/gcc-m68k/bin/../m68k-unknown-elf/sysroot/lib/m54455\libm.a(lib_a-sf_fabs.o)
                              c:/nburn/gcc-m68k/bin/../m68k-unknown-elf/sysroot/lib/m54455\libm.a(lib_a-wf_asin.o) (fabsf)
c:/nburn/gcc-m68k/bin/../m68k-unknown-elf/sysroot/lib/m54455\libm.a(lib_a-sf_fpclassify.o)
                              c:/nburn/gcc-m68k/bin/../m68k-unknown-elf/sysroot/lib/m54455\libm.a(lib_a-wf_asin.o) (__fpclassifyf)
c:/nburn/gcc-m68k/bin/../m68k-unknown-elf/sysroot/lib/m54455\libm.a(lib_a-s_copysign.o)
                              c:/nburn/gcc-m68k/bin/../m68k-unknown-elf/sysroot/lib/m54455\libm.a(lib_a-s_scalbn.o) (copysign)
c:/nburn/gcc-m68k/bin/../lib/gcc/m68k-unknown-elf/5.2.0/m54455\libgcc.a(_double.o)
                              Nav.od (__adddf3)
c:/nburn/gcc-m68k/bin/../lib/gcc/m68k-unknown-elf/5.2.0/m54455\libgcc.a(_float.o)
                              Utility.od (__addsf3)
c:/nburn/gcc-m68k/bin/../lib/gcc/m68k-unknown-elf/5.2.0/m54455\libgcc.a(_floatex.o)
                              c:/nburn/gcc-m68k/bin/../lib/gcc/m68k-unknown-elf/5.2.0/m54455\libgcc.a(_double.o) (_fpCCR)
c:/nburn/gcc-m68k/bin/../lib/gcc/m68k-unknown-elf/5.2.0/m54455\libgcc.a(_eqdf2.o)
                              Drivers\servodrive.od (__eqdf2)
c:/nburn/gcc-m68k/bin/../lib/gcc/m68k-unknown-elf/5.2.0/m54455\libgcc.a(_nedf2.o)
                              C:\Nburn/lib/DBNANO54415.a(HiResTimer.od) (__nedf2)
c:/nburn/gcc-m68k/bin/../lib/gcc/m68k-unknown-elf/5.2.0/m54455\libgcc.a(_gtdf2.o)
                              Nav.od (__gtdf2)
c:/nburn/gcc-m68k/bin/../lib/gcc/m68k-unknown-elf/5.2.0/m54455\libgcc.a(_gedf2.o)
                              Drivers\servodrive.od (__gedf2)
c:/nburn/gcc-m68k/bin/../lib/gcc/m68k-unknown-elf/5.2.0/m54455\libgcc.a(_ltdf2.o)
                              C:\Nburn/lib/DBNetBurner.a(nbfloatprint.od) (__ltdf2)
c:/nburn/gcc-m68k/bin/../lib/gcc/m68k-unknown-elf/5.2.0/m54455\libgcc.a(_ledf2.o)
                              Drivers\servodrive.od (__ledf2)
c:/nburn/gcc-m68k/bin/../lib/gcc/m68k-unknown-elf/5.2.0/m54455\libgcc.a(_eqsf2.o)
                              Drivers\MadgwickFilter.od (__eqsf2)
c:/nburn/gcc-m68k/bin/../lib/gcc/m68k-unknown-elf/5.2.0/m54455\libgcc.a(_gtsf2.o)
                              Utility.od (__gtsf2)
c:/nburn/gcc-m68k/bin/../lib/gcc/m68k-unknown-elf/5.2.0/m54455\libgcc.a(_ltsf2.o)
                              Utility.od (__ltsf2)
c:/nburn/gcc-m68k/bin/../lib/gcc/m68k-unknown-elf/5.2.0/m54455\libgcc.a(_muldi3.o)
                              C:\Nburn/lib/DBNetBurner.a(nbiprintf.od) (__muldi3)
c:/nburn/gcc-m68k/bin/../lib/gcc/m68k-unknown-elf/5.2.0/m54455\libgcc.a(_fixunsdfsi.o)
                              Drivers\servodrive.od (__fixunsdfsi)
c:/nburn/gcc-m68k/bin/../lib/gcc/m68k-unknown-elf/5.2.0/m54455\libgcc.a(_fixunsdfdi.o)
                              C:\Nburn/lib/DBNetBurner.a(nbfloatprint.od) (__fixunsdfdi)
c:/nburn/gcc-m68k/bin/../lib/gcc/m68k-unknown-elf/5.2.0/m54455\libgcc.a(_udivdi3.o)
                              C:\Nburn/lib/DBNetBurner.a(nbiprintf.od) (__udivdi3)
c:/nburn/gcc-m68k/bin/../lib/gcc/m68k-unknown-elf/5.2.0/m54455\libgcc.a(_umoddi3.o)
                              C:\Nburn/lib/DBNetBurner.a(nbiprintf.od) (__umoddi3)
c:/nburn/gcc-m68k/bin/../lib/gcc/m68k-unknown-elf/5.2.0/m54455\libgcc.a(fpgnulib.o)
                              Utility.od (__floatunsidf)
c:/nburn/gcc-m68k/bin/../lib/gcc/m68k-unknown-elf/5.2.0/m54455\libgcc.a(unwind-dw2.o)
                              c:/nburn/gcc-m68k/bin/../m68k-unknown-elf/sysroot/lib/m54455\libstdc++.a(eh_personality.o) (_Unwind_SetGR)
c:/nburn/gcc-m68k/bin/../lib/gcc/m68k-unknown-elf/5.2.0/m54455\libgcc.a(unwind-dw2-fde.o)
                              c:/nburn/gcc-m68k/bin/../lib/gcc/m68k-unknown-elf/5.2.0/m54455\libgcc.a(unwind-dw2.o) (_Unwind_Find_FDE)
c:/nburn/gcc-m68k/bin/../m68k-unknown-elf/sysroot/lib/m54455\libc.a(lib_a-abort.o)
                              c:/nburn/gcc-m68k/bin/../m68k-unknown-elf/sysroot/lib/m54455\libstdc++.a(eh_terminate.o) (abort)
c:/nburn/gcc-m68k/bin/../m68k-unknown-elf/sysroot/lib/m54455\libc.a(lib_a-atexit.o)
                              c:/nburn/gcc-m68k/bin/../lib/gcc/m68k-unknown-elf/5.2.0/m54455\nb-crt0.o (atexit)
c:/nburn/gcc-m68k/bin/../m68k-unknown-elf/sysroot/lib/m54455\libc.a(lib_a-atoi.o)
                              C:\Nburn/lib/DBNetBurner.a(ftpd.od) (atoi)
c:/nburn/gcc-m68k/bin/../m68k-unknown-elf/sysroot/lib/m54455\libc.a(lib_a-bsearch.o)
                              C:\Nburn/lib/DBNetBurner.a(htmldecomp.od) (bsearch)
c:/nburn/gcc-m68k/bin/../m68k-unknown-elf/sysroot/lib/m54455\libc.a(lib_a-bzero.o)
                              C:\Nburn/lib/DBNetBurner.a(http.od) (bzero)
c:/nburn/gcc-m68k/bin/../m68k-unknown-elf/sysroot/lib/m54455\libc.a(lib_a-cxa_atexit.o)
                              main.od (__cxa_atexit)
c:/nburn/gcc-m68k/bin/../m68k-unknown-elf/sysroot/lib/m54455\libc.a(lib_a-errno.o)
                              C:\Nburn/lib/DBNetBurner.a(fileio.od) (__errno)
c:/nburn/gcc-m68k/bin/../m68k-unknown-elf/sysroot/lib/m54455\libc.a(lib_a-fputc.o)
                              c:/nburn/gcc-m68k/bin/../m68k-unknown-elf/sysroot/lib/m54455\libstdc++.a(vterminate.o) (fputc)
c:/nburn/gcc-m68k/bin/../m68k-unknown-elf/sysroot/lib/m54455\libc.a(lib_a-fputs.o)
                              c:/nburn/gcc-m68k/bin/../m68k-unknown-elf/sysroot/lib/m54455\libstdc++.a(vterminate.o) (fputs)
c:/nburn/gcc-m68k/bin/../m68k-unknown-elf/sysroot/lib/m54455\libc.a(lib_a-fvwrite.o)
                              c:/nburn/gcc-m68k/bin/../m68k-unknown-elf/sysroot/lib/m54455\libc.a(lib_a-fputs.o) (__sfvwrite_r)
c:/nburn/gcc-m68k/bin/../m68k-unknown-elf/sysroot/lib/m54455\libc.a(lib_a-fwrite.o)
                              C:\Nburn/lib/DBNetBurner.a(nbsprintf.od) (fwrite)
c:/nburn/gcc-m68k/bin/../m68k-unknown-elf/sysroot/lib/m54455\libc.a(lib_a-impure.o)
                              C:\Nburn/lib/DBNetBurner.a(ucosmain.od) (_impure_ptr)
c:/nburn/gcc-m68k/bin/../m68k-unknown-elf/sysroot/lib/m54455\libc.a(lib_a-isalnum.o)
                              C:\Nburn/lib/DBNetBurner.a(httpinternal.od) (isalnum)
c:/nburn/gcc-m68k/bin/../m68k-unknown-elf/sysroot/lib/m54455\libc.a(lib_a-isspace.o)
                              C:\Nburn/lib/DBNetBurner.a(ftpd.od) (isspace)
c:/nburn/gcc-m68k/bin/../m68k-unknown-elf/sysroot/lib/m54455\libc.a(lib_a-malloc.o)
                              C:\Nburn/lib/DBNetBurner.a(new_ops.od) (malloc)
c:/nburn/gcc-m68k/bin/../m68k-unknown-elf/sysroot/lib/m54455\libc.a(lib_a-mallocr.o)
                              c:/nburn/gcc-m68k/bin/../m68k-unknown-elf/sysroot/lib/m54455\libc.a(lib_a-fvwrite.o) (_malloc_r)
c:/nburn/gcc-m68k/bin/../m68k-unknown-elf/sysroot/lib/m54455\libc.a(lib_a-memchr.o)
                              c:/nburn/gcc-m68k/bin/../m68k-unknown-elf/sysroot/lib/m54455\libc.a(lib_a-fvwrite.o) (memchr)
c:/nburn/gcc-m68k/bin/../m68k-unknown-elf/sysroot/lib/m54455\libc.a(lib_a-memcmp.o)
                              C:\Nburn/lib/DBNANO54415.a(FlashOps.od) (memcmp)
c:/nburn/gcc-m68k/bin/../m68k-unknown-elf/sysroot/lib/m54455\libc.a(lib_a-memmove.o)
                              c:/nburn/gcc-m68k/bin/../m68k-unknown-elf/sysroot/lib/m54455\libc.a(lib_a-fvwrite.o) (memmove)
c:/nburn/gcc-m68k/bin/../m68k-unknown-elf/sysroot/lib/m54455\libc.a(lib_a-putc.o)
                              c:/nburn/gcc-m68k/bin/../m68k-unknown-elf/sysroot/lib/m54455\libc.a(lib_a-fputc.o) (_putc_r)
c:/nburn/gcc-m68k/bin/../m68k-unknown-elf/sysroot/lib/m54455\libc.a(lib_a-puts.o)
                              Drivers\SpinningLidar.od (puts)
c:/nburn/gcc-m68k/bin/../m68k-unknown-elf/sysroot/lib/m54455\libc.a(lib_a-rand.o)
                              C:\Nburn/lib/DBNetBurner.a(autoip.od) (srand)
c:/nburn/gcc-m68k/bin/../m68k-unknown-elf/sysroot/lib/m54455\libc.a(lib_a-realloc.o)
                              c:/nburn/gcc-m68k/bin/../m68k-unknown-elf/sysroot/lib/m54455\libstdc++.a(cp-demangle.o) (realloc)
c:/nburn/gcc-m68k/bin/../m68k-unknown-elf/sysroot/lib/m54455\libc.a(lib_a-reallocr.o)
                              c:/nburn/gcc-m68k/bin/../m68k-unknown-elf/sysroot/lib/m54455\libc.a(lib_a-fvwrite.o) (_realloc_r)
c:/nburn/gcc-m68k/bin/../m68k-unknown-elf/sysroot/lib/m54455\libc.a(lib_a-rget.o)
                              C:\Nburn/lib/DBNetBurner.a(fileio.od) (__srget_r)
c:/nburn/gcc-m68k/bin/../m68k-unknown-elf/sysroot/lib/m54455\libc.a(lib_a-setjmp.o)
                              C:\Nburn/lib/DBNANO54415.a(dbethernet.od) (setjmp)
c:/nburn/gcc-m68k/bin/../m68k-unknown-elf/sysroot/lib/m54455\libc.a(lib_a-setvbuf.o)
                              C:\Nburn/lib/DBNetBurner.a(ucosmain.od) (setvbuf)
c:/nburn/gcc-m68k/bin/../m68k-unknown-elf/sysroot/lib/m54455\libc.a(lib_a-signal.o)
                              c:/nburn/gcc-m68k/bin/../m68k-unknown-elf/sysroot/lib/m54455\libc.a(lib_a-abort.o) (raise)
c:/nburn/gcc-m68k/bin/../m68k-unknown-elf/sysroot/lib/m54455\libc.a(lib_a-signalr.o)
                              c:/nburn/gcc-m68k/bin/../m68k-unknown-elf/sysroot/lib/m54455\libc.a(lib_a-signal.o) (_kill_r)
c:/nburn/gcc-m68k/bin/../m68k-unknown-elf/sysroot/lib/m54455\libc.a(lib_a-strcat.o)
                              Drivers\introspec.od (strcat)
c:/nburn/gcc-m68k/bin/../m68k-unknown-elf/sysroot/lib/m54455\libc.a(lib_a-strcmp.o)
                              Drivers\introspec.od (strcmp)
c:/nburn/gcc-m68k/bin/../m68k-unknown-elf/sysroot/lib/m54455\libc.a(lib_a-strcpy.o)
                              C:\Nburn/lib/DBNetBurner.a(ftpd.od) (strcpy)
c:/nburn/gcc-m68k/bin/../m68k-unknown-elf/sysroot/lib/m54455\libc.a(lib_a-strlen.o)
                              Drivers\introspec.od (strlen)
c:/nburn/gcc-m68k/bin/../m68k-unknown-elf/sysroot/lib/m54455\libc.a(lib_a-strncmp.o)
                              c:/nburn/gcc-m68k/bin/../m68k-unknown-elf/sysroot/lib/m54455\libstdc++.a(cp-demangle.o) (strncmp)
c:/nburn/gcc-m68k/bin/../m68k-unknown-elf/sysroot/lib/m54455\libc.a(lib_a-strncpy.o)
                              C:\Nburn/lib/DBNetBurner.a(udp.od) (strncpy)
c:/nburn/gcc-m68k/bin/../m68k-unknown-elf/sysroot/lib/m54455\libc.a(lib_a-strstr.o)
                              C:\Nburn/lib/DBNetBurner.a(udp.od) (strstr)
c:/nburn/gcc-m68k/bin/../m68k-unknown-elf/sysroot/lib/m54455\libc.a(lib_a-strtol.o)
                              c:/nburn/gcc-m68k/bin/../m68k-unknown-elf/sysroot/lib/m54455\libc.a(lib_a-atoi.o) (_strtol_r)
c:/nburn/gcc-m68k/bin/../m68k-unknown-elf/sysroot/lib/m54455\libc.a(lib_a-tolower.o)
                              C:\Nburn/lib/DBNetBurner.a(htmldecomp.od) (tolower)
c:/nburn/gcc-m68k/bin/../m68k-unknown-elf/sysroot/lib/m54455\libc.a(lib_a-toupper.o)
                              C:\Nburn/lib/DBNetBurner.a(utils.od) (toupper)
c:/nburn/gcc-m68k/bin/../m68k-unknown-elf/sysroot/lib/m54455\libc.a(lib_a-wbuf.o)
                              C:\Nburn/lib/DBNetBurner.a(system.od) (__swbuf_r)
c:/nburn/gcc-m68k/bin/../m68k-unknown-elf/sysroot/lib/m54455\libc.a(lib_a-wsetup.o)
                              c:/nburn/gcc-m68k/bin/../m68k-unknown-elf/sysroot/lib/m54455\libc.a(lib_a-fvwrite.o) (__swsetup_r)
c:/nburn/gcc-m68k/bin/../m68k-unknown-elf/sysroot/lib/m54455\libc.a(lib_a-__atexit.o)
                              c:/nburn/gcc-m68k/bin/../m68k-unknown-elf/sysroot/lib/m54455\libc.a(lib_a-atexit.o) (__register_exitproc)
c:/nburn/gcc-m68k/bin/../m68k-unknown-elf/sysroot/lib/m54455\libc.a(lib_a-ctype_.o)
                              c:/nburn/gcc-m68k/bin/../m68k-unknown-elf/sysroot/lib/m54455\libc.a(lib_a-isalnum.o) (__ctype_ptr__)
c:/nburn/gcc-m68k/bin/../m68k-unknown-elf/sysroot/lib/m54455\libc.a(lib_a-fflush.o)
                              c:/nburn/gcc-m68k/bin/../m68k-unknown-elf/sysroot/lib/m54455\libc.a(lib_a-fvwrite.o) (_fflush_r)
c:/nburn/gcc-m68k/bin/../m68k-unknown-elf/sysroot/lib/m54455\libc.a(lib_a-findfp.o)
                              c:/nburn/gcc-m68k/bin/../m68k-unknown-elf/sysroot/lib/m54455\libc.a(lib_a-setvbuf.o) (_cleanup_r)
c:/nburn/gcc-m68k/bin/../m68k-unknown-elf/sysroot/lib/m54455\libc.a(lib_a-freer.o)
                              c:/nburn/gcc-m68k/bin/../m68k-unknown-elf/sysroot/lib/m54455\libc.a(lib_a-fvwrite.o) (_free_r)
c:/nburn/gcc-m68k/bin/../m68k-unknown-elf/sysroot/lib/m54455\libc.a(lib_a-fwalk.o)
                              c:/nburn/gcc-m68k/bin/../m68k-unknown-elf/sysroot/lib/m54455\libc.a(lib_a-findfp.o) (_fwalk)
c:/nburn/gcc-m68k/bin/../m68k-unknown-elf/sysroot/lib/m54455\libc.a(lib_a-makebuf.o)
                              c:/nburn/gcc-m68k/bin/../m68k-unknown-elf/sysroot/lib/m54455\libc.a(lib_a-wsetup.o) (__smakebuf_r)
c:/nburn/gcc-m68k/bin/../m68k-unknown-elf/sysroot/lib/m54455\libc.a(lib_a-refill.o)
                              c:/nburn/gcc-m68k/bin/../m68k-unknown-elf/sysroot/lib/m54455\libc.a(lib_a-rget.o) (__srefill_r)
c:/nburn/gcc-m68k/bin/../m68k-unknown-elf/sysroot/lib/m54455\libc.a(lib_a-stdio.o)
                              c:/nburn/gcc-m68k/bin/../m68k-unknown-elf/sysroot/lib/m54455\libc.a(lib_a-findfp.o) (__sread)
c:/nburn/gcc-m68k/bin/../m68k-unknown-elf/sysroot/lib/m54455\libc.a(lib_a-writer.o)
                              c:/nburn/gcc-m68k/bin/../m68k-unknown-elf/sysroot/lib/m54455\libc.a(lib_a-stdio.o) (_write_r)
c:/nburn/gcc-m68k/bin/../m68k-unknown-elf/sysroot/lib/m54455\libc.a(lib_a-closer.o)
                              c:/nburn/gcc-m68k/bin/../m68k-unknown-elf/sysroot/lib/m54455\libc.a(lib_a-stdio.o) (_close_r)
c:/nburn/gcc-m68k/bin/../m68k-unknown-elf/sysroot/lib/m54455\libc.a(lib_a-fclose.o)
                              c:/nburn/gcc-m68k/bin/../m68k-unknown-elf/sysroot/lib/m54455\libc.a(lib_a-findfp.o) (_fclose_r)
c:/nburn/gcc-m68k/bin/../m68k-unknown-elf/sysroot/lib/m54455\libc.a(lib_a-fstatr.o)
                              c:/nburn/gcc-m68k/bin/../m68k-unknown-elf/sysroot/lib/m54455\libc.a(lib_a-makebuf.o) (_fstat_r)
c:/nburn/gcc-m68k/bin/../m68k-unknown-elf/sysroot/lib/m54455\libc.a(lib_a-isattyr.o)
                              c:/nburn/gcc-m68k/bin/../m68k-unknown-elf/sysroot/lib/m54455\libc.a(lib_a-makebuf.o) (_isatty_r)
c:/nburn/gcc-m68k/bin/../m68k-unknown-elf/sysroot/lib/m54455\libc.a(lib_a-lseekr.o)
                              c:/nburn/gcc-m68k/bin/../m68k-unknown-elf/sysroot/lib/m54455\libc.a(lib_a-stdio.o) (_lseek_r)
c:/nburn/gcc-m68k/bin/../m68k-unknown-elf/sysroot/lib/m54455\libc.a(lib_a-readr.o)
                              c:/nburn/gcc-m68k/bin/../m68k-unknown-elf/sysroot/lib/m54455\libc.a(lib_a-stdio.o) (_read_r)

Discarded input sections

 .fini          0x00000000        0x6 c:/nburn/gcc-m68k/bin/../lib/gcc/m68k-unknown-elf/5.2.0/m54455/crtbegin.o
 .text          0x00000000        0x0 tests.od
 .data          0x00000000        0x0 tests.od
 .bss           0x00000000        0x0 tests.od
 .rodata        0x00000000        0x9 tests.od
 .text._ZN5tests14odoCalibrationEv
                0x00000000      0x1c0 tests.od
 .text._ZN5tests16moveForwardXFeetEi
                0x00000000       0xde tests.od
 .debug_info    0x00000000      0x1b7 tests.od
 .debug_abbrev  0x00000000      0x11e tests.od
 .debug_loc     0x00000000       0x40 tests.od
 .debug_aranges
                0x00000000       0x28 tests.od
 .debug_ranges  0x00000000       0x18 tests.od
 .debug_line    0x00000000       0xdd tests.od
 .debug_str     0x00000000      0x24e tests.od
 .comment       0x00000000       0x1d tests.od
 .debug_frame   0x00000000       0x50 tests.od
 .group         0x00000000        0x8 main.od
 .group         0x00000000        0x8 main.od
 .group         0x00000000        0x8 main.od
 .group         0x00000000        0x8 main.od
 .group         0x00000000        0x8 main.od
 .group         0x00000000        0x8 main.od
 .group         0x00000000        0x8 main.od
 .group         0x00000000        0x8 main.od
 .group         0x00000000        0x8 main.od
 .group         0x00000000        0x8 main.od
 .text          0x00000000        0x0 main.od
 .data          0x00000000        0x0 main.od
 .bss           0x00000000        0x0 main.od
 .group         0x00000000        0x8 Utility.od
 .group         0x00000000        0x8 Utility.od
 .group         0x00000000        0x8 Utility.od
 .group         0x00000000        0x8 Utility.od
 .text          0x00000000        0x0 Utility.od
 .data          0x00000000        0x0 Utility.od
 .bss           0x00000000        0x0 Utility.od
 .text.I2CInit  0x00000000       0x36 Utility.od
 .text.I2CStart
                0x00000000       0x38 Utility.od
 .text.I2CStop  0x00000000       0x1a Utility.od
 .rodata        0x00000000       0x49 Utility.od
 .text._ZN7Utility9countdownEiii
                0x00000000      0x150 Utility.od
 .text._ZN7Utility9feetToOdoEd
                0x00000000       0x40 Utility.od
 .text._ZN7Utility7I2CScanEPb
                0x00000000      0x13c Utility.od
 .group         0x00000000        0x8 Nav.od
 .text          0x00000000        0x0 Nav.od
 .data          0x00000000        0x0 Nav.od
 .bss           0x00000000        0x0 Nav.od
 .group         0x00000000        0x8 Map.od
 .group         0x00000000        0x8 Map.od
 .group         0x00000000        0x8 Map.od
 .group         0x00000000        0x8 Map.od
 .group         0x00000000        0x8 Map.od
 .group         0x00000000        0x8 Map.od
 .group         0x00000000        0x8 Map.od
 .group         0x00000000        0x8 Map.od
 .group         0x00000000        0x8 Map.od
 .group         0x00000000        0x8 Map.od
 .group         0x00000000        0x8 Map.od
 .group         0x00000000        0x8 Map.od
 .group         0x00000000        0x8 Map.od
 .group         0x00000000        0x8 Map.od
 .group         0x00000000        0x8 Map.od
 .group         0x00000000        0x8 Map.od
 .group         0x00000000        0x8 Map.od
 .group         0x00000000        0x8 Map.od
 .text          0x00000000        0x0 Map.od
 .data          0x00000000        0x0 Map.od
 .bss           0x00000000        0x0 Map.od
 .rodata._ZStL19piecewise_construct
                0x00000000        0x1 Map.od
 .text._ZN3MapC2Ev
                0x00000000       0x2a Map.od
 .text._ZN3MapD2Ev
                0x00000000       0x3e Map.od
 .text._ZN3MapD0Ev
                0x00000000       0x28 Map.od
 .text._ZNSt6vectorIN3Map7FeatureESaIS1_EEC2Ev
                0x00000000       0x1c Map.od
 .text._ZNSt6vectorIN3Map7FeatureESaIS1_EED2Ev
                0x00000000       0x4a Map.od
 .text._ZNSt12_Vector_baseIN3Map7FeatureESaIS1_EE12_Vector_implD2Ev
                0x00000000       0x1a Map.od
 .text._ZNSt12_Vector_baseIN3Map7FeatureESaIS1_EEC2Ev
                0x00000000       0x1c Map.od
 .text._ZNSt12_Vector_baseIN3Map7FeatureESaIS1_EED2Ev
                0x00000000       0x54 Map.od
 .text._ZNSt12_Vector_baseIN3Map7FeatureESaIS1_EE19_M_get_Tp_allocatorEv
                0x00000000        0xc Map.od
 .text._ZSt8_DestroyIPN3Map7FeatureES1_EvT_S3_RSaIT0_E
                0x00000000       0x1e Map.od
 .text._ZNSt12_Vector_baseIN3Map7FeatureESaIS1_EE12_Vector_implC2Ev
                0x00000000       0x30 Map.od
 .text._ZNSaIN3Map7FeatureEED2Ev
                0x00000000       0x1a Map.od
 .text._ZNSt12_Vector_baseIN3Map7FeatureESaIS1_EE13_M_deallocateEPS1_m
                0x00000000       0x2c Map.od
 .text._ZSt8_DestroyIPN3Map7FeatureEEvT_S3_
                0x00000000       0x1e Map.od
 .text._ZNSaIN3Map7FeatureEEC2Ev
                0x00000000       0x1a Map.od
 .text._ZN9__gnu_cxx13new_allocatorIN3Map7FeatureEED2Ev
                0x00000000        0xa Map.od
 .text._ZNSt16allocator_traitsISaIN3Map7FeatureEEE10deallocateERS2_PS1_m
                0x00000000       0x24 Map.od
 .text._ZNSt12_Destroy_auxILb1EE9__destroyIPN3Map7FeatureEEEvT_S5_
                0x00000000        0xa Map.od
 .text._ZN9__gnu_cxx13new_allocatorIN3Map7FeatureEEC2Ev
                0x00000000        0xa Map.od
 .text._ZN9__gnu_cxx13new_allocatorIN3Map7FeatureEE10deallocateEPS2_m
                0x00000000       0x1a Map.od
 .rodata._ZTV3Map
                0x00000000       0x10 Map.od
 .debug_info    0x00000000     0x1ec5 Map.od
 .debug_abbrev  0x00000000      0x4bf Map.od
 .debug_loc     0x00000000      0x280 Map.od
 .debug_aranges
                0x00000000       0xb8 Map.od
 .debug_ranges  0x00000000       0xa8 Map.od
 .debug_line    0x00000000      0x3f4 Map.od
 .debug_str     0x00000000     0x2d6b Map.od
 .comment       0x00000000       0x1d Map.od
 .debug_frame   0x00000000      0x1f8 Map.od
 .group         0x00000000        0x8 Logger.od
 .group         0x00000000        0x8 Logger.od
 .group         0x00000000        0x8 Logger.od
 .group         0x00000000        0x8 Logger.od
 .group         0x00000000        0x8 Logger.od
 .group         0x00000000        0x8 Logger.od
 .group         0x00000000        0x8 Logger.od
 .group         0x00000000        0x8 Logger.od
 .group         0x00000000        0x8 Logger.od
 .group         0x00000000        0x8 Logger.od
 .group         0x00000000        0x8 Logger.od
 .text          0x00000000        0x0 Logger.od
 .data          0x00000000        0x0 Logger.od
 .bss           0x00000000        0x0 Logger.od
 .rodata._ZStL19piecewise_construct
                0x00000000        0x1 Logger.od
 .text._ZL20__gthread_key_deletei
                0x00000000        0xa Logger.od
 .text._ZN6Logger8logWriteEPc
                0x00000000       0x1c Logger.od
 .group         0x00000000        0x8 Drivers\servodrive.od
 .group         0x00000000        0x8 Drivers\servodrive.od
 .text          0x00000000        0x0 Drivers\servodrive.od
 .data          0x00000000        0x0 Drivers\servodrive.od
 .bss           0x00000000        0x0 Drivers\servodrive.od
 .text._ZN5PinIOC2Ei
                0x00000000       0x16 Drivers\servodrive.od
 .text._ZN10PinIOArrayixEi
                0x00000000       0x22 Drivers\servodrive.od
 .bss.IsrCorrections
                0x00000000        0x4 Drivers\servodrive.od
 .text._Z15SetServoHighRawii
                0x00000000       0xac Drivers\servodrive.od
 .text._Z13GetServoCounti
                0x00000000       0x18 Drivers\servodrive.od
 .group         0x00000000        0x8 Drivers\pwm.od
 .group         0x00000000        0x8 Drivers\pwm.od
 .text          0x00000000        0x0 Drivers\pwm.od
 .data          0x00000000        0x0 Drivers\pwm.od
 .bss           0x00000000        0x0 Drivers\pwm.od
 .text._ZN5PinIOC2Ei
                0x00000000       0x16 Drivers\pwm.od
 .text._ZN10PinIOArrayixEi
                0x00000000       0x22 Drivers\pwm.od
 .data.startCnt
                0x00000000        0x4 Drivers\pwm.od
 .data.pwmOn    0x00000000        0x4 Drivers\pwm.od
 .text._Z16CenterAlignedPWMiiiii
                0x00000000      0x28a Drivers\pwm.od
 .group         0x00000000        0x8 Drivers\introspec.od
 .group         0x00000000        0x8 Drivers\introspec.od
 .group         0x00000000        0x8 Drivers\introspec.od
 .group         0x00000000        0x8 Drivers\introspec.od
 .group         0x00000000        0x8 Drivers\introspec.od
 .group         0x00000000        0x8 Drivers\introspec.od
 .text          0x00000000        0x0 Drivers\introspec.od
 .data          0x00000000        0x0 Drivers\introspec.od
 .bss           0x00000000        0x0 Drivers\introspec.od
 .text._Z8LogEventb
                0x00000000       0x98 Drivers\introspec.od
 .text._Z13GetLogPercentv
                0x00000000       0x26 Drivers\introspec.od
 .text._Z9LogEXReadiPci
                0x00000000        0xa Drivers\introspec.od
 .text._Z10LogEXClosei
                0x00000000        0xa Drivers\introspec.od
 .text._Z10LogEXWriteiPKci
                0x00000000       0x6a Drivers\introspec.od
 .text._Z13LogAppRecordsv
                0x00000000       0xe2 Drivers\introspec.od
 .text          0x00000000        0x0 Drivers\dsm2.od
 .data          0x00000000        0x0 Drivers\dsm2.od
 .bss           0x00000000        0x0 Drivers\dsm2.od
 .text          0x00000000        0x0 Drivers\SpinningLidar.od
 .data          0x00000000        0x0 Drivers\SpinningLidar.od
 .bss           0x00000000        0x0 Drivers\SpinningLidar.od
 .group         0x00000000        0x8 Drivers\Odometer.od
 .text          0x00000000        0x0 Drivers\Odometer.od
 .data          0x00000000        0x0 Drivers\Odometer.od
 .bss           0x00000000        0x0 Drivers\Odometer.od
 .text._ZN8Odometer10resetCountEv
                0x00000000       0x10 Drivers\Odometer.od
 .text          0x00000000        0x0 Drivers\MadgwickFilter.od
 .data          0x00000000        0x0 Drivers\MadgwickFilter.od
 .bss           0x00000000        0x0 Drivers\MadgwickFilter.od
 .group         0x00000000        0x8 Drivers\MPU9250.od
 .group         0x00000000        0x8 Drivers\MPU9250.od
 .group         0x00000000        0x8 Drivers\MPU9250.od
 .group         0x00000000        0x8 Drivers\MPU9250.od
 .text          0x00000000        0x0 Drivers\MPU9250.od
 .data          0x00000000        0x0 Drivers\MPU9250.od
 .bss           0x00000000        0x0 Drivers\MPU9250.od
 .text.I2CResetPeripheral
                0x00000000       0x18 Drivers\MPU9250.od
 .text._ZN7MPU925012getMPU9250IDEv
                0x00000000       0x2a Drivers\MPU9250.od
 .text._ZN7MPU925012getAK8963CIDEv
                0x00000000       0x28 Drivers\MPU9250.od
 .text._ZN7MPU925017accelWakeOnMotionEv
                0x00000000      0x148 Drivers\MPU9250.od
 .text._ZN7MPU925012gyromagSleepEv
                0x00000000       0xae Drivers\MPU9250.od
 .text._ZN7MPU925011gyromagWakeEh
                0x00000000       0xb0 Drivers\MPU9250.od
 .text._ZN7MPU925012resetMPU9250Ev
                0x00000000       0x48 Drivers\MPU9250.od
 .text._ZN7MPU925013readAccelDataEPs
                0x00000000       0xba Drivers\MPU9250.od
 .text._ZN7MPU925012readGyroDataEPs
                0x00000000       0xba Drivers\MPU9250.od
 .text._ZN7MPU925015checkNewMagDataEv
                0x00000000       0x36 Drivers\MPU9250.od
 .text._ZN7MPU925021checkNewAccelGyroDataEv
                0x00000000       0x36 Drivers\MPU9250.od
 .text._ZN7MPU925017checkWakeOnMotionEv
                0x00000000       0x36 Drivers\MPU9250.od
 .text._ZN7MPU925016readGyroTempDataEv
                0x00000000       0x42 Drivers\MPU9250.od
 .text          0x00000000        0x0 Drivers\LidarPWM.od
 .data          0x00000000        0x0 Drivers\LidarPWM.od
 .bss           0x00000000        0x0 Drivers\LidarPWM.od
 .bss._ZL16bLIDAR_MODE_LEFT
                0x00000000        0x1 Drivers\LidarPWM.od
 .bss._ZL21LIDAR_LAST_START_LEFT
                0x00000000        0x4 Drivers\LidarPWM.od
 .bss.LIDAR_VALUE_LEFT
                0x00000000        0x4 Drivers\LidarPWM.od
 .text._Z12getLeftLidarv
                0x00000000       0x50 Drivers\LidarPWM.od
 .group         0x00000000        0x8 Drivers\LCD.od
 .text          0x00000000        0x0 Drivers\LCD.od
 .data          0x00000000        0x0 Drivers\LCD.od
 .bss           0x00000000        0x0 Drivers\LCD.od
 .group         0x00000000        0x8 Drivers\IMUSetupAndSample.od
 .group         0x00000000        0x8 Drivers\IMUSetupAndSample.od
 .group         0x00000000        0x8 Drivers\IMUSetupAndSample.od
 .group         0x00000000        0x8 Drivers\IMUSetupAndSample.od
 .group         0x00000000        0x8 Drivers\IMUSetupAndSample.od
 .group         0x00000000        0x8 Drivers\IMUSetupAndSample.od
 .group         0x00000000        0x8 Drivers\IMUSetupAndSample.od
 .text          0x00000000        0x0 Drivers\IMUSetupAndSample.od
 .data          0x00000000        0x0 Drivers\IMUSetupAndSample.od
 .bss           0x00000000        0x0 Drivers\IMUSetupAndSample.od
 .text._ZN6OS_SEMC2El
                0x00000000       0x2c Drivers\IMUSetupAndSample.od
 .text.I2CResetPeripheral
                0x00000000       0x18 Drivers\IMUSetupAndSample.od
 .text._ZN5PinIOC2Ei
                0x00000000       0x16 Drivers\IMUSetupAndSample.od
 .text._ZN5PinIO3hizEv
                0x00000000       0x1a Drivers\IMUSetupAndSample.od
 .text._ZN10PinIOArrayixEi
                0x00000000       0x22 Drivers\IMUSetupAndSample.od
 .data.intPin   0x00000000        0x4 Drivers\IMUSetupAndSample.od
 .bss.newData   0x00000000        0x1 Drivers\IMUSetupAndSample.od
 .bss.newMagData
                0x00000000        0x1 Drivers\IMUSetupAndSample.od
 .bss.accelCount
                0x00000000        0x6 Drivers\IMUSetupAndSample.od
 .bss.gyroCount
                0x00000000        0x6 Drivers\IMUSetupAndSample.od
 .bss.eInt      0x00000000        0xc Drivers\IMUSetupAndSample.od
 .text._Z13getQuaternionv
                0x00000000        0xe Drivers\IMUSetupAndSample.od
 .text          0x00000000        0x0 htmldata.od
 .data          0x00000000        0x0 htmldata.od
 .bss           0x00000000        0x0 htmldata.od
 .rodata._ZL20file_password_groups
                0x00000000        0x8 htmldata.od
 .data          0x00000000        0x0 C:\Nburn/lib/DBNANO54415.a(hardware_init.od)
 .bss           0x00000000        0x0 C:\Nburn/lib/DBNANO54415.a(hardware_init.od)
 .group         0x00000000        0x8 C:\Nburn/lib/DBNANO54415.a(serial.od)
 .group         0x00000000        0x8 C:\Nburn/lib/DBNANO54415.a(serial.od)
 .group         0x00000000        0x8 C:\Nburn/lib/DBNANO54415.a(serial.od)
 .data          0x00000000        0x0 C:\Nburn/lib/DBNANO54415.a(serial.od)
 .data          0x00000000        0x0 C:\Nburn/lib/DBNANO54415.a(pins.od)
 .data          0x00000000        0x0 C:\Nburn/lib/DBNANO54415.a(SimpleAD.od)
 .bss           0x00000000        0x0 C:\Nburn/lib/DBNANO54415.a(SimpleAD.od)
 .group         0x00000000        0x8 C:\Nburn/lib/DBNANO54415.a(FlashOps.od)
 .group         0x00000000        0x8 C:\Nburn/lib/DBNANO54415.a(FlashOps.od)
 .group         0x00000000        0x8 C:\Nburn/lib/DBNANO54415.a(FlashOps.od)
 .group         0x00000000        0x8 C:\Nburn/lib/DBNANO54415.a(FlashOps.od)
 .data          0x00000000        0x0 C:\Nburn/lib/DBNANO54415.a(FlashOps.od)
 .text._ZN7OS_CRITC2Ev
                0x00000000       0x24 C:\Nburn/lib/DBNANO54415.a(FlashOps.od)
 .text._Z11OSCritEnterP7OS_CRITt
                0x00000000       0x22 C:\Nburn/lib/DBNANO54415.a(FlashOps.od)
 .text._Z11OSCritLeaveP7OS_CRIT
                0x00000000       0x14 C:\Nburn/lib/DBNANO54415.a(FlashOps.od)
 .group         0x00000000        0x8 C:\Nburn/lib/DBNANO54415.a(HiResTimer.od)
 .group         0x00000000        0x8 C:\Nburn/lib/DBNANO54415.a(HiResTimer.od)
 .group         0x00000000        0x8 C:\Nburn/lib/DBNANO54415.a(HiResTimer.od)
 .group         0x00000000        0x8 C:\Nburn/lib/DBNANO54415.a(HiResTimer.od)
 .group         0x00000000        0x8 C:\Nburn/lib/DBNANO54415.a(HiResTimer.od)
 .group         0x00000000        0x8 C:\Nburn/lib/DBNANO54415.a(HiResTimer.od)
 .group         0x00000000        0x8 C:\Nburn/lib/DBNANO54415.a(HiResTimer.od)
 .group         0x00000000        0x8 C:\Nburn/lib/DBNANO54415.a(HiResTimer.od)
 .group         0x00000000        0x8 C:\Nburn/lib/DBNANO54415.a(HiResTimer.od)
 .group         0x00000000        0x8 C:\Nburn/lib/DBNANO54415.a(HiResTimer.od)
 .group         0x00000000        0x8 C:\Nburn/lib/DBNANO54415.a(HiResTimer.od)
 .group         0x00000000        0x8 C:\Nburn/lib/DBNANO54415.a(HiResTimer.od)
 .data          0x00000000        0x0 C:\Nburn/lib/DBNANO54415.a(HiResTimer.od)
 .text._ZN6OS_SEMC2El
                0x00000000       0x28 C:\Nburn/lib/DBNANO54415.a(HiResTimer.od)
 .text._ZN10HiResTimer5startEv
                0x00000000       0x24 C:\Nburn/lib/DBNANO54415.a(HiResTimer.od)
 .data          0x00000000        0x0 C:\Nburn/lib/DBNANO54415.a(netwait.od)
 .bss           0x00000000        0x0 C:\Nburn/lib/DBNANO54415.a(netwait.od)
 .group         0x00000000        0x8 C:\Nburn/lib/DBNANO54415.a(pin_irq.od)
 .group         0x00000000        0x8 C:\Nburn/lib/DBNANO54415.a(pin_irq.od)
 .data          0x00000000        0x0 C:\Nburn/lib/DBNANO54415.a(pin_irq.od)
 .text._ZN5PinIOC2Ei
                0x00000000       0x16 C:\Nburn/lib/DBNANO54415.a(pin_irq.od)
 .text._ZN10PinIOArrayixEi
                0x00000000       0x1e C:\Nburn/lib/DBNANO54415.a(pin_irq.od)
 .group         0x00000000        0x8 C:\Nburn/lib/DBNANO54415.a(dbethernet.od)
 .group         0x00000000        0x8 C:\Nburn/lib/DBNANO54415.a(dbethernet.od)
 .group         0x00000000        0x8 C:\Nburn/lib/DBNANO54415.a(dbethernet.od)
 .group         0x00000000        0x8 C:\Nburn/lib/DBNANO54415.a(dbethernet.od)
 .group         0x00000000        0x8 C:\Nburn/lib/DBNANO54415.a(dbethernet.od)
 .group         0x00000000        0x8 C:\Nburn/lib/DBNANO54415.a(dbethernet.od)
 .group         0x00000000        0x8 C:\Nburn/lib/DBNANO54415.a(dbethernet.od)
 .group         0x00000000        0x8 C:\Nburn/lib/DBNANO54415.a(dbethernet.od)
 .group         0x00000000        0x8 C:\Nburn/lib/DBNANO54415.a(dbethernet.od)
 .data          0x00000000        0x0 C:\Nburn/lib/DBNANO54415.a(dbethernet.od)
 .text._Z9OSSemPostP6OS_SEM
                0x00000000       0x14 C:\Nburn/lib/DBNANO54415.a(dbethernet.od)
 .text._ZN7IPADDR4C2Ev
                0x00000000       0x10 C:\Nburn/lib/DBNANO54415.a(dbethernet.od)
 .text._Z11random_seedv
                0x00000000       0x3a C:\Nburn/lib/DBNANO54415.a(dbethernet.od)
 .data          0x00000000        0x0 C:\Nburn/lib/DBNANO54415.a(localio.od)
 .bss           0x00000000        0x0 C:\Nburn/lib/DBNANO54415.a(localio.od)
 .data          0x00000000        0x0 C:\Nburn/lib/DBNANO54415.a(userparam.od)
 .bss           0x00000000        0x0 C:\Nburn/lib/DBNANO54415.a(userparam.od)
 .group         0x00000000        0x8 C:\Nburn/lib/DBNANO54415.a(multichanneli2c.od)
 .group         0x00000000        0x8 C:\Nburn/lib/DBNANO54415.a(multichanneli2c.od)
 .group         0x00000000        0x8 C:\Nburn/lib/DBNANO54415.a(multichanneli2c.od)
 .group         0x00000000        0x8 C:\Nburn/lib/DBNANO54415.a(multichanneli2c.od)
 .group         0x00000000        0x8 C:\Nburn/lib/DBNANO54415.a(multichanneli2c.od)
 .group         0x00000000        0x8 C:\Nburn/lib/DBNANO54415.a(multichanneli2c.od)
 .group         0x00000000        0x8 C:\Nburn/lib/DBNANO54415.a(multichanneli2c.od)
 .group         0x00000000        0x8 C:\Nburn/lib/DBNANO54415.a(multichanneli2c.od)
 .data          0x00000000        0x1 C:\Nburn/lib/DBNANO54415.a(multichanneli2c.od)
 .text._ZN6OS_SEMC2El
                0x00000000       0x28 C:\Nburn/lib/DBNANO54415.a(multichanneli2c.od)
 .text._ZN5PinIOC2Ei
                0x00000000       0x16 C:\Nburn/lib/DBNANO54415.a(multichanneli2c.od)
 .text._ZN10PinIOArrayixEi
                0x00000000       0x1e C:\Nburn/lib/DBNANO54415.a(multichanneli2c.od)
 .data          0x00000000        0x0 C:\Nburn/lib/DBNANO54415.a(bspa.od)
 .bss           0x00000000        0x0 C:\Nburn/lib/DBNANO54415.a(bspa.od)
 .group         0x00000000        0x8 C:\Nburn/lib/DBNANO54415.a(defpins.od)
 .group         0x00000000        0x8 C:\Nburn/lib/DBNANO54415.a(defpins.od)
 .data          0x00000000        0x0 C:\Nburn/lib/DBNANO54415.a(defpins.od)
 .bss           0x00000000        0x0 C:\Nburn/lib/DBNANO54415.a(defpins.od)
 .text._ZN5PinIOC2Ei
                0x00000000       0x16 C:\Nburn/lib/DBNANO54415.a(defpins.od)
 .text._ZN10PinIOArrayixEi
                0x00000000       0x1e C:\Nburn/lib/DBNANO54415.a(defpins.od)
 .group         0x00000000        0x8 C:\Nburn/lib/DBNANO54415.a(ethernet.od)
 .group         0x00000000        0x8 C:\Nburn/lib/DBNANO54415.a(ethernet.od)
 .group         0x00000000        0x8 C:\Nburn/lib/DBNANO54415.a(ethernet.od)
 .group         0x00000000        0x8 C:\Nburn/lib/DBNANO54415.a(ethernet.od)
 .group         0x00000000        0x8 C:\Nburn/lib/DBNANO54415.a(ethernet.od)
 .group         0x00000000        0x8 C:\Nburn/lib/DBNANO54415.a(ethernet.od)
 .group         0x00000000        0x8 C:\Nburn/lib/DBNANO54415.a(ethernet.od)
 .group         0x00000000        0x8 C:\Nburn/lib/DBNANO54415.a(ethernet.od)
 .group         0x00000000        0x8 C:\Nburn/lib/DBNANO54415.a(ethernet.od)
 .group         0x00000000        0x8 C:\Nburn/lib/DBNANO54415.a(ethernet.od)
 .group         0x00000000        0x8 C:\Nburn/lib/DBNANO54415.a(ethernet.od)
 .group         0x00000000        0x8 C:\Nburn/lib/DBNANO54415.a(ethernet.od)
 .group         0x00000000        0x8 C:\Nburn/lib/DBNANO54415.a(ethernet.od)
 .text._ZN6OS_SEMC2El
                0x00000000       0x28 C:\Nburn/lib/DBNANO54415.a(ethernet.od)
 .text._Z9OSSemInitP6OS_SEMl
                0x00000000       0x22 C:\Nburn/lib/DBNANO54415.a(ethernet.od)
 .text._Z9OSSemPostP6OS_SEM
                0x00000000       0x14 C:\Nburn/lib/DBNANO54415.a(ethernet.od)
 .text._Z9OSSemPendP6OS_SEMt
                0x00000000       0x22 C:\Nburn/lib/DBNANO54415.a(ethernet.od)
 .text._Z10OSFifoPostP7OS_FIFOP10os_fifo_el
                0x00000000       0x18 C:\Nburn/lib/DBNANO54415.a(ethernet.od)
 .text._ZN7IPADDR4aSERKS_
                0x00000000       0x18 C:\Nburn/lib/DBNANO54415.a(ethernet.od)
 .text._ZN7IPADDR4C2Ev
                0x00000000       0x10 C:\Nburn/lib/DBNANO54415.a(ethernet.od)
 .text._Z11random_seedv
                0x00000000       0x2e C:\Nburn/lib/DBNANO54415.a(ethernet.od)
 .data          0x00000000        0x0 C:\Nburn/lib/DBNANO54415.a(etherprint.od)
 .data          0x00000000        0x0 C:\Nburn/lib/DBNANO54415.a(SPIFlash.od)
 .bss           0x00000000        0x0 C:\Nburn/lib/DBNANO54415.a(SPIFlash.od)
 .data          0x00000000        0x0 C:\Nburn/lib/DBNANO54415.a(ethernetauxdb.od)
 .bss           0x00000000        0x0 C:\Nburn/lib/DBNANO54415.a(ethernetauxdb.od)
 .group         0x00000000        0x8 C:\Nburn/lib/DBNANO54415.a(ether2nd.od)
 .group         0x00000000        0x8 C:\Nburn/lib/DBNANO54415.a(ether2nd.od)
 .group         0x00000000        0x8 C:\Nburn/lib/DBNANO54415.a(ether2nd.od)
 .group         0x00000000        0x8 C:\Nburn/lib/DBNANO54415.a(ether2nd.od)
 .data          0x00000000        0x0 C:\Nburn/lib/DBNANO54415.a(ether2nd.od)
 .text._ZN7IPADDR4aSERKS_
                0x00000000       0x18 C:\Nburn/lib/DBNANO54415.a(ether2nd.od)
 .text._ZN7IPADDR4aSEm
                0x00000000       0x14 C:\Nburn/lib/DBNANO54415.a(ether2nd.od)
 .text._ZN7IPADDR4C2Ev
                0x00000000       0x10 C:\Nburn/lib/DBNANO54415.a(ether2nd.od)
 .text._ZN15_InterfaceBlockC2Ev
                0x00000000       0x6a C:\Nburn/lib/DBNANO54415.a(ether2nd.od)
 .group         0x00000000        0x8 C:\Nburn/lib/DBNANO54415.a(etherswitch.od)
 .data          0x00000000        0x0 C:\Nburn/lib/DBNANO54415.a(etherswitch.od)
 .text._Z11random_seedv
                0x00000000       0x2e C:\Nburn/lib/DBNANO54415.a(etherswitch.od)
 .text          0x00000000        0x0 C:\Nburn/lib/DBNANO54415.a(weak_autoenet_var.od)
 .data          0x00000000        0x0 C:\Nburn/lib/DBNANO54415.a(weak_autoenet_var.od)
 .bss           0x00000000        0x0 C:\Nburn/lib/DBNANO54415.a(weak_autoenet_var.od)
 .group         0x00000000        0x8 C:\Nburn/lib/DBNANO54415.a(i2c_class.od)
 .group         0x00000000        0x8 C:\Nburn/lib/DBNANO54415.a(i2c_class.od)
 .group         0x00000000        0x8 C:\Nburn/lib/DBNANO54415.a(i2c_class.od)
 .group         0x00000000        0x8 C:\Nburn/lib/DBNANO54415.a(i2c_class.od)
 .group         0x00000000        0x8 C:\Nburn/lib/DBNANO54415.a(i2c_class.od)
 .group         0x00000000        0x8 C:\Nburn/lib/DBNANO54415.a(i2c_class.od)
 .group         0x00000000        0x8 C:\Nburn/lib/DBNANO54415.a(i2c_class.od)
 .group         0x00000000        0x8 C:\Nburn/lib/DBNANO54415.a(i2c_class.od)
 .group         0x00000000        0x8 C:\Nburn/lib/DBNANO54415.a(i2c_class.od)
 .group         0x00000000        0x8 C:\Nburn/lib/DBNANO54415.a(i2c_class.od)
 .group         0x00000000        0x8 C:\Nburn/lib/DBNANO54415.a(i2c_class.od)
 .group         0x00000000        0x8 C:\Nburn/lib/DBNANO54415.a(i2c_class.od)
 .group         0x00000000        0x8 C:\Nburn/lib/DBNANO54415.a(i2c_class.od)
 .group         0x00000000        0x8 C:\Nburn/lib/DBNANO54415.a(i2c_class.od)
 .group         0x00000000        0x8 C:\Nburn/lib/DBNANO54415.a(i2c_class.od)
 .group         0x00000000        0x8 C:\Nburn/lib/DBNANO54415.a(i2c_class.od)
 .group         0x00000000        0x8 C:\Nburn/lib/DBNANO54415.a(i2c_class.od)
 .group         0x00000000        0x8 C:\Nburn/lib/DBNANO54415.a(i2c_class.od)
 .group         0x00000000        0x8 C:\Nburn/lib/DBNANO54415.a(i2c_class.od)
 .group         0x00000000        0x8 C:\Nburn/lib/DBNANO54415.a(i2c_class.od)
 .group         0x00000000        0x8 C:\Nburn/lib/DBNANO54415.a(i2c_class.od)
 .group         0x00000000        0x8 C:\Nburn/lib/DBNANO54415.a(i2c_class.od)
 .group         0x00000000        0x8 C:\Nburn/lib/DBNANO54415.a(i2c_class.od)
 .group         0x00000000        0x8 C:\Nburn/lib/DBNANO54415.a(i2c_class.od)
 .group         0x00000000        0x8 C:\Nburn/lib/DBNANO54415.a(i2c_class.od)
 .group         0x00000000        0x8 C:\Nburn/lib/DBNANO54415.a(i2c_class.od)
 .group         0x00000000        0x8 C:\Nburn/lib/DBNANO54415.a(i2c_class.od)
 .group         0x00000000        0x8 C:\Nburn/lib/DBNANO54415.a(i2c_class.od)
 .group         0x00000000        0x8 C:\Nburn/lib/DBNANO54415.a(i2c_class.od)
 .data          0x00000000        0x0 C:\Nburn/lib/DBNANO54415.a(i2c_class.od)
 .text._ZN6OS_SEMC2El
                0x00000000       0x28 C:\Nburn/lib/DBNANO54415.a(i2c_class.od)
 .text._Z9OSSemInitP6OS_SEMl
                0x00000000       0x22 C:\Nburn/lib/DBNANO54415.a(i2c_class.od)
 .text._Z9OSSemPostP6OS_SEM
                0x00000000       0x14 C:\Nburn/lib/DBNANO54415.a(i2c_class.od)
 .text._Z9OSSemPendP6OS_SEMt
                0x00000000       0x22 C:\Nburn/lib/DBNANO54415.a(i2c_class.od)
 .text._ZN10i2c_master5setTXEv
                0x00000000       0x24 C:\Nburn/lib/DBNANO54415.a(i2c_class.od)
 .text._ZN10i2c_master8readDataEv
                0x00000000       0x12 C:\Nburn/lib/DBNANO54415.a(i2c_class.od)
 .text._ZN16I2C_Slave_RecordC2Ev
                0x00000000       0x1a C:\Nburn/lib/DBNANO54415.a(i2c_class.od)
 .data          0x00000000        0x0 C:\Nburn/lib/DBNetBurner.a(ucosmcfa.od)
 .bss           0x00000000        0x0 C:\Nburn/lib/DBNetBurner.a(ucosmcfa.od)
 .data          0x00000000        0x0 C:\Nburn/lib/DBNetBurner.a(software_init.od)
 .bss           0x00000000        0x0 C:\Nburn/lib/DBNetBurner.a(software_init.od)
 .data          0x00000000        0x0 C:\Nburn/lib/DBNetBurner.a(main.od)
 .bss           0x00000000        0x0 C:\Nburn/lib/DBNetBurner.a(main.od)
 .data          0x00000000        0x0 C:\Nburn/lib/DBNetBurner.a(ucosmcfc.od)
 .bss           0x00000000        0x0 C:\Nburn/lib/DBNetBurner.a(ucosmcfc.od)
 .group         0x00000000        0x8 C:\Nburn/lib/DBNetBurner.a(ucos.od)
 .group         0x00000000        0x8 C:\Nburn/lib/DBNetBurner.a(ucos.od)
 .group         0x00000000        0x8 C:\Nburn/lib/DBNetBurner.a(ucos.od)
 .group         0x00000000        0x8 C:\Nburn/lib/DBNetBurner.a(ucos.od)
 .data          0x00000000        0x0 C:\Nburn/lib/DBNetBurner.a(ucos.od)
 .data          0x00000000        0x0 C:\Nburn/lib/DBNetBurner.a(cppmain.od)
 .data          0x00000000        0x0 C:\Nburn/lib/DBNetBurner.a(debugtrap.od)
 .group         0x00000000        0x8 C:\Nburn/lib/DBNetBurner.a(ucosmain.od)
 .group         0x00000000        0x8 C:\Nburn/lib/DBNetBurner.a(ucosmain.od)
 .group         0x00000000        0x8 C:\Nburn/lib/DBNetBurner.a(ucosmain.od)
 .group         0x00000000        0x8 C:\Nburn/lib/DBNetBurner.a(ucosmain.od)
 .text._ZN7OS_CRITC2Ev
                0x00000000       0x24 C:\Nburn/lib/DBNetBurner.a(ucosmain.od)
 .text._Z10OSCritInitP7OS_CRIT
                0x00000000       0x14 C:\Nburn/lib/DBNetBurner.a(ucosmain.od)
 .text._Z11OSCritEnterP7OS_CRITt
                0x00000000       0x24 C:\Nburn/lib/DBNetBurner.a(ucosmain.od)
 .text._Z11OSCritLeaveP7OS_CRIT
                0x00000000       0x14 C:\Nburn/lib/DBNetBurner.a(ucosmain.od)
 .data          0x00000000        0x0 C:\Nburn/lib/DBNetBurner.a(fileio.od)
 .group         0x00000000        0x8 C:\Nburn/lib/DBNetBurner.a(system.od)
 .group         0x00000000        0x8 C:\Nburn/lib/DBNetBurner.a(system.od)
 .group         0x00000000        0x8 C:\Nburn/lib/DBNetBurner.a(system.od)
 .group         0x00000000        0x8 C:\Nburn/lib/DBNetBurner.a(system.od)
 .group         0x00000000        0x8 C:\Nburn/lib/DBNetBurner.a(system.od)
 .data          0x00000000        0x0 C:\Nburn/lib/DBNetBurner.a(system.od)
 .text._ZN7IPADDR4aSERKS_
                0x00000000       0x18 C:\Nburn/lib/DBNetBurner.a(system.od)
 .text._ZN7IPADDR4C2Ev
                0x00000000       0x10 C:\Nburn/lib/DBNetBurner.a(system.od)
 .group         0x00000000        0x8 C:\Nburn/lib/DBNetBurner.a(utils.od)
 .group         0x00000000        0x8 C:\Nburn/lib/DBNetBurner.a(utils.od)
 .group         0x00000000        0x8 C:\Nburn/lib/DBNetBurner.a(utils.od)
 .group         0x00000000        0x8 C:\Nburn/lib/DBNetBurner.a(utils.od)
 .data          0x00000000        0x0 C:\Nburn/lib/DBNetBurner.a(utils.od)
 .text._ZN7IPADDR4aSERKS_
                0x00000000       0x18 C:\Nburn/lib/DBNetBurner.a(utils.od)
 .text._ZN7IPADDR4aSEm
                0x00000000       0x14 C:\Nburn/lib/DBNetBurner.a(utils.od)
 .text._ZN7IPADDR4C2Ev
                0x00000000       0x10 C:\Nburn/lib/DBNetBurner.a(utils.od)
 .text._ZN7IPADDR4C2ERKS_
                0x00000000       0x16 C:\Nburn/lib/DBNetBurner.a(utils.od)
 .group         0x00000000        0x8 C:\Nburn/lib/DBNetBurner.a(ip.od)
 .group         0x00000000        0x8 C:\Nburn/lib/DBNetBurner.a(ip.od)
 .group         0x00000000        0x8 C:\Nburn/lib/DBNetBurner.a(ip.od)
 .group         0x00000000        0x8 C:\Nburn/lib/DBNetBurner.a(ip.od)
 .group         0x00000000        0x8 C:\Nburn/lib/DBNetBurner.a(ip.od)
 .group         0x00000000        0x8 C:\Nburn/lib/DBNetBurner.a(ip.od)
 .group         0x00000000        0x8 C:\Nburn/lib/DBNetBurner.a(ip.od)
 .group         0x00000000        0x8 C:\Nburn/lib/DBNetBurner.a(ip.od)
 .group         0x00000000        0x8 C:\Nburn/lib/DBNetBurner.a(ip.od)
 .group         0x00000000        0x8 C:\Nburn/lib/DBNetBurner.a(ip.od)
 .group         0x00000000        0x8 C:\Nburn/lib/DBNetBurner.a(ip.od)
 .group         0x00000000        0x8 C:\Nburn/lib/DBNetBurner.a(ip.od)
 .group         0x00000000        0x8 C:\Nburn/lib/DBNetBurner.a(ip.od)
 .group         0x00000000        0x8 C:\Nburn/lib/DBNetBurner.a(ip.od)
 .group         0x00000000        0x8 C:\Nburn/lib/DBNetBurner.a(ip.od)
 .group         0x00000000        0x8 C:\Nburn/lib/DBNetBurner.a(ip.od)
 .group         0x00000000        0x8 C:\Nburn/lib/DBNetBurner.a(ip.od)
 .group         0x00000000        0x8 C:\Nburn/lib/DBNetBurner.a(ip.od)
 .group         0x00000000        0x8 C:\Nburn/lib/DBNetBurner.a(ip.od)
 .group         0x00000000        0x8 C:\Nburn/lib/DBNetBurner.a(ip.od)
 .group         0x00000000        0x8 C:\Nburn/lib/DBNetBurner.a(ip.od)
 .group         0x00000000        0x8 C:\Nburn/lib/DBNetBurner.a(ip.od)
 .group         0x00000000        0x8 C:\Nburn/lib/DBNetBurner.a(ip.od)
 .group         0x00000000        0x8 C:\Nburn/lib/DBNetBurner.a(ip.od)
 .group         0x00000000        0x8 C:\Nburn/lib/DBNetBurner.a(ip.od)
 .group         0x00000000        0x8 C:\Nburn/lib/DBNetBurner.a(ip.od)
 .data          0x00000000        0x0 C:\Nburn/lib/DBNetBurner.a(ip.od)
 .text._ZN7OS_FIFOC2Ev
                0x00000000       0x24 C:\Nburn/lib/DBNetBurner.a(ip.od)
 .text._Z10OSFifoInitP7OS_FIFO
                0x00000000       0x1e C:\Nburn/lib/DBNetBurner.a(ip.od)
 .text._Z10OSFifoPostP7OS_FIFOP10os_fifo_el
                0x00000000       0x18 C:\Nburn/lib/DBNetBurner.a(ip.od)
 .text._Z10OSFifoPendP7OS_FIFOt
                0x00000000       0x30 C:\Nburn/lib/DBNetBurner.a(ip.od)
 .text._ZN7IPADDR4aSERKS_
                0x00000000       0x18 C:\Nburn/lib/DBNetBurner.a(ip.od)
 .text._ZN7IPADDR4aSEm
                0x00000000       0x14 C:\Nburn/lib/DBNetBurner.a(ip.od)
 .text._ZNK7IPADDR4cvmEv
                0x00000000        0xe C:\Nburn/lib/DBNetBurner.a(ip.od)
 .text._ZNK7IPADDR46IsNullEv
                0x00000000       0x16 C:\Nburn/lib/DBNetBurner.a(ip.od)
 .text._ZNK7IPADDR417IsGlobalBroadCastEv
                0x00000000       0x18 C:\Nburn/lib/DBNetBurner.a(ip.od)
 .text._ZN7IPADDR4C2Ev
                0x00000000       0x10 C:\Nburn/lib/DBNetBurner.a(ip.od)
 .text._ZN7IPADDR4C2ERKS_
                0x00000000       0x16 C:\Nburn/lib/DBNetBurner.a(ip.od)
 .text._ZN15_InterfaceBlockC2Ev
                0x00000000       0x6a C:\Nburn/lib/DBNetBurner.a(ip.od)
 .group         0x00000000        0x8 C:\Nburn/lib/DBNetBurner.a(buffers.od)
 .group         0x00000000        0x8 C:\Nburn/lib/DBNetBurner.a(buffers.od)
 .group         0x00000000        0x8 C:\Nburn/lib/DBNetBurner.a(buffers.od)
 .group         0x00000000        0x8 C:\Nburn/lib/DBNetBurner.a(buffers.od)
 .group         0x00000000        0x8 C:\Nburn/lib/DBNetBurner.a(buffers.od)
 .group         0x00000000        0x8 C:\Nburn/lib/DBNetBurner.a(buffers.od)
 .group         0x00000000        0x8 C:\Nburn/lib/DBNetBurner.a(buffers.od)
 .group         0x00000000        0x8 C:\Nburn/lib/DBNetBurner.a(buffers.od)
 .group         0x00000000        0x8 C:\Nburn/lib/DBNetBurner.a(buffers.od)
 .group         0x00000000        0x8 C:\Nburn/lib/DBNetBurner.a(buffers.od)
 .data          0x00000000        0x0 C:\Nburn/lib/DBNetBurner.a(buffers.od)
 .text._ZN7OS_CRITC2Ev
                0x00000000       0x24 C:\Nburn/lib/DBNetBurner.a(buffers.od)
 .text._Z10OSCritInitP7OS_CRIT
                0x00000000       0x14 C:\Nburn/lib/DBNetBurner.a(buffers.od)
 .text._Z11OSCritEnterP7OS_CRITt
                0x00000000       0x24 C:\Nburn/lib/DBNetBurner.a(buffers.od)
 .text._Z11OSCritLeaveP7OS_CRIT
                0x00000000       0x14 C:\Nburn/lib/DBNetBurner.a(buffers.od)
 .text._ZN11buffer_listC2Ev
                0x00000000       0x22 C:\Nburn/lib/DBNetBurner.a(buffers.od)
 .text._ZN11buffer_list8GetCountEv
                0x00000000       0x10 C:\Nburn/lib/DBNetBurner.a(buffers.od)
 .group         0x00000000        0x8 C:\Nburn/lib/DBNetBurner.a(arp.od)
 .group         0x00000000        0x8 C:\Nburn/lib/DBNetBurner.a(arp.od)
 .group         0x00000000        0x8 C:\Nburn/lib/DBNetBurner.a(arp.od)
 .group         0x00000000        0x8 C:\Nburn/lib/DBNetBurner.a(arp.od)
 .group         0x00000000        0x8 C:\Nburn/lib/DBNetBurner.a(arp.od)
 .group         0x00000000        0x8 C:\Nburn/lib/DBNetBurner.a(arp.od)
 .group         0x00000000        0x8 C:\Nburn/lib/DBNetBurner.a(arp.od)
 .group         0x00000000        0x8 C:\Nburn/lib/DBNetBurner.a(arp.od)
 .group         0x00000000        0x8 C:\Nburn/lib/DBNetBurner.a(arp.od)
 .group         0x00000000        0x8 C:\Nburn/lib/DBNetBurner.a(arp.od)
 .group         0x00000000        0x8 C:\Nburn/lib/DBNetBurner.a(arp.od)
 .group         0x00000000        0x8 C:\Nburn/lib/DBNetBurner.a(arp.od)
 .group         0x00000000        0x8 C:\Nburn/lib/DBNetBurner.a(arp.od)
 .group         0x00000000        0x8 C:\Nburn/lib/DBNetBurner.a(arp.od)
 .group         0x00000000        0x8 C:\Nburn/lib/DBNetBurner.a(arp.od)
 .group         0x00000000        0x8 C:\Nburn/lib/DBNetBurner.a(arp.od)
 .group         0x00000000        0x8 C:\Nburn/lib/DBNetBurner.a(arp.od)
 .group         0x00000000        0x8 C:\Nburn/lib/DBNetBurner.a(arp.od)
 .group         0x00000000        0x8 C:\Nburn/lib/DBNetBurner.a(arp.od)
 .group         0x00000000        0x8 C:\Nburn/lib/DBNetBurner.a(arp.od)
 .group         0x00000000        0x8 C:\Nburn/lib/DBNetBurner.a(arp.od)
 .group         0x00000000        0x8 C:\Nburn/lib/DBNetBurner.a(arp.od)
 .group         0x00000000        0x8 C:\Nburn/lib/DBNetBurner.a(arp.od)
 .group         0x00000000        0x8 C:\Nburn/lib/DBNetBurner.a(arp.od)
 .group         0x00000000        0x8 C:\Nburn/lib/DBNetBurner.a(arp.od)
 .group         0x00000000        0x8 C:\Nburn/lib/DBNetBurner.a(arp.od)
 .group         0x00000000        0x8 C:\Nburn/lib/DBNetBurner.a(arp.od)
 .group         0x00000000        0x8 C:\Nburn/lib/DBNetBurner.a(arp.od)
 .group         0x00000000        0x8 C:\Nburn/lib/DBNetBurner.a(arp.od)
 .group         0x00000000        0x8 C:\Nburn/lib/DBNetBurner.a(arp.od)
 .data          0x00000000        0x0 C:\Nburn/lib/DBNetBurner.a(arp.od)
 .text._ZN6OS_SEMC2El
                0x00000000       0x28 C:\Nburn/lib/DBNetBurner.a(arp.od)
 .text._ZN7OS_CRITC2Ev
                0x00000000       0x24 C:\Nburn/lib/DBNetBurner.a(arp.od)
 .text._Z9OSSemInitP6OS_SEMl
                0x00000000       0x22 C:\Nburn/lib/DBNetBurner.a(arp.od)
 .text._Z9OSSemPostP6OS_SEM
                0x00000000       0x14 C:\Nburn/lib/DBNetBurner.a(arp.od)
 .text._Z9OSSemPendP6OS_SEMt
                0x00000000       0x24 C:\Nburn/lib/DBNetBurner.a(arp.od)
 .text._Z10OSCritInitP7OS_CRIT
                0x00000000       0x14 C:\Nburn/lib/DBNetBurner.a(arp.od)
 .text._Z11OSCritEnterP7OS_CRITt
                0x00000000       0x24 C:\Nburn/lib/DBNetBurner.a(arp.od)
 .text._Z11OSCritLeaveP7OS_CRIT
                0x00000000       0x14 C:\Nburn/lib/DBNetBurner.a(arp.od)
 .text._ZN20OSCriticalSectionObjC2ER7OS_CRIT
                0x00000000       0x20 C:\Nburn/lib/DBNetBurner.a(arp.od)
 .text._ZN20OSCriticalSectionObjD2Ev
                0x00000000       0x1a C:\Nburn/lib/DBNetBurner.a(arp.od)
 .text._ZN7IPADDR4aSERKS_
                0x00000000       0x18 C:\Nburn/lib/DBNetBurner.a(arp.od)
 .text._ZNK7IPADDR4cvmEv
                0x00000000        0xe C:\Nburn/lib/DBNetBurner.a(arp.od)
 .text._ZNK7IPADDR46IsNullEv
                0x00000000       0x16 C:\Nburn/lib/DBNetBurner.a(arp.od)
 .text._ZNK7IPADDR411IsMultiCastEv
                0x00000000       0x20 C:\Nburn/lib/DBNetBurner.a(arp.od)
 .text._ZNK7IPADDR417IsGlobalBroadCastEv
                0x00000000       0x18 C:\Nburn/lib/DBNetBurner.a(arp.od)
 .text._ZN7IPADDR4C2Ev
                0x00000000       0x10 C:\Nburn/lib/DBNetBurner.a(arp.od)
 .text._ZN7IPADDR4C2ERKS_
                0x00000000       0x16 C:\Nburn/lib/DBNetBurner.a(arp.od)
 .text._ZN7IPADDR46NullIPEv
                0x00000000       0x22 C:\Nburn/lib/DBNetBurner.a(arp.od)
 .text._Zeq7IPADDR4S_
                0x00000000       0x1c C:\Nburn/lib/DBNetBurner.a(arp.od)
 .text._Zne7IPADDR4S_
                0x00000000       0x1c C:\Nburn/lib/DBNetBurner.a(arp.od)
 .group         0x00000000        0x8 C:\Nburn/lib/DBNetBurner.a(udp.od)
 .group         0x00000000        0x8 C:\Nburn/lib/DBNetBurner.a(udp.od)
 .group         0x00000000        0x8 C:\Nburn/lib/DBNetBurner.a(udp.od)
 .group         0x00000000        0x8 C:\Nburn/lib/DBNetBurner.a(udp.od)
 .group         0x00000000        0x8 C:\Nburn/lib/DBNetBurner.a(udp.od)
 .group         0x00000000        0x8 C:\Nburn/lib/DBNetBurner.a(udp.od)
 .group         0x00000000        0x8 C:\Nburn/lib/DBNetBurner.a(udp.od)
 .group         0x00000000        0x8 C:\Nburn/lib/DBNetBurner.a(udp.od)
 .group         0x00000000        0x8 C:\Nburn/lib/DBNetBurner.a(udp.od)
 .group         0x00000000        0x8 C:\Nburn/lib/DBNetBurner.a(udp.od)
 .group         0x00000000        0x8 C:\Nburn/lib/DBNetBurner.a(udp.od)
 .group         0x00000000        0x8 C:\Nburn/lib/DBNetBurner.a(udp.od)
 .group         0x00000000        0x8 C:\Nburn/lib/DBNetBurner.a(udp.od)
 .group         0x00000000        0x8 C:\Nburn/lib/DBNetBurner.a(udp.od)
 .group         0x00000000        0x8 C:\Nburn/lib/DBNetBurner.a(udp.od)
 .group         0x00000000        0x8 C:\Nburn/lib/DBNetBurner.a(udp.od)
 .group         0x00000000        0x8 C:\Nburn/lib/DBNetBurner.a(udp.od)
 .group         0x00000000        0x8 C:\Nburn/lib/DBNetBurner.a(udp.od)
 .group         0x00000000        0x8 C:\Nburn/lib/DBNetBurner.a(udp.od)
 .group         0x00000000        0x8 C:\Nburn/lib/DBNetBurner.a(udp.od)
 .group         0x00000000        0x8 C:\Nburn/lib/DBNetBurner.a(udp.od)
 .group         0x00000000        0x8 C:\Nburn/lib/DBNetBurner.a(udp.od)
 .data          0x00000000        0x0 C:\Nburn/lib/DBNetBurner.a(udp.od)
 .text._Z10OSFifoPostP7OS_FIFOP10os_fifo_el
                0x00000000       0x18 C:\Nburn/lib/DBNetBurner.a(udp.od)
 .text._Z10OSFifoPendP7OS_FIFOt
                0x00000000       0x30 C:\Nburn/lib/DBNetBurner.a(udp.od)
 .text._Z16OSFifoPendNoWaitP7OS_FIFO
                0x00000000       0x1e C:\Nburn/lib/DBNetBurner.a(udp.od)
 .text._Z14OSPoolFifoPostP7OS_FIFOP11pool_buffer
                0x00000000       0x18 C:\Nburn/lib/DBNetBurner.a(udp.od)
 .text._Z14OSPoolFifoPendP7OS_FIFOt
                0x00000000       0x24 C:\Nburn/lib/DBNetBurner.a(udp.od)
 .text._Z20OSPoolFifoPendNoWaitP7OS_FIFO
                0x00000000       0x14 C:\Nburn/lib/DBNetBurner.a(udp.od)
 .text._ZN7IPADDR4aSERKS_
                0x00000000       0x18 C:\Nburn/lib/DBNetBurner.a(udp.od)
 .text._ZNK7IPADDR4cvmEv
                0x00000000        0xe C:\Nburn/lib/DBNetBurner.a(udp.od)
 .text._ZNK7IPADDR46IsNullEv
                0x00000000       0x16 C:\Nburn/lib/DBNetBurner.a(udp.od)
 .text._ZN7IPADDR4C2Ev
                0x00000000       0x10 C:\Nburn/lib/DBNetBurner.a(udp.od)
 .text._ZN7IPADDR4C2ERKS_
                0x00000000       0x16 C:\Nburn/lib/DBNetBurner.a(udp.od)
 .text._ZN7IPADDR46NullIPEv
                0x00000000       0x22 C:\Nburn/lib/DBNetBurner.a(udp.od)
 .text._Z8GetIpPktP11pool_buffer
                0x00000000       0x22 C:\Nburn/lib/DBNetBurner.a(udp.od)
 .text._ZN12PsudeoHeaderC2Ev
                0x00000000       0x2a C:\Nburn/lib/DBNetBurner.a(udp.od)
 .text._ZN12ConfigRecordC2Ev
                0x00000000       0x66 C:\Nburn/lib/DBNetBurner.a(udp.od)
 .group         0x00000000        0x8 C:\Nburn/lib/DBNetBurner.a(ftpd.od)
 .group         0x00000000        0x8 C:\Nburn/lib/DBNetBurner.a(ftpd.od)
 .group         0x00000000        0x8 C:\Nburn/lib/DBNetBurner.a(ftpd.od)
 .group         0x00000000        0x8 C:\Nburn/lib/DBNetBurner.a(ftpd.od)
 .group         0x00000000        0x8 C:\Nburn/lib/DBNetBurner.a(ftpd.od)
 .group         0x00000000        0x8 C:\Nburn/lib/DBNetBurner.a(ftpd.od)
 .group         0x00000000        0x8 C:\Nburn/lib/DBNetBurner.a(ftpd.od)
 .group         0x00000000        0x8 C:\Nburn/lib/DBNetBurner.a(ftpd.od)
 .group         0x00000000        0x8 C:\Nburn/lib/DBNetBurner.a(ftpd.od)
 .data          0x00000000        0x0 C:\Nburn/lib/DBNetBurner.a(ftpd.od)
 .text._ZN7IPADDR4aSERKS_
                0x00000000       0x18 C:\Nburn/lib/DBNetBurner.a(ftpd.od)
 .text._ZN7IPADDR4aSEm
                0x00000000       0x14 C:\Nburn/lib/DBNetBurner.a(ftpd.od)
 .text._ZNK7IPADDR4cvmEv
                0x00000000        0xe C:\Nburn/lib/DBNetBurner.a(ftpd.od)
 .text._ZN7IPADDR4C2Ev
                0x00000000       0x10 C:\Nburn/lib/DBNetBurner.a(ftpd.od)
 .text._ZN7IPADDR4C2ERKS_
                0x00000000       0x16 C:\Nburn/lib/DBNetBurner.a(ftpd.od)
 .text._ZN7IPADDR46NullIPEv
                0x00000000       0x22 C:\Nburn/lib/DBNetBurner.a(ftpd.od)
 .text._ZN7OS_CRITC2Ev
                0x00000000       0x24 C:\Nburn/lib/DBNetBurner.a(ftpd.od)
 .text._Z10OSCritInitP7OS_CRIT
                0x00000000       0x14 C:\Nburn/lib/DBNetBurner.a(ftpd.od)
 .group         0x00000000        0x8 C:\Nburn/lib/DBNetBurner.a(tcp.od)
 .group         0x00000000        0x8 C:\Nburn/lib/DBNetBurner.a(tcp.od)
 .group         0x00000000        0x8 C:\Nburn/lib/DBNetBurner.a(tcp.od)
 .group         0x00000000        0x8 C:\Nburn/lib/DBNetBurner.a(tcp.od)
 .group         0x00000000        0x8 C:\Nburn/lib/DBNetBurner.a(tcp.od)
 .group         0x00000000        0x8 C:\Nburn/lib/DBNetBurner.a(tcp.od)
 .group         0x00000000        0x8 C:\Nburn/lib/DBNetBurner.a(tcp.od)
 .group         0x00000000        0x8 C:\Nburn/lib/DBNetBurner.a(tcp.od)
 .group         0x00000000        0x8 C:\Nburn/lib/DBNetBurner.a(tcp.od)
 .group         0x00000000        0x8 C:\Nburn/lib/DBNetBurner.a(tcp.od)
 .group         0x00000000        0x8 C:\Nburn/lib/DBNetBurner.a(tcp.od)
 .group         0x00000000        0x8 C:\Nburn/lib/DBNetBurner.a(tcp.od)
 .group         0x00000000        0x8 C:\Nburn/lib/DBNetBurner.a(tcp.od)
 .group         0x00000000        0x8 C:\Nburn/lib/DBNetBurner.a(tcp.od)
 .group         0x00000000        0x8 C:\Nburn/lib/DBNetBurner.a(tcp.od)
 .group         0x00000000        0x8 C:\Nburn/lib/DBNetBurner.a(tcp.od)
 .group         0x00000000        0x8 C:\Nburn/lib/DBNetBurner.a(tcp.od)
 .group         0x00000000        0x8 C:\Nburn/lib/DBNetBurner.a(tcp.od)
 .group         0x00000000        0x8 C:\Nburn/lib/DBNetBurner.a(tcp.od)
 .group         0x00000000        0x8 C:\Nburn/lib/DBNetBurner.a(tcp.od)
 .group         0x00000000        0x8 C:\Nburn/lib/DBNetBurner.a(tcp.od)
 .group         0x00000000        0x8 C:\Nburn/lib/DBNetBurner.a(tcp.od)
 .group         0x00000000        0x8 C:\Nburn/lib/DBNetBurner.a(tcp.od)
 .group         0x00000000        0x8 C:\Nburn/lib/DBNetBurner.a(tcp.od)
 .group         0x00000000        0x8 C:\Nburn/lib/DBNetBurner.a(tcp.od)
 .group         0x00000000        0x8 C:\Nburn/lib/DBNetBurner.a(tcp.od)
 .group         0x00000000        0x8 C:\Nburn/lib/DBNetBurner.a(tcp.od)
 .group         0x00000000        0x8 C:\Nburn/lib/DBNetBurner.a(tcp.od)
 .group         0x00000000        0x8 C:\Nburn/lib/DBNetBurner.a(tcp.od)
 .group         0x00000000        0x8 C:\Nburn/lib/DBNetBurner.a(tcp.od)
 .group         0x00000000        0x8 C:\Nburn/lib/DBNetBurner.a(tcp.od)
 .group         0x00000000        0x8 C:\Nburn/lib/DBNetBurner.a(tcp.od)
 .group         0x00000000        0x8 C:\Nburn/lib/DBNetBurner.a(tcp.od)
 .group         0x00000000        0x8 C:\Nburn/lib/DBNetBurner.a(tcp.od)
 .group         0x00000000        0x8 C:\Nburn/lib/DBNetBurner.a(tcp.od)
 .group         0x00000000        0x8 C:\Nburn/lib/DBNetBurner.a(tcp.od)
 .group         0x00000000        0x8 C:\Nburn/lib/DBNetBurner.a(tcp.od)
 .group         0x00000000        0x8 C:\Nburn/lib/DBNetBurner.a(tcp.od)
 .group         0x00000000        0x8 C:\Nburn/lib/DBNetBurner.a(tcp.od)
 .group         0x00000000        0x8 C:\Nburn/lib/DBNetBurner.a(tcp.od)
 .group         0x00000000        0x8 C:\Nburn/lib/DBNetBurner.a(tcp.od)
 .group         0x00000000        0x8 C:\Nburn/lib/DBNetBurner.a(tcp.od)
 .group         0x00000000        0x8 C:\Nburn/lib/DBNetBurner.a(tcp.od)
 .group         0x00000000        0x8 C:\Nburn/lib/DBNetBurner.a(tcp.od)
 .group         0x00000000        0x8 C:\Nburn/lib/DBNetBurner.a(tcp.od)
 .group         0x00000000        0x8 C:\Nburn/lib/DBNetBurner.a(tcp.od)
 .group         0x00000000        0x8 C:\Nburn/lib/DBNetBurner.a(tcp.od)
 .group         0x00000000        0x8 C:\Nburn/lib/DBNetBurner.a(tcp.od)
 .group         0x00000000        0x8 C:\Nburn/lib/DBNetBurner.a(tcp.od)
 .group         0x00000000        0x8 C:\Nburn/lib/DBNetBurner.a(tcp.od)
 .group         0x00000000        0x8 C:\Nburn/lib/DBNetBurner.a(tcp.od)
 .group         0x00000000        0x8 C:\Nburn/lib/DBNetBurner.a(tcp.od)
 .group         0x00000000        0x8 C:\Nburn/lib/DBNetBurner.a(tcp.od)
 .group         0x00000000        0x8 C:\Nburn/lib/DBNetBurner.a(tcp.od)
 .group         0x00000000        0x8 C:\Nburn/lib/DBNetBurner.a(tcp.od)
 .group         0x00000000        0x8 C:\Nburn/lib/DBNetBurner.a(tcp.od)
 .group         0x00000000        0x8 C:\Nburn/lib/DBNetBurner.a(tcp.od)
 .group         0x00000000        0x8 C:\Nburn/lib/DBNetBurner.a(tcp.od)
 .group         0x00000000        0x8 C:\Nburn/lib/DBNetBurner.a(tcp.od)
 .group         0x00000000        0x8 C:\Nburn/lib/DBNetBurner.a(tcp.od)
 .group         0x00000000        0x8 C:\Nburn/lib/DBNetBurner.a(tcp.od)
 .group         0x00000000        0x8 C:\Nburn/lib/DBNetBurner.a(tcp.od)
 .group         0x00000000        0x8 C:\Nburn/lib/DBNetBurner.a(tcp.od)
 .group         0x00000000        0x8 C:\Nburn/lib/DBNetBurner.a(tcp.od)
 .group         0x00000000        0x8 C:\Nburn/lib/DBNetBurner.a(tcp.od)
 .data          0x00000000        0x0 C:\Nburn/lib/DBNetBurner.a(tcp.od)
 .text._ZN6OS_SEMC2El
                0x00000000       0x28 C:\Nburn/lib/DBNetBurner.a(tcp.od)
 .text._ZN7OS_CRITC2Ev
                0x00000000       0x24 C:\Nburn/lib/DBNetBurner.a(tcp.od)
 .text._Z9OSSemInitP6OS_SEMl
                0x00000000       0x22 C:\Nburn/lib/DBNetBurner.a(tcp.od)
 .text._Z9OSSemPostP6OS_SEM
                0x00000000       0x14 C:\Nburn/lib/DBNetBurner.a(tcp.od)
 .text._Z9OSSemPendP6OS_SEMt
                0x00000000       0x24 C:\Nburn/lib/DBNetBurner.a(tcp.od)
 .text._Z10OSCritInitP7OS_CRIT
                0x00000000       0x14 C:\Nburn/lib/DBNetBurner.a(tcp.od)
 .text._Z11OSCritEnterP7OS_CRITt
                0x00000000       0x24 C:\Nburn/lib/DBNetBurner.a(tcp.od)
 .text._Z11OSCritLeaveP7OS_CRIT
                0x00000000       0x14 C:\Nburn/lib/DBNetBurner.a(tcp.od)
 .text._ZN20OSCriticalSectionObjC2ER7OS_CRIT
                0x00000000       0x20 C:\Nburn/lib/DBNetBurner.a(tcp.od)
 .text._ZN20OSCriticalSectionObjD2Ev
                0x00000000       0x1a C:\Nburn/lib/DBNetBurner.a(tcp.od)
 .text._ZN6MACADR6IsNullEv
                0x00000000       0x30 C:\Nburn/lib/DBNetBurner.a(tcp.od)
 .text._ZN7IPADDR4aSERKS_
                0x00000000       0x18 C:\Nburn/lib/DBNetBurner.a(tcp.od)
 .text._ZN7IPADDR4aSEm
                0x00000000       0x14 C:\Nburn/lib/DBNetBurner.a(tcp.od)
 .text._ZNK7IPADDR4cvmEv
                0x00000000        0xe C:\Nburn/lib/DBNetBurner.a(tcp.od)
 .text._ZNK7IPADDR46IsNullEv
                0x00000000       0x16 C:\Nburn/lib/DBNetBurner.a(tcp.od)
 .text._ZN7IPADDR4C2Ev
                0x00000000       0x10 C:\Nburn/lib/DBNetBurner.a(tcp.od)
 .text._ZN7IPADDR4C2ERKS_
                0x00000000       0x16 C:\Nburn/lib/DBNetBurner.a(tcp.od)
 .text._ZN7IPADDR46NullIPEv
                0x00000000       0x22 C:\Nburn/lib/DBNetBurner.a(tcp.od)
 .text._Zeq7IPADDR4S_
                0x00000000       0x1c C:\Nburn/lib/DBNetBurner.a(tcp.od)
 .text._ZN7IPADDR6aSERKS_
                0x00000000       0x48 C:\Nburn/lib/DBNetBurner.a(tcp.od)
 .text._ZN7IPADDR6C2ERKS_
                0x00000000       0x1a C:\Nburn/lib/DBNetBurner.a(tcp.od)
 .text._Z8GetIpPktP11pool_buffer
                0x00000000       0x22 C:\Nburn/lib/DBNetBurner.a(tcp.od)
 .data          0x00000000        0x0 C:\Nburn/lib/DBNetBurner.a(extraio.od)
 .group         0x00000000        0x8 C:\Nburn/lib/DBNetBurner.a(http.od)
 .group         0x00000000        0x8 C:\Nburn/lib/DBNetBurner.a(http.od)
 .group         0x00000000        0x8 C:\Nburn/lib/DBNetBurner.a(http.od)
 .group         0x00000000        0x8 C:\Nburn/lib/DBNetBurner.a(http.od)
 .group         0x00000000        0x8 C:\Nburn/lib/DBNetBurner.a(http.od)
 .group         0x00000000        0x8 C:\Nburn/lib/DBNetBurner.a(http.od)
 .group         0x00000000        0x8 C:\Nburn/lib/DBNetBurner.a(http.od)
 .group         0x00000000        0x8 C:\Nburn/lib/DBNetBurner.a(http.od)
 .data          0x00000000        0x0 C:\Nburn/lib/DBNetBurner.a(http.od)
 .text._ZN7IPADDR6aSERKS_
                0x00000000       0x48 C:\Nburn/lib/DBNetBurner.a(http.od)
 .text._ZN7IPADDR67SetNullEv
                0x00000000       0x28 C:\Nburn/lib/DBNetBurner.a(http.od)
 .text._ZN7IPADDR6C2Ev
                0x00000000       0x16 C:\Nburn/lib/DBNetBurner.a(http.od)
 .text._ZN7IPADDR6C2ERKS_
                0x00000000       0x1a C:\Nburn/lib/DBNetBurner.a(http.od)
 .group         0x00000000        0x8 C:\Nburn/lib/DBNetBurner.a(httpinternal.od)
 .group         0x00000000        0x8 C:\Nburn/lib/DBNetBurner.a(httpinternal.od)
 .data          0x00000000        0x0 C:\Nburn/lib/DBNetBurner.a(httpinternal.od)
 .data          0x00000000        0x0 C:\Nburn/lib/DBNetBurner.a(httpstricmp.od)
 .bss           0x00000000        0x0 C:\Nburn/lib/DBNetBurner.a(httpstricmp.od)
 .group         0x00000000        0x8 C:\Nburn/lib/DBNetBurner.a(htmldecomp.od)
 .group         0x00000000        0x8 C:\Nburn/lib/DBNetBurner.a(htmldecomp.od)
 .group         0x00000000        0x8 C:\Nburn/lib/DBNetBurner.a(htmldecomp.od)
 .data          0x00000000        0x0 C:\Nburn/lib/DBNetBurner.a(htmldecomp.od)
 .bss           0x00000000        0x0 C:\Nburn/lib/DBNetBurner.a(htmldecomp.od)
 .group         0x00000000        0x8 C:\Nburn/lib/DBNetBurner.a(iosys.od)
 .group         0x00000000        0x8 C:\Nburn/lib/DBNetBurner.a(iosys.od)
 .group         0x00000000        0x8 C:\Nburn/lib/DBNetBurner.a(iosys.od)
 .group         0x00000000        0x8 C:\Nburn/lib/DBNetBurner.a(iosys.od)
 .group         0x00000000        0x8 C:\Nburn/lib/DBNetBurner.a(iosys.od)
 .group         0x00000000        0x8 C:\Nburn/lib/DBNetBurner.a(iosys.od)
 .group         0x00000000        0x8 C:\Nburn/lib/DBNetBurner.a(iosys.od)
 .data          0x00000000        0x0 C:\Nburn/lib/DBNetBurner.a(iosys.od)
 .text._ZN6OS_SEMC2El
                0x00000000       0x28 C:\Nburn/lib/DBNetBurner.a(iosys.od)
 .text._Z9OSSemInitP6OS_SEMl
                0x00000000       0x22 C:\Nburn/lib/DBNetBurner.a(iosys.od)
 .text._Z9OSSemPostP6OS_SEM
                0x00000000       0x14 C:\Nburn/lib/DBNetBurner.a(iosys.od)
 .text._Z9OSSemPendP6OS_SEMt
                0x00000000       0x24 C:\Nburn/lib/DBNetBurner.a(iosys.od)
 .data          0x00000000        0x0 C:\Nburn/lib/DBNetBurner.a(new_ops.od)
 .bss           0x00000000        0x0 C:\Nburn/lib/DBNetBurner.a(new_ops.od)
 .group         0x00000000        0x8 C:\Nburn/lib/DBNetBurner.a(autoip.od)
 .group         0x00000000        0x8 C:\Nburn/lib/DBNetBurner.a(autoip.od)
 .group         0x00000000        0x8 C:\Nburn/lib/DBNetBurner.a(autoip.od)
 .group         0x00000000        0x8 C:\Nburn/lib/DBNetBurner.a(autoip.od)
 .group         0x00000000        0x8 C:\Nburn/lib/DBNetBurner.a(autoip.od)
 .data          0x00000000        0x0 C:\Nburn/lib/DBNetBurner.a(autoip.od)
 .text._ZN7IPADDR4aSERKS_
                0x00000000       0x18 C:\Nburn/lib/DBNetBurner.a(autoip.od)
 .text._ZN7IPADDR4aSEm
                0x00000000       0x14 C:\Nburn/lib/DBNetBurner.a(autoip.od)
 .text._ZN7IPADDR4C2Ev
                0x00000000       0x10 C:\Nburn/lib/DBNetBurner.a(autoip.od)
 .text._ZN7IPADDR4C2ERKS_
                0x00000000       0x16 C:\Nburn/lib/DBNetBurner.a(autoip.od)
 .text._ZN7IPADDR46NullIPEv
                0x00000000       0x22 C:\Nburn/lib/DBNetBurner.a(autoip.od)
 .group         0x00000000        0x8 C:\Nburn/lib/DBNetBurner.a(dhcpc.od)
 .group         0x00000000        0x8 C:\Nburn/lib/DBNetBurner.a(dhcpc.od)
 .group         0x00000000        0x8 C:\Nburn/lib/DBNetBurner.a(dhcpc.od)
 .group         0x00000000        0x8 C:\Nburn/lib/DBNetBurner.a(dhcpc.od)
 .group         0x00000000        0x8 C:\Nburn/lib/DBNetBurner.a(dhcpc.od)
 .group         0x00000000        0x8 C:\Nburn/lib/DBNetBurner.a(dhcpc.od)
 .group         0x00000000        0x8 C:\Nburn/lib/DBNetBurner.a(dhcpc.od)
 .group         0x00000000        0x8 C:\Nburn/lib/DBNetBurner.a(dhcpc.od)
 .group         0x00000000        0x8 C:\Nburn/lib/DBNetBurner.a(dhcpc.od)
 .group         0x00000000        0x8 C:\Nburn/lib/DBNetBurner.a(dhcpc.od)
 .group         0x00000000        0x8 C:\Nburn/lib/DBNetBurner.a(dhcpc.od)
 .group         0x00000000        0x8 C:\Nburn/lib/DBNetBurner.a(dhcpc.od)
 .group         0x00000000        0x8 C:\Nburn/lib/DBNetBurner.a(dhcpc.od)
 .group         0x00000000        0x8 C:\Nburn/lib/DBNetBurner.a(dhcpc.od)
 .group         0x00000000        0x8 C:\Nburn/lib/DBNetBurner.a(dhcpc.od)
 .group         0x00000000        0x8 C:\Nburn/lib/DBNetBurner.a(dhcpc.od)
 .group         0x00000000        0x8 C:\Nburn/lib/DBNetBurner.a(dhcpc.od)
 .group         0x00000000        0x8 C:\Nburn/lib/DBNetBurner.a(dhcpc.od)
 .group         0x00000000        0x8 C:\Nburn/lib/DBNetBurner.a(dhcpc.od)
 .group         0x00000000        0x8 C:\Nburn/lib/DBNetBurner.a(dhcpc.od)
 .group         0x00000000        0x8 C:\Nburn/lib/DBNetBurner.a(dhcpc.od)
 .group         0x00000000        0x8 C:\Nburn/lib/DBNetBurner.a(dhcpc.od)
 .group         0x00000000        0x8 C:\Nburn/lib/DBNetBurner.a(dhcpc.od)
 .group         0x00000000        0x8 C:\Nburn/lib/DBNetBurner.a(dhcpc.od)
 .group         0x00000000        0x8 C:\Nburn/lib/DBNetBurner.a(dhcpc.od)
 .group         0x00000000        0x8 C:\Nburn/lib/DBNetBurner.a(dhcpc.od)
 .group         0x00000000        0x8 C:\Nburn/lib/DBNetBurner.a(dhcpc.od)
 .group         0x00000000        0x8 C:\Nburn/lib/DBNetBurner.a(dhcpc.od)
 .group         0x00000000        0x8 C:\Nburn/lib/DBNetBurner.a(dhcpc.od)
 .group         0x00000000        0x8 C:\Nburn/lib/DBNetBurner.a(dhcpc.od)
 .group         0x00000000        0x8 C:\Nburn/lib/DBNetBurner.a(dhcpc.od)
 .group         0x00000000        0x8 C:\Nburn/lib/DBNetBurner.a(dhcpc.od)
 .data          0x00000000        0x0 C:\Nburn/lib/DBNetBurner.a(dhcpc.od)
 .text._ZN7IPADDR4aSERKS_
                0x00000000       0x18 C:\Nburn/lib/DBNetBurner.a(dhcpc.od)
 .text._ZN7IPADDR4aSEm
                0x00000000       0x14 C:\Nburn/lib/DBNetBurner.a(dhcpc.od)
 .text._ZNK7IPADDR4cvmEv
                0x00000000        0xe C:\Nburn/lib/DBNetBurner.a(dhcpc.od)
 .text._ZNK7IPADDR46IsNullEv
                0x00000000       0x16 C:\Nburn/lib/DBNetBurner.a(dhcpc.od)
 .text._ZNK7IPADDR47NotNullEv
                0x00000000       0x1a C:\Nburn/lib/DBNetBurner.a(dhcpc.od)
 .text._ZN7IPADDR4C2Ev
                0x00000000       0x10 C:\Nburn/lib/DBNetBurner.a(dhcpc.od)
 .text._ZN7IPADDR4C2ERKS_
                0x00000000       0x16 C:\Nburn/lib/DBNetBurner.a(dhcpc.od)
 .text._ZN6OS_SEMC2El
                0x00000000       0x28 C:\Nburn/lib/DBNetBurner.a(dhcpc.od)
 .text._Z9OSSemInitP6OS_SEMl
                0x00000000       0x22 C:\Nburn/lib/DBNetBurner.a(dhcpc.od)
 .text._Z9OSSemPostP6OS_SEM
                0x00000000       0x14 C:\Nburn/lib/DBNetBurner.a(dhcpc.od)
 .text._Z9OSSemPendP6OS_SEMt
                0x00000000       0x24 C:\Nburn/lib/DBNetBurner.a(dhcpc.od)
 .data          0x00000000        0x0 C:\Nburn/lib/DBNetBurner.a(netrx.od)
 .group         0x00000000        0x8 C:\Nburn/lib/DBNetBurner.a(netinterface.od)
 .group         0x00000000        0x8 C:\Nburn/lib/DBNetBurner.a(netinterface.od)
 .group         0x00000000        0x8 C:\Nburn/lib/DBNetBurner.a(netinterface.od)
 .data          0x00000000        0x0 C:\Nburn/lib/DBNetBurner.a(netinterface.od)
 .text._ZN7IPADDR4C2Ev
                0x00000000       0x10 C:\Nburn/lib/DBNetBurner.a(netinterface.od)
 .text._ZN7IPADDR4C2ERKS_
                0x00000000       0x16 C:\Nburn/lib/DBNetBurner.a(netinterface.od)
 .text._ZN7IPADDR46NullIPEv
                0x00000000       0x22 C:\Nburn/lib/DBNetBurner.a(netinterface.od)
 .group         0x00000000        0x8 C:\Nburn/lib/DBNetBurner.a(multiconfig.od)
 .group         0x00000000        0x8 C:\Nburn/lib/DBNetBurner.a(multiconfig.od)
 .group         0x00000000        0x8 C:\Nburn/lib/DBNetBurner.a(multiconfig.od)
 .group         0x00000000        0x8 C:\Nburn/lib/DBNetBurner.a(multiconfig.od)
 .data          0x00000000        0x0 C:\Nburn/lib/DBNetBurner.a(multiconfig.od)
 .bss           0x00000000        0x0 C:\Nburn/lib/DBNetBurner.a(multiconfig.od)
 .text._ZN7IPADDR4aSERKS_
                0x00000000       0x18 C:\Nburn/lib/DBNetBurner.a(multiconfig.od)
 .text._ZN7IPADDR4C2Ev
                0x00000000       0x10 C:\Nburn/lib/DBNetBurner.a(multiconfig.od)
 .text._ZN12ConfigRecordC2Ev
                0x00000000       0x66 C:\Nburn/lib/DBNetBurner.a(multiconfig.od)
 .data          0x00000000        0x0 C:\Nburn/lib/DBNetBurner.a(taskmon.od)
 .data          0x00000000        0x0 C:\Nburn/lib/DBNetBurner.a(smarttrap.od)
 .group         0x00000000        0x8 C:\Nburn/lib/DBNetBurner.a(autoupdate.od)
 .group         0x00000000        0x8 C:\Nburn/lib/DBNetBurner.a(autoupdate.od)
 .group         0x00000000        0x8 C:\Nburn/lib/DBNetBurner.a(autoupdate.od)
 .data          0x00000000        0x0 C:\Nburn/lib/DBNetBurner.a(autoupdate.od)
 .text._ZN7IPADDR4C2ERKS_
                0x00000000       0x16 C:\Nburn/lib/DBNetBurner.a(autoupdate.od)
 .text._Z8GetIpPktP11pool_buffer
                0x00000000       0x22 C:\Nburn/lib/DBNetBurner.a(autoupdate.od)
 .group         0x00000000        0x8 C:\Nburn/lib/DBNetBurner.a(device.od)
 .group         0x00000000        0x8 C:\Nburn/lib/DBNetBurner.a(device.od)
 .data          0x00000000        0x0 C:\Nburn/lib/DBNetBurner.a(device.od)
 .text._ZN6OS_SEMC2El
                0x00000000       0x28 C:\Nburn/lib/DBNetBurner.a(device.od)
 .text._Z9OSSemInitP6OS_SEMl
                0x00000000       0x22 C:\Nburn/lib/DBNetBurner.a(device.od)
 .bss           0x00000000        0x0 C:\Nburn/lib/DBNetBurner.a(base64.od)
 .group         0x00000000        0x8 C:\Nburn/lib/DBNetBurner.a(nbiprintf.od)
 .group         0x00000000        0x8 C:\Nburn/lib/DBNetBurner.a(nbiprintf.od)
 .text._ZN7IPADDR621SetFromUint32ShortcutEmmmm
                0x00000000       0x30 C:\Nburn/lib/DBNetBurner.a(nbiprintf.od)
 .data          0x00000000        0x0 C:\Nburn/lib/DBNetBurner.a(nbprintf.od)
 .bss           0x00000000        0x0 C:\Nburn/lib/DBNetBurner.a(nbprintf.od)
 .data          0x00000000        0x0 C:\Nburn/lib/DBNetBurner.a(nbsiprintf.od)
 .bss           0x00000000        0x0 C:\Nburn/lib/DBNetBurner.a(nbsiprintf.od)
 .data          0x00000000        0x0 C:\Nburn/lib/DBNetBurner.a(nbsprintf.od)
 .bss           0x00000000        0x0 C:\Nburn/lib/DBNetBurner.a(nbsprintf.od)
 .data          0x00000000        0x0 C:\Nburn/lib/DBNetBurner.a(weakumain.od)
 .bss           0x00000000        0x0 C:\Nburn/lib/DBNetBurner.a(weakumain.od)
 .data          0x00000000        0x0 C:\Nburn/lib/DBNetBurner.a(cusermain.od)
 .bss           0x00000000        0x0 C:\Nburn/lib/DBNetBurner.a(cusermain.od)
 .data          0x00000000        0x0 C:\Nburn/lib/DBNetBurner.a(fdprintf.od)
 .bss           0x00000000        0x0 C:\Nburn/lib/DBNetBurner.a(fdprintf.od)
 .text          0x00000000        0x0 C:\Nburn/lib/DBNetBurner.a(websocket_handler.od)
 .data          0x00000000        0x0 C:\Nburn/lib/DBNetBurner.a(websocket_handler.od)
 .group         0x00000000        0x8 C:\Nburn/lib/DBNetBurner.a(ipv6_addr.od)
 .group         0x00000000        0x8 C:\Nburn/lib/DBNetBurner.a(ipv6_addr.od)
 .group         0x00000000        0x8 C:\Nburn/lib/DBNetBurner.a(ipv6_addr.od)
 .group         0x00000000        0x8 C:\Nburn/lib/DBNetBurner.a(ipv6_addr.od)
 .group         0x00000000        0x8 C:\Nburn/lib/DBNetBurner.a(ipv6_addr.od)
 .group         0x00000000        0x8 C:\Nburn/lib/DBNetBurner.a(ipv6_addr.od)
 .group         0x00000000        0x8 C:\Nburn/lib/DBNetBurner.a(ipv6_addr.od)
 .group         0x00000000        0x8 C:\Nburn/lib/DBNetBurner.a(ipv6_addr.od)
 .group         0x00000000        0x8 C:\Nburn/lib/DBNetBurner.a(ipv6_addr.od)
 .data          0x00000000        0x0 C:\Nburn/lib/DBNetBurner.a(ipv6_addr.od)
 .bss           0x00000000        0x0 C:\Nburn/lib/DBNetBurner.a(ipv6_addr.od)
 .text._ZNK7IPADDR4cvmEv
                0x00000000        0xe C:\Nburn/lib/DBNetBurner.a(ipv6_addr.od)
 .text._ZN7IPADDR4C2Ev
                0x00000000       0x10 C:\Nburn/lib/DBNetBurner.a(ipv6_addr.od)
 .text._ZNK7IPADDR614IsEmbeddedIPV4Ev
                0x00000000       0x34 C:\Nburn/lib/DBNetBurner.a(ipv6_addr.od)
 .text._ZNK7IPADDR66IsNullEv
                0x00000000       0x34 C:\Nburn/lib/DBNetBurner.a(ipv6_addr.od)
 .text._ZN7IPADDR67SetNullEv
                0x00000000       0x28 C:\Nburn/lib/DBNetBurner.a(ipv6_addr.od)
 .text._ZN7IPADDR6C2Ev
                0x00000000       0x16 C:\Nburn/lib/DBNetBurner.a(ipv6_addr.od)
 .group         0x00000000        0x8 C:\Nburn/lib/DBNetBurner.a(ipv6_tcp.od)
 .group         0x00000000        0x8 C:\Nburn/lib/DBNetBurner.a(ipv6_tcp.od)
 .group         0x00000000        0x8 C:\Nburn/lib/DBNetBurner.a(ipv6_tcp.od)
 .group         0x00000000        0x8 C:\Nburn/lib/DBNetBurner.a(ipv6_tcp.od)
 .group         0x00000000        0x8 C:\Nburn/lib/DBNetBurner.a(ipv6_tcp.od)
 .group         0x00000000        0x8 C:\Nburn/lib/DBNetBurner.a(ipv6_tcp.od)
 .group         0x00000000        0x8 C:\Nburn/lib/DBNetBurner.a(ipv6_tcp.od)
 .group         0x00000000        0x8 C:\Nburn/lib/DBNetBurner.a(ipv6_tcp.od)
 .group         0x00000000        0x8 C:\Nburn/lib/DBNetBurner.a(ipv6_tcp.od)
 .group         0x00000000        0x8 C:\Nburn/lib/DBNetBurner.a(ipv6_tcp.od)
 .group         0x00000000        0x8 C:\Nburn/lib/DBNetBurner.a(ipv6_tcp.od)
 .group         0x00000000        0x8 C:\Nburn/lib/DBNetBurner.a(ipv6_tcp.od)
 .group         0x00000000        0x8 C:\Nburn/lib/DBNetBurner.a(ipv6_tcp.od)
 .group         0x00000000        0x8 C:\Nburn/lib/DBNetBurner.a(ipv6_tcp.od)
 .group         0x00000000        0x8 C:\Nburn/lib/DBNetBurner.a(ipv6_tcp.od)
 .group         0x00000000        0x8 C:\Nburn/lib/DBNetBurner.a(ipv6_tcp.od)
 .data          0x00000000        0x0 C:\Nburn/lib/DBNetBurner.a(ipv6_tcp.od)
 .bss           0x00000000        0x2 C:\Nburn/lib/DBNetBurner.a(ipv6_tcp.od)
 .text._ZN7IPADDR4aSEm
                0x00000000       0x14 C:\Nburn/lib/DBNetBurner.a(ipv6_tcp.od)
 .text._ZN7IPADDR4C2Ev
                0x00000000       0x10 C:\Nburn/lib/DBNetBurner.a(ipv6_tcp.od)
 .text._ZN7IPADDR4C2ERKS_
                0x00000000       0x16 C:\Nburn/lib/DBNetBurner.a(ipv6_tcp.od)
 .text._ZN7IPADDR6aSERKS_
                0x00000000       0x48 C:\Nburn/lib/DBNetBurner.a(ipv6_tcp.od)
 .text._ZNK7IPADDR614IsEmbeddedIPV4Ev
                0x00000000       0x34 C:\Nburn/lib/DBNetBurner.a(ipv6_tcp.od)
 .text._ZNK7IPADDR68Extract4Ev
                0x00000000       0x34 C:\Nburn/lib/DBNetBurner.a(ipv6_tcp.od)
 .text._ZN7IPADDR6C2E7IPADDR4
                0x00000000       0x2e C:\Nburn/lib/DBNetBurner.a(ipv6_tcp.od)
 .text._ZN7IPADDR6C2ERKS_
                0x00000000       0x1a C:\Nburn/lib/DBNetBurner.a(ipv6_tcp.od)
 .text._Zeq7IPADDR6S_
                0x00000000       0x5a C:\Nburn/lib/DBNetBurner.a(ipv6_tcp.od)
 .text._ZN16TcpCarrierPacket4FreeEv
                0x00000000       0x46 C:\Nburn/lib/DBNetBurner.a(ipv6_tcp.od)
 .text._ZN16TcpCarrierPacket6DetachEv
                0x00000000       0x2a C:\Nburn/lib/DBNetBurner.a(ipv6_tcp.od)
 .text._ZN16TcpCarrierPacket5GetPPEv
                0x00000000        0xe C:\Nburn/lib/DBNetBurner.a(ipv6_tcp.od)
 .text._ZN16TcpCarrierPacket13GetTcpDataLenEv
                0x00000000       0x10 C:\Nburn/lib/DBNetBurner.a(ipv6_tcp.od)
 .group         0x00000000        0x8 C:\Nburn/lib/DBNetBurner.a(ipv6_ip.od)
 .group         0x00000000        0x8 C:\Nburn/lib/DBNetBurner.a(ipv6_ip.od)
 .group         0x00000000        0x8 C:\Nburn/lib/DBNetBurner.a(ipv6_ip.od)
 .group         0x00000000        0x8 C:\Nburn/lib/DBNetBurner.a(ipv6_ip.od)
 .group         0x00000000        0x8 C:\Nburn/lib/DBNetBurner.a(ipv6_ip.od)
 .group         0x00000000        0x8 C:\Nburn/lib/DBNetBurner.a(ipv6_ip.od)
 .group         0x00000000        0x8 C:\Nburn/lib/DBNetBurner.a(ipv6_ip.od)
 .group         0x00000000        0x8 C:\Nburn/lib/DBNetBurner.a(ipv6_ip.od)
 .group         0x00000000        0x8 C:\Nburn/lib/DBNetBurner.a(ipv6_ip.od)
 .group         0x00000000        0x8 C:\Nburn/lib/DBNetBurner.a(ipv6_ip.od)
 .group         0x00000000        0x8 C:\Nburn/lib/DBNetBurner.a(ipv6_ip.od)
 .group         0x00000000        0x8 C:\Nburn/lib/DBNetBurner.a(ipv6_ip.od)
 .group         0x00000000        0x8 C:\Nburn/lib/DBNetBurner.a(ipv6_ip.od)
 .group         0x00000000        0x8 C:\Nburn/lib/DBNetBurner.a(ipv6_ip.od)
 .group         0x00000000        0x8 C:\Nburn/lib/DBNetBurner.a(ipv6_ip.od)
 .group         0x00000000        0x8 C:\Nburn/lib/DBNetBurner.a(ipv6_ip.od)
 .group         0x00000000        0x8 C:\Nburn/lib/DBNetBurner.a(ipv6_ip.od)
 .group         0x00000000        0x8 C:\Nburn/lib/DBNetBurner.a(ipv6_ip.od)
 .group         0x00000000        0x8 C:\Nburn/lib/DBNetBurner.a(ipv6_ip.od)
 .group         0x00000000        0x8 C:\Nburn/lib/DBNetBurner.a(ipv6_ip.od)
 .group         0x00000000        0x8 C:\Nburn/lib/DBNetBurner.a(ipv6_ip.od)
 .group         0x00000000        0x8 C:\Nburn/lib/DBNetBurner.a(ipv6_ip.od)
 .group         0x00000000        0x8 C:\Nburn/lib/DBNetBurner.a(ipv6_ip.od)
 .group         0x00000000        0x8 C:\Nburn/lib/DBNetBurner.a(ipv6_ip.od)
 .group         0x00000000        0x8 C:\Nburn/lib/DBNetBurner.a(ipv6_ip.od)
 .group         0x00000000        0x8 C:\Nburn/lib/DBNetBurner.a(ipv6_ip.od)
 .group         0x00000000        0x8 C:\Nburn/lib/DBNetBurner.a(ipv6_ip.od)
 .group         0x00000000        0x8 C:\Nburn/lib/DBNetBurner.a(ipv6_ip.od)
 .group         0x00000000        0x8 C:\Nburn/lib/DBNetBurner.a(ipv6_ip.od)
 .group         0x00000000        0x8 C:\Nburn/lib/DBNetBurner.a(ipv6_ip.od)
 .group         0x00000000        0x8 C:\Nburn/lib/DBNetBurner.a(ipv6_ip.od)
 .group         0x00000000        0x8 C:\Nburn/lib/DBNetBurner.a(ipv6_ip.od)
 .group         0x00000000        0x8 C:\Nburn/lib/DBNetBurner.a(ipv6_ip.od)
 .group         0x00000000        0x8 C:\Nburn/lib/DBNetBurner.a(ipv6_ip.od)
 .group         0x00000000        0x8 C:\Nburn/lib/DBNetBurner.a(ipv6_ip.od)
 .group         0x00000000        0x8 C:\Nburn/lib/DBNetBurner.a(ipv6_ip.od)
 .group         0x00000000        0x8 C:\Nburn/lib/DBNetBurner.a(ipv6_ip.od)
 .group         0x00000000        0x8 C:\Nburn/lib/DBNetBurner.a(ipv6_ip.od)
 .group         0x00000000        0x8 C:\Nburn/lib/DBNetBurner.a(ipv6_ip.od)
 .group         0x00000000        0x8 C:\Nburn/lib/DBNetBurner.a(ipv6_ip.od)
 .group         0x00000000        0x8 C:\Nburn/lib/DBNetBurner.a(ipv6_ip.od)
 .group         0x00000000        0x8 C:\Nburn/lib/DBNetBurner.a(ipv6_ip.od)
 .group         0x00000000        0x8 C:\Nburn/lib/DBNetBurner.a(ipv6_ip.od)
 .group         0x00000000        0x8 C:\Nburn/lib/DBNetBurner.a(ipv6_ip.od)
 .group         0x00000000        0x8 C:\Nburn/lib/DBNetBurner.a(ipv6_ip.od)
 .group         0x00000000        0x8 C:\Nburn/lib/DBNetBurner.a(ipv6_ip.od)
 .group         0x00000000        0x8 C:\Nburn/lib/DBNetBurner.a(ipv6_ip.od)
 .group         0x00000000        0x8 C:\Nburn/lib/DBNetBurner.a(ipv6_ip.od)
 .group         0x00000000        0x8 C:\Nburn/lib/DBNetBurner.a(ipv6_ip.od)
 .group         0x00000000        0x8 C:\Nburn/lib/DBNetBurner.a(ipv6_ip.od)
 .group         0x00000000        0x8 C:\Nburn/lib/DBNetBurner.a(ipv6_ip.od)
 .group         0x00000000        0x8 C:\Nburn/lib/DBNetBurner.a(ipv6_ip.od)
 .group         0x00000000        0x8 C:\Nburn/lib/DBNetBurner.a(ipv6_ip.od)
 .group         0x00000000        0x8 C:\Nburn/lib/DBNetBurner.a(ipv6_ip.od)
 .group         0x00000000        0x8 C:\Nburn/lib/DBNetBurner.a(ipv6_ip.od)
 .group         0x00000000        0x8 C:\Nburn/lib/DBNetBurner.a(ipv6_ip.od)
 .group         0x00000000        0x8 C:\Nburn/lib/DBNetBurner.a(ipv6_ip.od)
 .group         0x00000000        0x8 C:\Nburn/lib/DBNetBurner.a(ipv6_ip.od)
 .group         0x00000000        0x8 C:\Nburn/lib/DBNetBurner.a(ipv6_ip.od)
 .group         0x00000000        0x8 C:\Nburn/lib/DBNetBurner.a(ipv6_ip.od)
 .group         0x00000000        0x8 C:\Nburn/lib/DBNetBurner.a(ipv6_ip.od)
 .group         0x00000000        0x8 C:\Nburn/lib/DBNetBurner.a(ipv6_ip.od)
 .group         0x00000000        0xc C:\Nburn/lib/DBNetBurner.a(ipv6_ip.od)
 .group         0x00000000        0x8 C:\Nburn/lib/DBNetBurner.a(ipv6_ip.od)
 .group         0x00000000        0xc C:\Nburn/lib/DBNetBurner.a(ipv6_ip.od)
 .group         0x00000000        0x8 C:\Nburn/lib/DBNetBurner.a(ipv6_ip.od)
 .group         0x00000000        0xc C:\Nburn/lib/DBNetBurner.a(ipv6_ip.od)
 .group         0x00000000        0x8 C:\Nburn/lib/DBNetBurner.a(ipv6_ip.od)
 .group         0x00000000        0xc C:\Nburn/lib/DBNetBurner.a(ipv6_ip.od)
 .group         0x00000000        0x8 C:\Nburn/lib/DBNetBurner.a(ipv6_ip.od)
 .group         0x00000000        0xc C:\Nburn/lib/DBNetBurner.a(ipv6_ip.od)
 .group         0x00000000        0x8 C:\Nburn/lib/DBNetBurner.a(ipv6_ip.od)
 .group         0x00000000        0xc C:\Nburn/lib/DBNetBurner.a(ipv6_ip.od)
 .data          0x00000000        0x0 C:\Nburn/lib/DBNetBurner.a(ipv6_ip.od)
 .text._ZN6MACADR6IsNullEv
                0x00000000       0x30 C:\Nburn/lib/DBNetBurner.a(ipv6_ip.od)
 .text._ZeqRK6MACADRS1_
                0x00000000       0x7e C:\Nburn/lib/DBNetBurner.a(ipv6_ip.od)
 .text._ZneRK6MACADRS1_
                0x00000000       0x7e C:\Nburn/lib/DBNetBurner.a(ipv6_ip.od)
 .text._ZN7IPADDR4aSEm
                0x00000000       0x14 C:\Nburn/lib/DBNetBurner.a(ipv6_ip.od)
 .text._ZNK7IPADDR46IsNullEv
                0x00000000       0x16 C:\Nburn/lib/DBNetBurner.a(ipv6_ip.od)
 .text._ZN7IPADDR4C2Ev
                0x00000000       0x10 C:\Nburn/lib/DBNetBurner.a(ipv6_ip.od)
 .text._ZN7IPADDR6aSERKS_
                0x00000000       0x48 C:\Nburn/lib/DBNetBurner.a(ipv6_ip.od)
 .text._ZNK7IPADDR614IsEmbeddedIPV4Ev
                0x00000000       0x34 C:\Nburn/lib/DBNetBurner.a(ipv6_ip.od)
 .text._ZNK7IPADDR68Extract4Ev
                0x00000000       0x34 C:\Nburn/lib/DBNetBurner.a(ipv6_ip.od)
 .text._ZNK7IPADDR66IsNullEv
                0x00000000       0x34 C:\Nburn/lib/DBNetBurner.a(ipv6_ip.od)
 .text._ZNK7IPADDR610IsLoopBackEv
                0x00000000       0x3e C:\Nburn/lib/DBNetBurner.a(ipv6_ip.od)
 .text._ZNK7IPADDR611IsMultiCastEv
                0x00000000       0x20 C:\Nburn/lib/DBNetBurner.a(ipv6_ip.od)
 .text._ZN7IPADDR621SetFromUint32ShortcutEmmmm
                0x00000000       0x30 C:\Nburn/lib/DBNetBurner.a(ipv6_ip.od)
 .text._ZN7IPADDR67SetNullEv
                0x00000000       0x28 C:\Nburn/lib/DBNetBurner.a(ipv6_ip.od)
 .text._ZN7IPADDR6C2Ev
                0x00000000       0x16 C:\Nburn/lib/DBNetBurner.a(ipv6_ip.od)
 .text._ZN7IPADDR6C2ERKS_
                0x00000000       0x1a C:\Nburn/lib/DBNetBurner.a(ipv6_ip.od)
 .text._ZNK7IPADDR616GetInternalValueEi
                0x00000000       0x14 C:\Nburn/lib/DBNetBurner.a(ipv6_ip.od)
 .text._Zeq7IPADDR6S_
                0x00000000       0x5a C:\Nburn/lib/DBNetBurner.a(ipv6_ip.od)
 .text._ZN7OS_FIFOC2Ev
                0x00000000       0x24 C:\Nburn/lib/DBNetBurner.a(ipv6_ip.od)
 .text._ZN7OS_CRITC2Ev
                0x00000000       0x24 C:\Nburn/lib/DBNetBurner.a(ipv6_ip.od)
 .text._Z10OSFifoInitP7OS_FIFO
                0x00000000       0x1e C:\Nburn/lib/DBNetBurner.a(ipv6_ip.od)
 .text._Z10OSFifoPostP7OS_FIFOP10os_fifo_el
                0x00000000       0x18 C:\Nburn/lib/DBNetBurner.a(ipv6_ip.od)
 .text._Z10OSFifoPendP7OS_FIFOt
                0x00000000       0x30 C:\Nburn/lib/DBNetBurner.a(ipv6_ip.od)
 .text._Z10OSCritInitP7OS_CRIT
                0x00000000       0x14 C:\Nburn/lib/DBNetBurner.a(ipv6_ip.od)
 .text._Z11OSCritEnterP7OS_CRITt
                0x00000000       0x24 C:\Nburn/lib/DBNetBurner.a(ipv6_ip.od)
 .text._Z11OSCritLeaveP7OS_CRIT
                0x00000000       0x14 C:\Nburn/lib/DBNetBurner.a(ipv6_ip.od)
 .text._ZN20OSCriticalSectionObjC2ER7OS_CRIT
                0x00000000       0x20 C:\Nburn/lib/DBNetBurner.a(ipv6_ip.od)
 .text._ZN20OSCriticalSectionObjD2Ev
                0x00000000       0x1a C:\Nburn/lib/DBNetBurner.a(ipv6_ip.od)
 .text._Z14OSPoolFifoPostP7OS_FIFOP11pool_buffer
                0x00000000       0x18 C:\Nburn/lib/DBNetBurner.a(ipv6_ip.od)
 .text._Z14OSPoolFifoPendP7OS_FIFOt
                0x00000000       0x24 C:\Nburn/lib/DBNetBurner.a(ipv6_ip.od)
 .text._ZN25IPv6FrameProcessingStructC2Ev
                0x00000000       0x32 C:\Nburn/lib/DBNetBurner.a(ipv6_ip.od)
 .text._ZN25IPv6FrameProcessingStruct9GetEframeEv
                0x00000000       0x38 C:\Nburn/lib/DBNetBurner.a(ipv6_ip.od)
 .text._ZN13IPv6Interface8FindDestERK7IPADDR6b
                0x00000000       0x32 C:\Nburn/lib/DBNetBurner.a(ipv6_ip.od)
 .text._ZN13IPv6Interface18GetInterfaceNumberEv
                0x00000000        0xe C:\Nburn/lib/DBNetBurner.a(ipv6_ip.od)
 .group         0x00000000        0x8 C:\Nburn/lib/DBNetBurner.a(ipv6_udp.od)
 .group         0x00000000        0x8 C:\Nburn/lib/DBNetBurner.a(ipv6_udp.od)
 .group         0x00000000        0x8 C:\Nburn/lib/DBNetBurner.a(ipv6_udp.od)
 .group         0x00000000        0x8 C:\Nburn/lib/DBNetBurner.a(ipv6_udp.od)
 .group         0x00000000        0x8 C:\Nburn/lib/DBNetBurner.a(ipv6_udp.od)
 .group         0x00000000        0x8 C:\Nburn/lib/DBNetBurner.a(ipv6_udp.od)
 .group         0x00000000        0x8 C:\Nburn/lib/DBNetBurner.a(ipv6_udp.od)
 .group         0x00000000        0x8 C:\Nburn/lib/DBNetBurner.a(ipv6_udp.od)
 .group         0x00000000        0x8 C:\Nburn/lib/DBNetBurner.a(ipv6_udp.od)
 .group         0x00000000        0x8 C:\Nburn/lib/DBNetBurner.a(ipv6_udp.od)
 .group         0x00000000        0x8 C:\Nburn/lib/DBNetBurner.a(ipv6_udp.od)
 .group         0x00000000        0x8 C:\Nburn/lib/DBNetBurner.a(ipv6_udp.od)
 .group         0x00000000        0x8 C:\Nburn/lib/DBNetBurner.a(ipv6_udp.od)
 .group         0x00000000        0x8 C:\Nburn/lib/DBNetBurner.a(ipv6_udp.od)
 .group         0x00000000        0x8 C:\Nburn/lib/DBNetBurner.a(ipv6_udp.od)
 .group         0x00000000        0x8 C:\Nburn/lib/DBNetBurner.a(ipv6_udp.od)
 .group         0x00000000        0x8 C:\Nburn/lib/DBNetBurner.a(ipv6_udp.od)
 .data          0x00000000        0x0 C:\Nburn/lib/DBNetBurner.a(ipv6_udp.od)
 .bss           0x00000000        0x0 C:\Nburn/lib/DBNetBurner.a(ipv6_udp.od)
 .text._ZN7IPADDR4aSEm
                0x00000000       0x14 C:\Nburn/lib/DBNetBurner.a(ipv6_udp.od)
 .text._ZNK7IPADDR4cvmEv
                0x00000000        0xe C:\Nburn/lib/DBNetBurner.a(ipv6_udp.od)
 .text._ZN7IPADDR4C2Ev
                0x00000000       0x10 C:\Nburn/lib/DBNetBurner.a(ipv6_udp.od)
 .text._ZN7IPADDR6aSERKS_
                0x00000000       0x48 C:\Nburn/lib/DBNetBurner.a(ipv6_udp.od)
 .text._ZNK7IPADDR614IsEmbeddedIPV4Ev
                0x00000000       0x34 C:\Nburn/lib/DBNetBurner.a(ipv6_udp.od)
 .text._ZNK7IPADDR68Extract4Ev
                0x00000000       0x34 C:\Nburn/lib/DBNetBurner.a(ipv6_udp.od)
 .text._ZN7IPADDR6aSE7IPADDR4
                0x00000000       0x3c C:\Nburn/lib/DBNetBurner.a(ipv6_udp.od)
 .text._ZN7IPADDR67SetNullEv
                0x00000000       0x28 C:\Nburn/lib/DBNetBurner.a(ipv6_udp.od)
 .text._ZN7IPADDR6C2Ev
                0x00000000       0x16 C:\Nburn/lib/DBNetBurner.a(ipv6_udp.od)
 .text._ZN7IPADDR6C2ERKS_
                0x00000000       0x1a C:\Nburn/lib/DBNetBurner.a(ipv6_udp.od)
 .text._Z8GetIpPktP11pool_buffer
                0x00000000       0x22 C:\Nburn/lib/DBNetBurner.a(ipv6_udp.od)
 .text._Z8GetIpPktP6EFRAME
                0x00000000       0x12 C:\Nburn/lib/DBNetBurner.a(ipv6_udp.od)
 .text._ZN9UDPPacket7bIsIPV6Ev
                0x00000000       0x18 C:\Nburn/lib/DBNetBurner.a(ipv6_udp.od)
 .text._ZN9UDPPacket13ReleaseBufferEv
                0x00000000       0x20 C:\Nburn/lib/DBNetBurner.a(ipv6_udp.od)
 .text._ZN25IPv6FrameProcessingStructC2Ev
                0x00000000       0x32 C:\Nburn/lib/DBNetBurner.a(ipv6_udp.od)
 .text._ZN25IPv6FrameProcessingStruct9GetEframeEv
                0x00000000       0x38 C:\Nburn/lib/DBNetBurner.a(ipv6_udp.od)
 .data          0x00000000        0x0 C:\Nburn/lib/DBNetBurner.a(ipv6_printhelp.od)
 .bss           0x00000000        0x0 C:\Nburn/lib/DBNetBurner.a(ipv6_printhelp.od)
 .group         0x00000000        0x8 C:\Nburn/lib/DBNetBurner.a(ipv6_extensions.od)
 .group         0x00000000        0x8 C:\Nburn/lib/DBNetBurner.a(ipv6_extensions.od)
 .group         0x00000000        0x8 C:\Nburn/lib/DBNetBurner.a(ipv6_extensions.od)
 .group         0x00000000        0x8 C:\Nburn/lib/DBNetBurner.a(ipv6_extensions.od)
 .group         0x00000000        0x8 C:\Nburn/lib/DBNetBurner.a(ipv6_extensions.od)
 .group         0x00000000        0x8 C:\Nburn/lib/DBNetBurner.a(ipv6_extensions.od)
 .group         0x00000000        0x8 C:\Nburn/lib/DBNetBurner.a(ipv6_extensions.od)
 .data          0x00000000        0x0 C:\Nburn/lib/DBNetBurner.a(ipv6_extensions.od)
 .bss           0x00000000        0x0 C:\Nburn/lib/DBNetBurner.a(ipv6_extensions.od)
 .text._ZN7IPADDR6aSERKS_
                0x00000000       0x48 C:\Nburn/lib/DBNetBurner.a(ipv6_extensions.od)
 .text._ZN7IPADDR6C2ERKS_
                0x00000000       0x1a C:\Nburn/lib/DBNetBurner.a(ipv6_extensions.od)
 .text._Zeq7IPADDR6S_
                0x00000000       0x5a C:\Nburn/lib/DBNetBurner.a(ipv6_extensions.od)
 .text._ZN25IPv6FrameProcessingStructC2Ev
                0x00000000       0x32 C:\Nburn/lib/DBNetBurner.a(ipv6_extensions.od)
 .text._ZN25IPv6FrameProcessingStruct9GetEframeEv
                0x00000000       0x38 C:\Nburn/lib/DBNetBurner.a(ipv6_extensions.od)
 .text._ZN11IPV6_PREFIX7GetNextEv
                0x00000000       0x1a C:\Nburn/lib/DBNetBurner.a(ipv6_extensions.od)
 .text._ZN13IPv6Interface11FirstPrefixEv
                0x00000000       0x1c C:\Nburn/lib/DBNetBurner.a(ipv6_extensions.od)
 .group         0x00000000        0x8 C:\Nburn/lib/DBNetBurner.a(ipv6_multicast.od)
 .group         0x00000000        0x8 C:\Nburn/lib/DBNetBurner.a(ipv6_multicast.od)
 .group         0x00000000        0x8 C:\Nburn/lib/DBNetBurner.a(ipv6_multicast.od)
 .group         0x00000000        0x8 C:\Nburn/lib/DBNetBurner.a(ipv6_multicast.od)
 .group         0x00000000        0x8 C:\Nburn/lib/DBNetBurner.a(ipv6_multicast.od)
 .group         0x00000000        0x8 C:\Nburn/lib/DBNetBurner.a(ipv6_multicast.od)
 .group         0x00000000        0x8 C:\Nburn/lib/DBNetBurner.a(ipv6_multicast.od)
 .group         0x00000000        0x8 C:\Nburn/lib/DBNetBurner.a(ipv6_multicast.od)
 .group         0x00000000        0x8 C:\Nburn/lib/DBNetBurner.a(ipv6_multicast.od)
 .group         0x00000000        0x8 C:\Nburn/lib/DBNetBurner.a(ipv6_multicast.od)
 .group         0x00000000        0x8 C:\Nburn/lib/DBNetBurner.a(ipv6_multicast.od)
 .group         0x00000000        0x8 C:\Nburn/lib/DBNetBurner.a(ipv6_multicast.od)
 .group         0x00000000        0x8 C:\Nburn/lib/DBNetBurner.a(ipv6_multicast.od)
 .group         0x00000000        0x8 C:\Nburn/lib/DBNetBurner.a(ipv6_multicast.od)
 .group         0x00000000        0x8 C:\Nburn/lib/DBNetBurner.a(ipv6_multicast.od)
 .data          0x00000000        0x0 C:\Nburn/lib/DBNetBurner.a(ipv6_multicast.od)
 .text._ZN7IPADDR4aSEm
                0x00000000       0x14 C:\Nburn/lib/DBNetBurner.a(ipv6_multicast.od)
 .text._ZNK7IPADDR4cvmEv
                0x00000000        0xe C:\Nburn/lib/DBNetBurner.a(ipv6_multicast.od)
 .text._ZN7IPADDR4C2Ev
                0x00000000       0x10 C:\Nburn/lib/DBNetBurner.a(ipv6_multicast.od)
 .text._ZN7IPADDR4C2Em
                0x00000000       0x12 C:\Nburn/lib/DBNetBurner.a(ipv6_multicast.od)
 .text._ZN7IPADDR6aSERKS_
                0x00000000       0x48 C:\Nburn/lib/DBNetBurner.a(ipv6_multicast.od)
 .text._ZNK7IPADDR614IsEmbeddedIPV4Ev
                0x00000000       0x34 C:\Nburn/lib/DBNetBurner.a(ipv6_multicast.od)
 .text._ZNK7IPADDR68Extract4Ev
                0x00000000       0x34 C:\Nburn/lib/DBNetBurner.a(ipv6_multicast.od)
 .text._ZN7IPADDR6aSE7IPADDR4
                0x00000000       0x3c C:\Nburn/lib/DBNetBurner.a(ipv6_multicast.od)
 .text._ZN7IPADDR6C2ERKS_
                0x00000000       0x1a C:\Nburn/lib/DBNetBurner.a(ipv6_multicast.od)
 .text._Zeq7IPADDR6S_
                0x00000000       0x5a C:\Nburn/lib/DBNetBurner.a(ipv6_multicast.od)
 .text._Z11OSCritEnterP7OS_CRITt
                0x00000000       0x24 C:\Nburn/lib/DBNetBurner.a(ipv6_multicast.od)
 .text._Z11OSCritLeaveP7OS_CRIT
                0x00000000       0x14 C:\Nburn/lib/DBNetBurner.a(ipv6_multicast.od)
 .text._ZN20OSCriticalSectionObjC2ER7OS_CRIT
                0x00000000       0x20 C:\Nburn/lib/DBNetBurner.a(ipv6_multicast.od)
 .text._ZN20OSCriticalSectionObjD2Ev
                0x00000000       0x1a C:\Nburn/lib/DBNetBurner.a(ipv6_multicast.od)
 .text._ZN13IPv6Interface18GetInterfaceNumberEv
                0x00000000        0xe C:\Nburn/lib/DBNetBurner.a(ipv6_multicast.od)
 .group         0x00000000        0x8 C:\Nburn/lib/DBNetBurner.a(ipv6_show.od)
 .group         0x00000000        0x8 C:\Nburn/lib/DBNetBurner.a(ipv6_show.od)
 .group         0x00000000        0x8 C:\Nburn/lib/DBNetBurner.a(ipv6_show.od)
 .group         0x00000000        0x8 C:\Nburn/lib/DBNetBurner.a(ipv6_show.od)
 .group         0x00000000        0x8 C:\Nburn/lib/DBNetBurner.a(ipv6_show.od)
 .group         0x00000000        0x8 C:\Nburn/lib/DBNetBurner.a(ipv6_show.od)
 .group         0x00000000        0x8 C:\Nburn/lib/DBNetBurner.a(ipv6_show.od)
 .group         0x00000000        0x8 C:\Nburn/lib/DBNetBurner.a(ipv6_show.od)
 .data          0x00000000        0x0 C:\Nburn/lib/DBNetBurner.a(ipv6_show.od)
 .bss           0x00000000        0x0 C:\Nburn/lib/DBNetBurner.a(ipv6_show.od)
 .text._Z11OSCritEnterP7OS_CRITt
                0x00000000       0x24 C:\Nburn/lib/DBNetBurner.a(ipv6_show.od)
 .text._Z11OSCritLeaveP7OS_CRIT
                0x00000000       0x14 C:\Nburn/lib/DBNetBurner.a(ipv6_show.od)
 .text._ZN20OSCriticalSectionObjC2ER7OS_CRIT
                0x00000000       0x20 C:\Nburn/lib/DBNetBurner.a(ipv6_show.od)
 .text._ZN20OSCriticalSectionObjD2Ev
                0x00000000       0x1a C:\Nburn/lib/DBNetBurner.a(ipv6_show.od)
 .text._ZN11IPV6_PREFIX18RemainingValidTimeEv
                0x00000000       0x5a C:\Nburn/lib/DBNetBurner.a(ipv6_show.od)
 .text._ZN13IPV6_NEIGHBOR8GetStateEv
                0x00000000       0x10 C:\Nburn/lib/DBNetBurner.a(ipv6_show.od)
 .group         0x00000000        0x8 C:\Nburn/lib/DBNetBurner.a(ipv6_dhcp.od)
 .group         0x00000000        0x8 C:\Nburn/lib/DBNetBurner.a(ipv6_dhcp.od)
 .group         0x00000000        0x8 C:\Nburn/lib/DBNetBurner.a(ipv6_dhcp.od)
 .group         0x00000000        0x8 C:\Nburn/lib/DBNetBurner.a(ipv6_dhcp.od)
 .group         0x00000000        0x8 C:\Nburn/lib/DBNetBurner.a(ipv6_dhcp.od)
 .group         0x00000000        0x8 C:\Nburn/lib/DBNetBurner.a(ipv6_dhcp.od)
 .group         0x00000000        0x8 C:\Nburn/lib/DBNetBurner.a(ipv6_dhcp.od)
 .group         0x00000000        0x8 C:\Nburn/lib/DBNetBurner.a(ipv6_dhcp.od)
 .group         0x00000000        0x8 C:\Nburn/lib/DBNetBurner.a(ipv6_dhcp.od)
 .group         0x00000000        0x8 C:\Nburn/lib/DBNetBurner.a(ipv6_dhcp.od)
 .group         0x00000000        0x8 C:\Nburn/lib/DBNetBurner.a(ipv6_dhcp.od)
 .group         0x00000000        0x8 C:\Nburn/lib/DBNetBurner.a(ipv6_dhcp.od)
 .group         0x00000000        0x8 C:\Nburn/lib/DBNetBurner.a(ipv6_dhcp.od)
 .group         0x00000000        0x8 C:\Nburn/lib/DBNetBurner.a(ipv6_dhcp.od)
 .group         0x00000000        0x8 C:\Nburn/lib/DBNetBurner.a(ipv6_dhcp.od)
 .group         0x00000000        0x8 C:\Nburn/lib/DBNetBurner.a(ipv6_dhcp.od)
 .group         0x00000000        0x8 C:\Nburn/lib/DBNetBurner.a(ipv6_dhcp.od)
 .group         0x00000000        0x8 C:\Nburn/lib/DBNetBurner.a(ipv6_dhcp.od)
 .group         0x00000000        0x8 C:\Nburn/lib/DBNetBurner.a(ipv6_dhcp.od)
 .group         0x00000000        0x8 C:\Nburn/lib/DBNetBurner.a(ipv6_dhcp.od)
 .group         0x00000000        0x8 C:\Nburn/lib/DBNetBurner.a(ipv6_dhcp.od)
 .group         0x00000000        0x8 C:\Nburn/lib/DBNetBurner.a(ipv6_dhcp.od)
 .data          0x00000000        0x0 C:\Nburn/lib/DBNetBurner.a(ipv6_dhcp.od)
 .text._ZN7IPADDR6aSERKS_
                0x00000000       0x48 C:\Nburn/lib/DBNetBurner.a(ipv6_dhcp.od)
 .text._ZN7IPADDR6C2ERKS_
                0x00000000       0x1a C:\Nburn/lib/DBNetBurner.a(ipv6_dhcp.od)
 .text._Zeq7IPADDR6S_
                0x00000000       0x5a C:\Nburn/lib/DBNetBurner.a(ipv6_dhcp.od)
 .text._ZN9UDPPacket16GetSourceAddressEv
                0x00000000       0x22 C:\Nburn/lib/DBNetBurner.a(ipv6_dhcp.od)
 .text._ZN9UDPPacket13ReleaseBufferEv
                0x00000000       0x20 C:\Nburn/lib/DBNetBurner.a(ipv6_dhcp.od)
 .text._ZN9UDPPacket10GetPoolPtrEv
                0x00000000        0xe C:\Nburn/lib/DBNetBurner.a(ipv6_dhcp.od)
 .text._ZN11IPV6_PREFIX18RemainingValidTimeEv
                0x00000000       0x5a C:\Nburn/lib/DBNetBurner.a(ipv6_dhcp.od)
 .text._ZN13IPv6Interface10FindPrefixERK7IPADDR6b
                0x00000000       0x32 C:\Nburn/lib/DBNetBurner.a(ipv6_dhcp.od)
 .text._ZN13IPv6Interface11FirstPrefixEv
                0x00000000       0x1c C:\Nburn/lib/DBNetBurner.a(ipv6_dhcp.od)
 .group         0x00000000        0x8 C:\Nburn/lib/DBNetBurner.a(multicast.od)
 .group         0x00000000        0x8 C:\Nburn/lib/DBNetBurner.a(multicast.od)
 .group         0x00000000        0x8 C:\Nburn/lib/DBNetBurner.a(multicast.od)
 .group         0x00000000        0x8 C:\Nburn/lib/DBNetBurner.a(multicast.od)
 .group         0x00000000        0x8 C:\Nburn/lib/DBNetBurner.a(multicast.od)
 .group         0x00000000        0x8 C:\Nburn/lib/DBNetBurner.a(multicast.od)
 .group         0x00000000        0x8 C:\Nburn/lib/DBNetBurner.a(multicast.od)
 .group         0x00000000        0x8 C:\Nburn/lib/DBNetBurner.a(multicast.od)
 .group         0x00000000        0x8 C:\Nburn/lib/DBNetBurner.a(multicast.od)
 .group         0x00000000        0x8 C:\Nburn/lib/DBNetBurner.a(multicast.od)
 .group         0x00000000        0x8 C:\Nburn/lib/DBNetBurner.a(multicast.od)
 .group         0x00000000        0x8 C:\Nburn/lib/DBNetBurner.a(multicast.od)
 .group         0x00000000        0x8 C:\Nburn/lib/DBNetBurner.a(multicast.od)
 .group         0x00000000        0x8 C:\Nburn/lib/DBNetBurner.a(multicast.od)
 .group         0x00000000        0x8 C:\Nburn/lib/DBNetBurner.a(multicast.od)
 .group         0x00000000        0x8 C:\Nburn/lib/DBNetBurner.a(multicast.od)
 .group         0x00000000        0x8 C:\Nburn/lib/DBNetBurner.a(multicast.od)
 .group         0x00000000        0x8 C:\Nburn/lib/DBNetBurner.a(multicast.od)
 .group         0x00000000        0x8 C:\Nburn/lib/DBNetBurner.a(multicast.od)
 .group         0x00000000        0x8 C:\Nburn/lib/DBNetBurner.a(multicast.od)
 .group         0x00000000        0x8 C:\Nburn/lib/DBNetBurner.a(multicast.od)
 .group         0x00000000        0x8 C:\Nburn/lib/DBNetBurner.a(multicast.od)
 .group         0x00000000        0x8 C:\Nburn/lib/DBNetBurner.a(multicast.od)
 .group         0x00000000        0x8 C:\Nburn/lib/DBNetBurner.a(multicast.od)
 .group         0x00000000        0x8 C:\Nburn/lib/DBNetBurner.a(multicast.od)
 .group         0x00000000        0x8 C:\Nburn/lib/DBNetBurner.a(multicast.od)
 .group         0x00000000        0x8 C:\Nburn/lib/DBNetBurner.a(multicast.od)
 .group         0x00000000        0x8 C:\Nburn/lib/DBNetBurner.a(multicast.od)
 .data          0x00000000        0x0 C:\Nburn/lib/DBNetBurner.a(multicast.od)
 .text._ZN7OS_CRITC2Ev
                0x00000000       0x24 C:\Nburn/lib/DBNetBurner.a(multicast.od)
 .text._Z10OSFifoPostP7OS_FIFOP10os_fifo_el
                0x00000000       0x18 C:\Nburn/lib/DBNetBurner.a(multicast.od)
 .text._Z11OSCritEnterP7OS_CRITt
                0x00000000       0x24 C:\Nburn/lib/DBNetBurner.a(multicast.od)
 .text._Z11OSCritLeaveP7OS_CRIT
                0x00000000       0x14 C:\Nburn/lib/DBNetBurner.a(multicast.od)
 .text._ZN20OSCriticalSectionObjC2ER7OS_CRIT
                0x00000000       0x20 C:\Nburn/lib/DBNetBurner.a(multicast.od)
 .text._ZN20OSCriticalSectionObjD2Ev
                0x00000000       0x1a C:\Nburn/lib/DBNetBurner.a(multicast.od)
 .text._ZN7IPADDR4aSERKS_
                0x00000000       0x18 C:\Nburn/lib/DBNetBurner.a(multicast.od)
 .text._ZN7IPADDR4aSEm
                0x00000000       0x14 C:\Nburn/lib/DBNetBurner.a(multicast.od)
 .text._ZNK7IPADDR4cvmEv
                0x00000000        0xe C:\Nburn/lib/DBNetBurner.a(multicast.od)
 .text._ZNK7IPADDR46IsNullEv
                0x00000000       0x16 C:\Nburn/lib/DBNetBurner.a(multicast.od)
 .text._ZN7IPADDR4C2Ev
                0x00000000       0x10 C:\Nburn/lib/DBNetBurner.a(multicast.od)
 .text._ZN7IPADDR4C2ERKS_
                0x00000000       0x16 C:\Nburn/lib/DBNetBurner.a(multicast.od)
 .text._ZN7IPADDR4C2Em
                0x00000000       0x12 C:\Nburn/lib/DBNetBurner.a(multicast.od)
 .text._ZNK7IPADDR48McastMacEv
                0x00000000       0x48 C:\Nburn/lib/DBNetBurner.a(multicast.od)
 .text._ZN7IPADDR6aSERKS_
                0x00000000       0x48 C:\Nburn/lib/DBNetBurner.a(multicast.od)
 .text._ZNK7IPADDR614IsEmbeddedIPV4Ev
                0x00000000       0x34 C:\Nburn/lib/DBNetBurner.a(multicast.od)
 .text._ZNK7IPADDR68Extract4Ev
                0x00000000       0x34 C:\Nburn/lib/DBNetBurner.a(multicast.od)
 .text._ZN7IPADDR6aSE7IPADDR4
                0x00000000       0x3c C:\Nburn/lib/DBNetBurner.a(multicast.od)
 .text._ZN7IPADDR67SetNullEv
                0x00000000       0x28 C:\Nburn/lib/DBNetBurner.a(multicast.od)
 .text._ZN7IPADDR6C2Ev
                0x00000000       0x16 C:\Nburn/lib/DBNetBurner.a(multicast.od)
 .text._ZN7IPADDR6C2E7IPADDR4
                0x00000000       0x2e C:\Nburn/lib/DBNetBurner.a(multicast.od)
 .text._ZN7IPADDR6C2ERKS_
                0x00000000       0x1a C:\Nburn/lib/DBNetBurner.a(multicast.od)
 .text._Zeq7IPADDR6S_
                0x00000000       0x5a C:\Nburn/lib/DBNetBurner.a(multicast.od)
 .text._Z14OSPoolFifoPostP7OS_FIFOP11pool_buffer
                0x00000000       0x18 C:\Nburn/lib/DBNetBurner.a(multicast.od)
 .text._Z8GetIpPktP11pool_buffer
                0x00000000       0x22 C:\Nburn/lib/DBNetBurner.a(multicast.od)
 .text._Z9GetUdpPktP5IPPKT
                0x00000000       0x58 C:\Nburn/lib/DBNetBurner.a(multicast.od)
 .text._ZN12PsudeoHeaderC2Ev
                0x00000000       0x2a C:\Nburn/lib/DBNetBurner.a(multicast.od)
 .group         0x00000000        0x8 C:\Nburn/lib/DBNetBurner.a(random.od)
 .group         0x00000000        0x8 C:\Nburn/lib/DBNetBurner.a(random.od)
 .group         0x00000000        0x8 C:\Nburn/lib/DBNetBurner.a(random.od)
 .group         0x00000000        0x8 C:\Nburn/lib/DBNetBurner.a(random.od)
 .group         0x00000000        0x8 C:\Nburn/lib/DBNetBurner.a(random.od)
 .data          0x00000000        0x0 C:\Nburn/lib/DBNetBurner.a(random.od)
 .data          0x00000000        0x0 C:\Nburn/lib/DBNetBurner.a(nbfloatprint.od)
 .bss           0x00000000        0x0 C:\Nburn/lib/DBNetBurner.a(nbfloatprint.od)
 .data          0x00000000        0x0 C:\Nburn/lib/DBNetBurner.a(fdiprintf.od)
 .bss           0x00000000        0x0 C:\Nburn/lib/DBNetBurner.a(fdiprintf.od)
 .group         0x00000000        0x8 C:\Nburn/lib/DBNetBurner.a(md5c.od)
 .group         0x00000000        0x8 C:\Nburn/lib/DBNetBurner.a(md5c.od)
 .bss           0x00000000        0x0 C:\Nburn/lib/DBNetBurner.a(md5c.od)
 .text._ZN8HASH_CTXC2Ev
                0x00000000        0xa C:\Nburn/lib/DBNetBurner.a(md5c.od)
 .text          0x00000000        0x0 c:/nburn/gcc-m68k/bin/../m68k-unknown-elf/sysroot/lib/m54455\libstdc++.a(pure.o)
 .data          0x00000000        0x0 c:/nburn/gcc-m68k/bin/../m68k-unknown-elf/sysroot/lib/m54455\libstdc++.a(pure.o)
 .bss           0x00000000        0x0 c:/nburn/gcc-m68k/bin/../m68k-unknown-elf/sysroot/lib/m54455\libstdc++.a(pure.o)
 .text.__cxa_deleted_virtual
                0x00000000       0x1e c:/nburn/gcc-m68k/bin/../m68k-unknown-elf/sysroot/lib/m54455\libstdc++.a(pure.o)
 .text          0x00000000        0x0 c:/nburn/gcc-m68k/bin/../m68k-unknown-elf/sysroot/lib/m54455\libstdc++.a(eh_terminate.o)
 .data          0x00000000        0x0 c:/nburn/gcc-m68k/bin/../m68k-unknown-elf/sysroot/lib/m54455\libstdc++.a(eh_terminate.o)
 .bss           0x00000000        0x0 c:/nburn/gcc-m68k/bin/../m68k-unknown-elf/sysroot/lib/m54455\libstdc++.a(eh_terminate.o)
 .text._ZSt13set_terminatePFvvE
                0x00000000       0x18 c:/nburn/gcc-m68k/bin/../m68k-unknown-elf/sysroot/lib/m54455\libstdc++.a(eh_terminate.o)
 .text._ZSt14set_unexpectedPFvvE
                0x00000000       0x18 c:/nburn/gcc-m68k/bin/../m68k-unknown-elf/sysroot/lib/m54455\libstdc++.a(eh_terminate.o)
 .text          0x00000000        0x0 c:/nburn/gcc-m68k/bin/../m68k-unknown-elf/sysroot/lib/m54455\libstdc++.a(del_op.o)
 .data          0x00000000        0x0 c:/nburn/gcc-m68k/bin/../m68k-unknown-elf/sysroot/lib/m54455\libstdc++.a(del_op.o)
 .bss           0x00000000        0x0 c:/nburn/gcc-m68k/bin/../m68k-unknown-elf/sysroot/lib/m54455\libstdc++.a(del_op.o)
 .text          0x00000000        0x0 c:/nburn/gcc-m68k/bin/../m68k-unknown-elf/sysroot/lib/m54455\libstdc++.a(del_ops.o)
 .data          0x00000000        0x0 c:/nburn/gcc-m68k/bin/../m68k-unknown-elf/sysroot/lib/m54455\libstdc++.a(del_ops.o)
 .bss           0x00000000        0x0 c:/nburn/gcc-m68k/bin/../m68k-unknown-elf/sysroot/lib/m54455\libstdc++.a(del_ops.o)
 .text          0x00000000        0x0 c:/nburn/gcc-m68k/bin/../m68k-unknown-elf/sysroot/lib/m54455\libstdc++.a(eh_unex_handler.o)
 .data          0x00000000        0x0 c:/nburn/gcc-m68k/bin/../m68k-unknown-elf/sysroot/lib/m54455\libstdc++.a(eh_unex_handler.o)
 .bss           0x00000000        0x0 c:/nburn/gcc-m68k/bin/../m68k-unknown-elf/sysroot/lib/m54455\libstdc++.a(eh_unex_handler.o)
 .text          0x00000000        0x0 c:/nburn/gcc-m68k/bin/../m68k-unknown-elf/sysroot/lib/m54455\libstdc++.a(eh_term_handler.o)
 .data          0x00000000        0x0 c:/nburn/gcc-m68k/bin/../m68k-unknown-elf/sysroot/lib/m54455\libstdc++.a(eh_term_handler.o)
 .bss           0x00000000        0x0 c:/nburn/gcc-m68k/bin/../m68k-unknown-elf/sysroot/lib/m54455\libstdc++.a(eh_term_handler.o)
 .text          0x00000000        0x0 c:/nburn/gcc-m68k/bin/../m68k-unknown-elf/sysroot/lib/m54455\libstdc++.a(eh_catch.o)
 .data          0x00000000        0x0 c:/nburn/gcc-m68k/bin/../m68k-unknown-elf/sysroot/lib/m54455\libstdc++.a(eh_catch.o)
 .bss           0x00000000        0x0 c:/nburn/gcc-m68k/bin/../m68k-unknown-elf/sysroot/lib/m54455\libstdc++.a(eh_catch.o)
 .text.__cxa_get_exception_ptr
                0x00000000       0x10 c:/nburn/gcc-m68k/bin/../m68k-unknown-elf/sysroot/lib/m54455\libstdc++.a(eh_catch.o)
 .text._ZSt18uncaught_exceptionv
                0x00000000       0x18 c:/nburn/gcc-m68k/bin/../m68k-unknown-elf/sysroot/lib/m54455\libstdc++.a(eh_catch.o)
 .text          0x00000000        0x0 c:/nburn/gcc-m68k/bin/../m68k-unknown-elf/sysroot/lib/m54455\libstdc++.a(eh_personality.o)
 .data          0x00000000        0x0 c:/nburn/gcc-m68k/bin/../m68k-unknown-elf/sysroot/lib/m54455\libstdc++.a(eh_personality.o)
 .bss           0x00000000        0x0 c:/nburn/gcc-m68k/bin/../m68k-unknown-elf/sysroot/lib/m54455\libstdc++.a(eh_personality.o)
 .group         0x00000000        0x8 c:/nburn/gcc-m68k/bin/../m68k-unknown-elf/sysroot/lib/m54455\libstdc++.a(eh_exception.o)
 .group         0x00000000        0x8 c:/nburn/gcc-m68k/bin/../m68k-unknown-elf/sysroot/lib/m54455\libstdc++.a(eh_exception.o)
 .group         0x00000000        0x8 c:/nburn/gcc-m68k/bin/../m68k-unknown-elf/sysroot/lib/m54455\libstdc++.a(eh_exception.o)
 .group         0x00000000        0x8 c:/nburn/gcc-m68k/bin/../m68k-unknown-elf/sysroot/lib/m54455\libstdc++.a(eh_exception.o)
 .group         0x00000000        0x8 c:/nburn/gcc-m68k/bin/../m68k-unknown-elf/sysroot/lib/m54455\libstdc++.a(eh_exception.o)
 .group         0x00000000        0x8 c:/nburn/gcc-m68k/bin/../m68k-unknown-elf/sysroot/lib/m54455\libstdc++.a(eh_exception.o)
 .group         0x00000000        0x8 c:/nburn/gcc-m68k/bin/../m68k-unknown-elf/sysroot/lib/m54455\libstdc++.a(eh_exception.o)
 .group         0x00000000        0x8 c:/nburn/gcc-m68k/bin/../m68k-unknown-elf/sysroot/lib/m54455\libstdc++.a(eh_exception.o)
 .group         0x00000000        0x8 c:/nburn/gcc-m68k/bin/../m68k-unknown-elf/sysroot/lib/m54455\libstdc++.a(eh_exception.o)
 .group         0x00000000        0x8 c:/nburn/gcc-m68k/bin/../m68k-unknown-elf/sysroot/lib/m54455\libstdc++.a(eh_exception.o)
 .group         0x00000000        0x8 c:/nburn/gcc-m68k/bin/../m68k-unknown-elf/sysroot/lib/m54455\libstdc++.a(eh_exception.o)
 .group         0x00000000        0x8 c:/nburn/gcc-m68k/bin/../m68k-unknown-elf/sysroot/lib/m54455\libstdc++.a(eh_exception.o)
 .text          0x00000000        0x0 c:/nburn/gcc-m68k/bin/../m68k-unknown-elf/sysroot/lib/m54455\libstdc++.a(eh_exception.o)
 .data          0x00000000        0x0 c:/nburn/gcc-m68k/bin/../m68k-unknown-elf/sysroot/lib/m54455\libstdc++.a(eh_exception.o)
 .bss           0x00000000        0x0 c:/nburn/gcc-m68k/bin/../m68k-unknown-elf/sysroot/lib/m54455\libstdc++.a(eh_exception.o)
 .text._ZNSt9exceptionD2Ev
                0x00000000        0x8 c:/nburn/gcc-m68k/bin/../m68k-unknown-elf/sysroot/lib/m54455\libstdc++.a(eh_exception.o)
 .text._ZNKSt9exception4whatEv
                0x00000000        0xe c:/nburn/gcc-m68k/bin/../m68k-unknown-elf/sysroot/lib/m54455\libstdc++.a(eh_exception.o)
 .text._ZNSt9exceptionD0Ev
                0x00000000        0xc c:/nburn/gcc-m68k/bin/../m68k-unknown-elf/sysroot/lib/m54455\libstdc++.a(eh_exception.o)
 .text._ZN10__cxxabiv115__forced_unwindD2Ev
                0x00000000        0x8 c:/nburn/gcc-m68k/bin/../m68k-unknown-elf/sysroot/lib/m54455\libstdc++.a(eh_exception.o)
 .text._ZN10__cxxabiv115__forced_unwindD0Ev
                0x00000000        0xc c:/nburn/gcc-m68k/bin/../m68k-unknown-elf/sysroot/lib/m54455\libstdc++.a(eh_exception.o)
 .text._ZN10__cxxabiv119__foreign_exceptionD2Ev
                0x00000000        0x8 c:/nburn/gcc-m68k/bin/../m68k-unknown-elf/sysroot/lib/m54455\libstdc++.a(eh_exception.o)
 .text._ZN10__cxxabiv119__foreign_exceptionD0Ev
                0x00000000        0xc c:/nburn/gcc-m68k/bin/../m68k-unknown-elf/sysroot/lib/m54455\libstdc++.a(eh_exception.o)
 .rodata._ZTVSt9exception
                0x00000000       0x14 c:/nburn/gcc-m68k/bin/../m68k-unknown-elf/sysroot/lib/m54455\libstdc++.a(eh_exception.o)
 .rodata._ZTVN10__cxxabiv115__forced_unwindE
                0x00000000       0x14 c:/nburn/gcc-m68k/bin/../m68k-unknown-elf/sysroot/lib/m54455\libstdc++.a(eh_exception.o)
 .rodata._ZTVN10__cxxabiv119__foreign_exceptionE
                0x00000000       0x14 c:/nburn/gcc-m68k/bin/../m68k-unknown-elf/sysroot/lib/m54455\libstdc++.a(eh_exception.o)
 .text          0x00000000        0x0 c:/nburn/gcc-m68k/bin/../m68k-unknown-elf/sysroot/lib/m54455\libstdc++.a(eh_globals.o)
 .data          0x00000000        0x0 c:/nburn/gcc-m68k/bin/../m68k-unknown-elf/sysroot/lib/m54455\libstdc++.a(eh_globals.o)
 .bss           0x00000000        0x0 c:/nburn/gcc-m68k/bin/../m68k-unknown-elf/sysroot/lib/m54455\libstdc++.a(eh_globals.o)
 .text          0x00000000        0x0 c:/nburn/gcc-m68k/bin/../m68k-unknown-elf/sysroot/lib/m54455\libstdc++.a(vterminate.o)
 .data          0x00000000        0x0 c:/nburn/gcc-m68k/bin/../m68k-unknown-elf/sysroot/lib/m54455\libstdc++.a(vterminate.o)
 .bss           0x00000000        0x0 c:/nburn/gcc-m68k/bin/../m68k-unknown-elf/sysroot/lib/m54455\libstdc++.a(vterminate.o)
 .text          0x00000000        0x0 c:/nburn/gcc-m68k/bin/../m68k-unknown-elf/sysroot/lib/m54455\libstdc++.a(eh_alloc.o)
 .data          0x00000000        0x0 c:/nburn/gcc-m68k/bin/../m68k-unknown-elf/sysroot/lib/m54455\libstdc++.a(eh_alloc.o)
 .bss           0x00000000        0x0 c:/nburn/gcc-m68k/bin/../m68k-unknown-elf/sysroot/lib/m54455\libstdc++.a(eh_alloc.o)
 .text.__cxa_allocate_dependent_exception
                0x00000000       0x44 c:/nburn/gcc-m68k/bin/../m68k-unknown-elf/sysroot/lib/m54455\libstdc++.a(eh_alloc.o)
 .text.__cxa_free_dependent_exception
                0x00000000       0x34 c:/nburn/gcc-m68k/bin/../m68k-unknown-elf/sysroot/lib/m54455\libstdc++.a(eh_alloc.o)
 .data          0x00000000        0x0 c:/nburn/gcc-m68k/bin/../m68k-unknown-elf/sysroot/lib/m54455\libstdc++.a(cp-demangle.o)
 .bss           0x00000000        0x0 c:/nburn/gcc-m68k/bin/../m68k-unknown-elf/sysroot/lib/m54455\libstdc++.a(cp-demangle.o)
 .text          0x00000000        0x0 c:/nburn/gcc-m68k/bin/../m68k-unknown-elf/sysroot/lib/m54455\libstdc++.a(eh_throw.o)
 .data          0x00000000        0x0 c:/nburn/gcc-m68k/bin/../m68k-unknown-elf/sysroot/lib/m54455\libstdc++.a(eh_throw.o)
 .bss           0x00000000        0x0 c:/nburn/gcc-m68k/bin/../m68k-unknown-elf/sysroot/lib/m54455\libstdc++.a(eh_throw.o)
 .text          0x00000000        0x0 c:/nburn/gcc-m68k/bin/../m68k-unknown-elf/sysroot/lib/m54455\libstdc++.a(eh_type.o)
 .data          0x00000000        0x0 c:/nburn/gcc-m68k/bin/../m68k-unknown-elf/sysroot/lib/m54455\libstdc++.a(eh_type.o)
 .bss           0x00000000        0x0 c:/nburn/gcc-m68k/bin/../m68k-unknown-elf/sysroot/lib/m54455\libstdc++.a(eh_type.o)
 .group         0x00000000        0x8 c:/nburn/gcc-m68k/bin/../m68k-unknown-elf/sysroot/lib/m54455\libstdc++.a(si_class_type_info.o)
 .group         0x00000000        0x8 c:/nburn/gcc-m68k/bin/../m68k-unknown-elf/sysroot/lib/m54455\libstdc++.a(si_class_type_info.o)
 .group         0x00000000        0x8 c:/nburn/gcc-m68k/bin/../m68k-unknown-elf/sysroot/lib/m54455\libstdc++.a(si_class_type_info.o)
 .text          0x00000000        0x0 c:/nburn/gcc-m68k/bin/../m68k-unknown-elf/sysroot/lib/m54455\libstdc++.a(si_class_type_info.o)
 .data          0x00000000        0x0 c:/nburn/gcc-m68k/bin/../m68k-unknown-elf/sysroot/lib/m54455\libstdc++.a(si_class_type_info.o)
 .bss           0x00000000        0x0 c:/nburn/gcc-m68k/bin/../m68k-unknown-elf/sysroot/lib/m54455\libstdc++.a(si_class_type_info.o)
 .text          0x00000000        0x0 c:/nburn/gcc-m68k/bin/../m68k-unknown-elf/sysroot/lib/m54455\libstdc++.a(eh_call.o)
 .data          0x00000000        0x0 c:/nburn/gcc-m68k/bin/../m68k-unknown-elf/sysroot/lib/m54455\libstdc++.a(eh_call.o)
 .bss           0x00000000        0x0 c:/nburn/gcc-m68k/bin/../m68k-unknown-elf/sysroot/lib/m54455\libstdc++.a(eh_call.o)
 .group         0x00000000        0x8 c:/nburn/gcc-m68k/bin/../m68k-unknown-elf/sysroot/lib/m54455\libstdc++.a(class_type_info.o)
 .group         0x00000000        0x8 c:/nburn/gcc-m68k/bin/../m68k-unknown-elf/sysroot/lib/m54455\libstdc++.a(class_type_info.o)
 .group         0x00000000        0x8 c:/nburn/gcc-m68k/bin/../m68k-unknown-elf/sysroot/lib/m54455\libstdc++.a(class_type_info.o)
 .text          0x00000000        0x0 c:/nburn/gcc-m68k/bin/../m68k-unknown-elf/sysroot/lib/m54455\libstdc++.a(class_type_info.o)
 .data          0x00000000        0x0 c:/nburn/gcc-m68k/bin/../m68k-unknown-elf/sysroot/lib/m54455\libstdc++.a(class_type_info.o)
 .bss           0x00000000        0x0 c:/nburn/gcc-m68k/bin/../m68k-unknown-elf/sysroot/lib/m54455\libstdc++.a(class_type_info.o)
 .group         0x00000000        0x8 c:/nburn/gcc-m68k/bin/../m68k-unknown-elf/sysroot/lib/m54455\libstdc++.a(tinfo.o)
 .group         0x00000000        0x8 c:/nburn/gcc-m68k/bin/../m68k-unknown-elf/sysroot/lib/m54455\libstdc++.a(tinfo.o)
 .group         0x00000000        0x8 c:/nburn/gcc-m68k/bin/../m68k-unknown-elf/sysroot/lib/m54455\libstdc++.a(tinfo.o)
 .text          0x00000000        0x0 c:/nburn/gcc-m68k/bin/../m68k-unknown-elf/sysroot/lib/m54455\libstdc++.a(tinfo.o)
 .data          0x00000000        0x0 c:/nburn/gcc-m68k/bin/../m68k-unknown-elf/sysroot/lib/m54455\libstdc++.a(tinfo.o)
 .bss           0x00000000        0x0 c:/nburn/gcc-m68k/bin/../m68k-unknown-elf/sysroot/lib/m54455\libstdc++.a(tinfo.o)
 .text._ZNKSt9type_info11__do_upcastEPKN10__cxxabiv117__class_type_infoEPPv
                0x00000000        0xa c:/nburn/gcc-m68k/bin/../m68k-unknown-elf/sysroot/lib/m54455\libstdc++.a(tinfo.o)
 .text._ZNSt9type_infoD0Ev
                0x00000000        0xc c:/nburn/gcc-m68k/bin/../m68k-unknown-elf/sysroot/lib/m54455\libstdc++.a(tinfo.o)
 .text._ZNKSt9type_info10__do_catchEPKS_PPvj
                0x00000000       0x44 c:/nburn/gcc-m68k/bin/../m68k-unknown-elf/sysroot/lib/m54455\libstdc++.a(tinfo.o)
 .rodata._ZTVSt9type_info
                0x00000000       0x20 c:/nburn/gcc-m68k/bin/../m68k-unknown-elf/sysroot/lib/m54455\libstdc++.a(tinfo.o)
 .data          0x00000000        0x0 c:/nburn/gcc-m68k/bin/../m68k-unknown-elf/sysroot/lib/m54455\libm.a(lib_a-s_cos.o)
 .bss           0x00000000        0x0 c:/nburn/gcc-m68k/bin/../m68k-unknown-elf/sysroot/lib/m54455\libm.a(lib_a-s_cos.o)
 .data          0x00000000        0x0 c:/nburn/gcc-m68k/bin/../m68k-unknown-elf/sysroot/lib/m54455\libm.a(lib_a-s_fpclassify.o)
 .bss           0x00000000        0x0 c:/nburn/gcc-m68k/bin/../m68k-unknown-elf/sysroot/lib/m54455\libm.a(lib_a-s_fpclassify.o)
 .data          0x00000000        0x0 c:/nburn/gcc-m68k/bin/../m68k-unknown-elf/sysroot/lib/m54455\libm.a(lib_a-s_modf.o)
 .bss           0x00000000        0x0 c:/nburn/gcc-m68k/bin/../m68k-unknown-elf/sysroot/lib/m54455\libm.a(lib_a-s_modf.o)
 .data          0x00000000        0x0 c:/nburn/gcc-m68k/bin/../m68k-unknown-elf/sysroot/lib/m54455\libm.a(lib_a-s_round.o)
 .bss           0x00000000        0x0 c:/nburn/gcc-m68k/bin/../m68k-unknown-elf/sysroot/lib/m54455\libm.a(lib_a-s_round.o)
 .data          0x00000000        0x0 c:/nburn/gcc-m68k/bin/../m68k-unknown-elf/sysroot/lib/m54455\libm.a(lib_a-s_sin.o)
 .bss           0x00000000        0x0 c:/nburn/gcc-m68k/bin/../m68k-unknown-elf/sysroot/lib/m54455\libm.a(lib_a-s_sin.o)
 .data          0x00000000        0x0 c:/nburn/gcc-m68k/bin/../m68k-unknown-elf/sysroot/lib/m54455\libm.a(lib_a-w_atan2.o)
 .bss           0x00000000        0x0 c:/nburn/gcc-m68k/bin/../m68k-unknown-elf/sysroot/lib/m54455\libm.a(lib_a-w_atan2.o)
 .data          0x00000000        0x0 c:/nburn/gcc-m68k/bin/../m68k-unknown-elf/sysroot/lib/m54455\libm.a(lib_a-w_pow.o)
 .bss           0x00000000        0x0 c:/nburn/gcc-m68k/bin/../m68k-unknown-elf/sysroot/lib/m54455\libm.a(lib_a-w_pow.o)
 .data          0x00000000        0x0 c:/nburn/gcc-m68k/bin/../m68k-unknown-elf/sysroot/lib/m54455\libm.a(lib_a-w_sqrt.o)
 .bss           0x00000000        0x0 c:/nburn/gcc-m68k/bin/../m68k-unknown-elf/sysroot/lib/m54455\libm.a(lib_a-w_sqrt.o)
 .data          0x00000000        0x0 c:/nburn/gcc-m68k/bin/../m68k-unknown-elf/sysroot/lib/m54455\libm.a(lib_a-wf_asin.o)
 .bss           0x00000000        0x0 c:/nburn/gcc-m68k/bin/../m68k-unknown-elf/sysroot/lib/m54455\libm.a(lib_a-wf_asin.o)
 .data          0x00000000        0x0 c:/nburn/gcc-m68k/bin/../m68k-unknown-elf/sysroot/lib/m54455\libm.a(lib_a-wf_atan2.o)
 .bss           0x00000000        0x0 c:/nburn/gcc-m68k/bin/../m68k-unknown-elf/sysroot/lib/m54455\libm.a(lib_a-wf_atan2.o)
 .data          0x00000000        0x0 c:/nburn/gcc-m68k/bin/../m68k-unknown-elf/sysroot/lib/m54455\libm.a(lib_a-wf_sqrt.o)
 .bss           0x00000000        0x0 c:/nburn/gcc-m68k/bin/../m68k-unknown-elf/sysroot/lib/m54455\libm.a(lib_a-wf_sqrt.o)
 .data          0x00000000        0x0 c:/nburn/gcc-m68k/bin/../m68k-unknown-elf/sysroot/lib/m54455\libm.a(lib_a-e_atan2.o)
 .bss           0x00000000        0x0 c:/nburn/gcc-m68k/bin/../m68k-unknown-elf/sysroot/lib/m54455\libm.a(lib_a-e_atan2.o)
 .data          0x00000000        0x0 c:/nburn/gcc-m68k/bin/../m68k-unknown-elf/sysroot/lib/m54455\libm.a(lib_a-e_pow.o)
 .bss           0x00000000        0x0 c:/nburn/gcc-m68k/bin/../m68k-unknown-elf/sysroot/lib/m54455\libm.a(lib_a-e_pow.o)
 .data          0x00000000        0x0 c:/nburn/gcc-m68k/bin/../m68k-unknown-elf/sysroot/lib/m54455\libm.a(lib_a-e_rem_pio2.o)
 .bss           0x00000000        0x0 c:/nburn/gcc-m68k/bin/../m68k-unknown-elf/sysroot/lib/m54455\libm.a(lib_a-e_rem_pio2.o)
 .data          0x00000000        0x0 c:/nburn/gcc-m68k/bin/../m68k-unknown-elf/sysroot/lib/m54455\libm.a(lib_a-e_sqrt.o)
 .bss           0x00000000        0x0 c:/nburn/gcc-m68k/bin/../m68k-unknown-elf/sysroot/lib/m54455\libm.a(lib_a-e_sqrt.o)
 .data          0x00000000        0x0 c:/nburn/gcc-m68k/bin/../m68k-unknown-elf/sysroot/lib/m54455\libm.a(lib_a-ef_asin.o)
 .bss           0x00000000        0x0 c:/nburn/gcc-m68k/bin/../m68k-unknown-elf/sysroot/lib/m54455\libm.a(lib_a-ef_asin.o)
 .data          0x00000000        0x0 c:/nburn/gcc-m68k/bin/../m68k-unknown-elf/sysroot/lib/m54455\libm.a(lib_a-ef_atan2.o)
 .bss           0x00000000        0x0 c:/nburn/gcc-m68k/bin/../m68k-unknown-elf/sysroot/lib/m54455\libm.a(lib_a-ef_atan2.o)
 .data          0x00000000        0x0 c:/nburn/gcc-m68k/bin/../m68k-unknown-elf/sysroot/lib/m54455\libm.a(lib_a-ef_sqrt.o)
 .bss           0x00000000        0x0 c:/nburn/gcc-m68k/bin/../m68k-unknown-elf/sysroot/lib/m54455\libm.a(lib_a-ef_sqrt.o)
 .data          0x00000000        0x0 c:/nburn/gcc-m68k/bin/../m68k-unknown-elf/sysroot/lib/m54455\libm.a(lib_a-k_cos.o)
 .bss           0x00000000        0x0 c:/nburn/gcc-m68k/bin/../m68k-unknown-elf/sysroot/lib/m54455\libm.a(lib_a-k_cos.o)
 .data          0x00000000        0x0 c:/nburn/gcc-m68k/bin/../m68k-unknown-elf/sysroot/lib/m54455\libm.a(lib_a-k_rem_pio2.o)
 .bss           0x00000000        0x0 c:/nburn/gcc-m68k/bin/../m68k-unknown-elf/sysroot/lib/m54455\libm.a(lib_a-k_rem_pio2.o)
 .data          0x00000000        0x0 c:/nburn/gcc-m68k/bin/../m68k-unknown-elf/sysroot/lib/m54455\libm.a(lib_a-k_sin.o)
 .bss           0x00000000        0x0 c:/nburn/gcc-m68k/bin/../m68k-unknown-elf/sysroot/lib/m54455\libm.a(lib_a-k_sin.o)
 .data          0x00000000        0x0 c:/nburn/gcc-m68k/bin/../m68k-unknown-elf/sysroot/lib/m54455\libm.a(lib_a-s_atan.o)
 .bss           0x00000000        0x0 c:/nburn/gcc-m68k/bin/../m68k-unknown-elf/sysroot/lib/m54455\libm.a(lib_a-s_atan.o)
 .data          0x00000000        0x0 c:/nburn/gcc-m68k/bin/../m68k-unknown-elf/sysroot/lib/m54455\libm.a(lib_a-s_fabs.o)
 .bss           0x00000000        0x0 c:/nburn/gcc-m68k/bin/../m68k-unknown-elf/sysroot/lib/m54455\libm.a(lib_a-s_fabs.o)
 .data          0x00000000        0x0 c:/nburn/gcc-m68k/bin/../m68k-unknown-elf/sysroot/lib/m54455\libm.a(lib_a-s_finite.o)
 .bss           0x00000000        0x0 c:/nburn/gcc-m68k/bin/../m68k-unknown-elf/sysroot/lib/m54455\libm.a(lib_a-s_finite.o)
 .data          0x00000000        0x0 c:/nburn/gcc-m68k/bin/../m68k-unknown-elf/sysroot/lib/m54455\libm.a(lib_a-s_floor.o)
 .bss           0x00000000        0x0 c:/nburn/gcc-m68k/bin/../m68k-unknown-elf/sysroot/lib/m54455\libm.a(lib_a-s_floor.o)
 .text          0x00000000        0x0 c:/nburn/gcc-m68k/bin/../m68k-unknown-elf/sysroot/lib/m54455\libm.a(lib_a-s_lib_ver.o)
 .bss           0x00000000        0x0 c:/nburn/gcc-m68k/bin/../m68k-unknown-elf/sysroot/lib/m54455\libm.a(lib_a-s_lib_ver.o)
 .data          0x00000000        0x0 c:/nburn/gcc-m68k/bin/../m68k-unknown-elf/sysroot/lib/m54455\libm.a(lib_a-s_matherr.o)
 .bss           0x00000000        0x0 c:/nburn/gcc-m68k/bin/../m68k-unknown-elf/sysroot/lib/m54455\libm.a(lib_a-s_matherr.o)
 .data          0x00000000        0x0 c:/nburn/gcc-m68k/bin/../m68k-unknown-elf/sysroot/lib/m54455\libm.a(lib_a-s_nan.o)
 .bss           0x00000000        0x0 c:/nburn/gcc-m68k/bin/../m68k-unknown-elf/sysroot/lib/m54455\libm.a(lib_a-s_nan.o)
 .data          0x00000000        0x0 c:/nburn/gcc-m68k/bin/../m68k-unknown-elf/sysroot/lib/m54455\libm.a(lib_a-s_rint.o)
 .bss           0x00000000        0x0 c:/nburn/gcc-m68k/bin/../m68k-unknown-elf/sysroot/lib/m54455\libm.a(lib_a-s_rint.o)
 .data          0x00000000        0x0 c:/nburn/gcc-m68k/bin/../m68k-unknown-elf/sysroot/lib/m54455\libm.a(lib_a-s_scalbn.o)
 .bss           0x00000000        0x0 c:/nburn/gcc-m68k/bin/../m68k-unknown-elf/sysroot/lib/m54455\libm.a(lib_a-s_scalbn.o)
 .data          0x00000000        0x0 c:/nburn/gcc-m68k/bin/../m68k-unknown-elf/sysroot/lib/m54455\libm.a(lib_a-sf_atan.o)
 .bss           0x00000000        0x0 c:/nburn/gcc-m68k/bin/../m68k-unknown-elf/sysroot/lib/m54455\libm.a(lib_a-sf_atan.o)
 .data          0x00000000        0x0 c:/nburn/gcc-m68k/bin/../m68k-unknown-elf/sysroot/lib/m54455\libm.a(lib_a-sf_fabs.o)
 .bss           0x00000000        0x0 c:/nburn/gcc-m68k/bin/../m68k-unknown-elf/sysroot/lib/m54455\libm.a(lib_a-sf_fabs.o)
 .data          0x00000000        0x0 c:/nburn/gcc-m68k/bin/../m68k-unknown-elf/sysroot/lib/m54455\libm.a(lib_a-sf_fpclassify.o)
 .bss           0x00000000        0x0 c:/nburn/gcc-m68k/bin/../m68k-unknown-elf/sysroot/lib/m54455\libm.a(lib_a-sf_fpclassify.o)
 .data          0x00000000        0x0 c:/nburn/gcc-m68k/bin/../m68k-unknown-elf/sysroot/lib/m54455\libm.a(lib_a-s_copysign.o)
 .bss           0x00000000        0x0 c:/nburn/gcc-m68k/bin/../m68k-unknown-elf/sysroot/lib/m54455\libm.a(lib_a-s_copysign.o)
 .data          0x00000000        0x0 c:/nburn/gcc-m68k/bin/../lib/gcc/m68k-unknown-elf/5.2.0/m54455\libgcc.a(_double.o)
 .bss           0x00000000        0x0 c:/nburn/gcc-m68k/bin/../lib/gcc/m68k-unknown-elf/5.2.0/m54455\libgcc.a(_double.o)
 .data          0x00000000        0x0 c:/nburn/gcc-m68k/bin/../lib/gcc/m68k-unknown-elf/5.2.0/m54455\libgcc.a(_float.o)
 .bss           0x00000000        0x0 c:/nburn/gcc-m68k/bin/../lib/gcc/m68k-unknown-elf/5.2.0/m54455\libgcc.a(_float.o)
 .bss           0x00000000        0x0 c:/nburn/gcc-m68k/bin/../lib/gcc/m68k-unknown-elf/5.2.0/m54455\libgcc.a(_floatex.o)
 .data          0x00000000        0x0 c:/nburn/gcc-m68k/bin/../lib/gcc/m68k-unknown-elf/5.2.0/m54455\libgcc.a(_eqdf2.o)
 .bss           0x00000000        0x0 c:/nburn/gcc-m68k/bin/../lib/gcc/m68k-unknown-elf/5.2.0/m54455\libgcc.a(_eqdf2.o)
 .data          0x00000000        0x0 c:/nburn/gcc-m68k/bin/../lib/gcc/m68k-unknown-elf/5.2.0/m54455\libgcc.a(_nedf2.o)
 .bss           0x00000000        0x0 c:/nburn/gcc-m68k/bin/../lib/gcc/m68k-unknown-elf/5.2.0/m54455\libgcc.a(_nedf2.o)
 .data          0x00000000        0x0 c:/nburn/gcc-m68k/bin/../lib/gcc/m68k-unknown-elf/5.2.0/m54455\libgcc.a(_gtdf2.o)
 .bss           0x00000000        0x0 c:/nburn/gcc-m68k/bin/../lib/gcc/m68k-unknown-elf/5.2.0/m54455\libgcc.a(_gtdf2.o)
 .data          0x00000000        0x0 c:/nburn/gcc-m68k/bin/../lib/gcc/m68k-unknown-elf/5.2.0/m54455\libgcc.a(_gedf2.o)
 .bss           0x00000000        0x0 c:/nburn/gcc-m68k/bin/../lib/gcc/m68k-unknown-elf/5.2.0/m54455\libgcc.a(_gedf2.o)
 .data          0x00000000        0x0 c:/nburn/gcc-m68k/bin/../lib/gcc/m68k-unknown-elf/5.2.0/m54455\libgcc.a(_ltdf2.o)
 .bss           0x00000000        0x0 c:/nburn/gcc-m68k/bin/../lib/gcc/m68k-unknown-elf/5.2.0/m54455\libgcc.a(_ltdf2.o)
 .data          0x00000000        0x0 c:/nburn/gcc-m68k/bin/../lib/gcc/m68k-unknown-elf/5.2.0/m54455\libgcc.a(_ledf2.o)
 .bss           0x00000000        0x0 c:/nburn/gcc-m68k/bin/../lib/gcc/m68k-unknown-elf/5.2.0/m54455\libgcc.a(_ledf2.o)
 .data          0x00000000        0x0 c:/nburn/gcc-m68k/bin/../lib/gcc/m68k-unknown-elf/5.2.0/m54455\libgcc.a(_eqsf2.o)
 .bss           0x00000000        0x0 c:/nburn/gcc-m68k/bin/../lib/gcc/m68k-unknown-elf/5.2.0/m54455\libgcc.a(_eqsf2.o)
 .data          0x00000000        0x0 c:/nburn/gcc-m68k/bin/../lib/gcc/m68k-unknown-elf/5.2.0/m54455\libgcc.a(_gtsf2.o)
 .bss           0x00000000        0x0 c:/nburn/gcc-m68k/bin/../lib/gcc/m68k-unknown-elf/5.2.0/m54455\libgcc.a(_gtsf2.o)
 .data          0x00000000        0x0 c:/nburn/gcc-m68k/bin/../lib/gcc/m68k-unknown-elf/5.2.0/m54455\libgcc.a(_ltsf2.o)
 .bss           0x00000000        0x0 c:/nburn/gcc-m68k/bin/../lib/gcc/m68k-unknown-elf/5.2.0/m54455\libgcc.a(_ltsf2.o)
 .data          0x00000000        0x0 c:/nburn/gcc-m68k/bin/../lib/gcc/m68k-unknown-elf/5.2.0/m54455\libgcc.a(_muldi3.o)
 .bss           0x00000000        0x0 c:/nburn/gcc-m68k/bin/../lib/gcc/m68k-unknown-elf/5.2.0/m54455\libgcc.a(_muldi3.o)
 .data          0x00000000        0x0 c:/nburn/gcc-m68k/bin/../lib/gcc/m68k-unknown-elf/5.2.0/m54455\libgcc.a(_fixunsdfsi.o)
 .bss           0x00000000        0x0 c:/nburn/gcc-m68k/bin/../lib/gcc/m68k-unknown-elf/5.2.0/m54455\libgcc.a(_fixunsdfsi.o)
 .data          0x00000000        0x0 c:/nburn/gcc-m68k/bin/../lib/gcc/m68k-unknown-elf/5.2.0/m54455\libgcc.a(_fixunsdfdi.o)
 .bss           0x00000000        0x0 c:/nburn/gcc-m68k/bin/../lib/gcc/m68k-unknown-elf/5.2.0/m54455\libgcc.a(_fixunsdfdi.o)
 .data          0x00000000        0x0 c:/nburn/gcc-m68k/bin/../lib/gcc/m68k-unknown-elf/5.2.0/m54455\libgcc.a(_udivdi3.o)
 .bss           0x00000000        0x0 c:/nburn/gcc-m68k/bin/../lib/gcc/m68k-unknown-elf/5.2.0/m54455\libgcc.a(_udivdi3.o)
 .data          0x00000000        0x0 c:/nburn/gcc-m68k/bin/../lib/gcc/m68k-unknown-elf/5.2.0/m54455\libgcc.a(_umoddi3.o)
 .bss           0x00000000        0x0 c:/nburn/gcc-m68k/bin/../lib/gcc/m68k-unknown-elf/5.2.0/m54455\libgcc.a(_umoddi3.o)
 .data          0x00000000        0x0 c:/nburn/gcc-m68k/bin/../lib/gcc/m68k-unknown-elf/5.2.0/m54455\libgcc.a(fpgnulib.o)
 .bss           0x00000000        0x0 c:/nburn/gcc-m68k/bin/../lib/gcc/m68k-unknown-elf/5.2.0/m54455\libgcc.a(fpgnulib.o)
 .data          0x00000000        0x0 c:/nburn/gcc-m68k/bin/../lib/gcc/m68k-unknown-elf/5.2.0/m54455\libgcc.a(unwind-dw2.o)
 .data          0x00000000        0x0 c:/nburn/gcc-m68k/bin/../lib/gcc/m68k-unknown-elf/5.2.0/m54455\libgcc.a(unwind-dw2-fde.o)
 .data          0x00000000        0x0 c:/nburn/gcc-m68k/bin/../m68k-unknown-elf/sysroot/lib/m54455\libc.a(lib_a-abort.o)
 .bss           0x00000000        0x0 c:/nburn/gcc-m68k/bin/../m68k-unknown-elf/sysroot/lib/m54455\libc.a(lib_a-abort.o)
 .data          0x00000000        0x0 c:/nburn/gcc-m68k/bin/../m68k-unknown-elf/sysroot/lib/m54455\libc.a(lib_a-atexit.o)
 .bss           0x00000000        0x0 c:/nburn/gcc-m68k/bin/../m68k-unknown-elf/sysroot/lib/m54455\libc.a(lib_a-atexit.o)
 .data          0x00000000        0x0 c:/nburn/gcc-m68k/bin/../m68k-unknown-elf/sysroot/lib/m54455\libc.a(lib_a-atoi.o)
 .bss           0x00000000        0x0 c:/nburn/gcc-m68k/bin/../m68k-unknown-elf/sysroot/lib/m54455\libc.a(lib_a-atoi.o)
 .data          0x00000000        0x0 c:/nburn/gcc-m68k/bin/../m68k-unknown-elf/sysroot/lib/m54455\libc.a(lib_a-bsearch.o)
 .bss           0x00000000        0x0 c:/nburn/gcc-m68k/bin/../m68k-unknown-elf/sysroot/lib/m54455\libc.a(lib_a-bsearch.o)
 .data          0x00000000        0x0 c:/nburn/gcc-m68k/bin/../m68k-unknown-elf/sysroot/lib/m54455\libc.a(lib_a-bzero.o)
 .bss           0x00000000        0x0 c:/nburn/gcc-m68k/bin/../m68k-unknown-elf/sysroot/lib/m54455\libc.a(lib_a-bzero.o)
 .data          0x00000000        0x0 c:/nburn/gcc-m68k/bin/../m68k-unknown-elf/sysroot/lib/m54455\libc.a(lib_a-cxa_atexit.o)
 .bss           0x00000000        0x0 c:/nburn/gcc-m68k/bin/../m68k-unknown-elf/sysroot/lib/m54455\libc.a(lib_a-cxa_atexit.o)
 .data          0x00000000        0x0 c:/nburn/gcc-m68k/bin/../m68k-unknown-elf/sysroot/lib/m54455\libc.a(lib_a-errno.o)
 .bss           0x00000000        0x0 c:/nburn/gcc-m68k/bin/../m68k-unknown-elf/sysroot/lib/m54455\libc.a(lib_a-errno.o)
 .data          0x00000000        0x0 c:/nburn/gcc-m68k/bin/../m68k-unknown-elf/sysroot/lib/m54455\libc.a(lib_a-fputc.o)
 .bss           0x00000000        0x0 c:/nburn/gcc-m68k/bin/../m68k-unknown-elf/sysroot/lib/m54455\libc.a(lib_a-fputc.o)
 .data          0x00000000        0x0 c:/nburn/gcc-m68k/bin/../m68k-unknown-elf/sysroot/lib/m54455\libc.a(lib_a-fputs.o)
 .bss           0x00000000        0x0 c:/nburn/gcc-m68k/bin/../m68k-unknown-elf/sysroot/lib/m54455\libc.a(lib_a-fputs.o)
 .data          0x00000000        0x0 c:/nburn/gcc-m68k/bin/../m68k-unknown-elf/sysroot/lib/m54455\libc.a(lib_a-fvwrite.o)
 .bss           0x00000000        0x0 c:/nburn/gcc-m68k/bin/../m68k-unknown-elf/sysroot/lib/m54455\libc.a(lib_a-fvwrite.o)
 .data          0x00000000        0x0 c:/nburn/gcc-m68k/bin/../m68k-unknown-elf/sysroot/lib/m54455\libc.a(lib_a-fwrite.o)
 .bss           0x00000000        0x0 c:/nburn/gcc-m68k/bin/../m68k-unknown-elf/sysroot/lib/m54455\libc.a(lib_a-fwrite.o)
 .text          0x00000000        0x0 c:/nburn/gcc-m68k/bin/../m68k-unknown-elf/sysroot/lib/m54455\libc.a(lib_a-impure.o)
 .bss           0x00000000        0x0 c:/nburn/gcc-m68k/bin/../m68k-unknown-elf/sysroot/lib/m54455\libc.a(lib_a-impure.o)
 .data          0x00000000        0x0 c:/nburn/gcc-m68k/bin/../m68k-unknown-elf/sysroot/lib/m54455\libc.a(lib_a-isalnum.o)
 .bss           0x00000000        0x0 c:/nburn/gcc-m68k/bin/../m68k-unknown-elf/sysroot/lib/m54455\libc.a(lib_a-isalnum.o)
 .data          0x00000000        0x0 c:/nburn/gcc-m68k/bin/../m68k-unknown-elf/sysroot/lib/m54455\libc.a(lib_a-isspace.o)
 .bss           0x00000000        0x0 c:/nburn/gcc-m68k/bin/../m68k-unknown-elf/sysroot/lib/m54455\libc.a(lib_a-isspace.o)
 .data          0x00000000        0x0 c:/nburn/gcc-m68k/bin/../m68k-unknown-elf/sysroot/lib/m54455\libc.a(lib_a-malloc.o)
 .bss           0x00000000        0x0 c:/nburn/gcc-m68k/bin/../m68k-unknown-elf/sysroot/lib/m54455\libc.a(lib_a-malloc.o)
 .data          0x00000000        0x0 c:/nburn/gcc-m68k/bin/../m68k-unknown-elf/sysroot/lib/m54455\libc.a(lib_a-memchr.o)
 .bss           0x00000000        0x0 c:/nburn/gcc-m68k/bin/../m68k-unknown-elf/sysroot/lib/m54455\libc.a(lib_a-memchr.o)
 .data          0x00000000        0x0 c:/nburn/gcc-m68k/bin/../m68k-unknown-elf/sysroot/lib/m54455\libc.a(lib_a-memcmp.o)
 .bss           0x00000000        0x0 c:/nburn/gcc-m68k/bin/../m68k-unknown-elf/sysroot/lib/m54455\libc.a(lib_a-memcmp.o)
 .data          0x00000000        0x0 c:/nburn/gcc-m68k/bin/../m68k-unknown-elf/sysroot/lib/m54455\libc.a(lib_a-memmove.o)
 .bss           0x00000000        0x0 c:/nburn/gcc-m68k/bin/../m68k-unknown-elf/sysroot/lib/m54455\libc.a(lib_a-memmove.o)
 .data          0x00000000        0x0 c:/nburn/gcc-m68k/bin/../m68k-unknown-elf/sysroot/lib/m54455\libc.a(lib_a-putc.o)
 .bss           0x00000000        0x0 c:/nburn/gcc-m68k/bin/../m68k-unknown-elf/sysroot/lib/m54455\libc.a(lib_a-putc.o)
 .data          0x00000000        0x0 c:/nburn/gcc-m68k/bin/../m68k-unknown-elf/sysroot/lib/m54455\libc.a(lib_a-puts.o)
 .bss           0x00000000        0x0 c:/nburn/gcc-m68k/bin/../m68k-unknown-elf/sysroot/lib/m54455\libc.a(lib_a-puts.o)
 .data          0x00000000        0x0 c:/nburn/gcc-m68k/bin/../m68k-unknown-elf/sysroot/lib/m54455\libc.a(lib_a-rand.o)
 .bss           0x00000000        0x0 c:/nburn/gcc-m68k/bin/../m68k-unknown-elf/sysroot/lib/m54455\libc.a(lib_a-rand.o)
 .data          0x00000000        0x0 c:/nburn/gcc-m68k/bin/../m68k-unknown-elf/sysroot/lib/m54455\libc.a(lib_a-realloc.o)
 .bss           0x00000000        0x0 c:/nburn/gcc-m68k/bin/../m68k-unknown-elf/sysroot/lib/m54455\libc.a(lib_a-realloc.o)
 .data          0x00000000        0x0 c:/nburn/gcc-m68k/bin/../m68k-unknown-elf/sysroot/lib/m54455\libc.a(lib_a-reallocr.o)
 .bss           0x00000000        0x0 c:/nburn/gcc-m68k/bin/../m68k-unknown-elf/sysroot/lib/m54455\libc.a(lib_a-reallocr.o)
 .data          0x00000000        0x0 c:/nburn/gcc-m68k/bin/../m68k-unknown-elf/sysroot/lib/m54455\libc.a(lib_a-rget.o)
 .bss           0x00000000        0x0 c:/nburn/gcc-m68k/bin/../m68k-unknown-elf/sysroot/lib/m54455\libc.a(lib_a-rget.o)
 .data          0x00000000        0x0 c:/nburn/gcc-m68k/bin/../m68k-unknown-elf/sysroot/lib/m54455\libc.a(lib_a-setjmp.o)
 .bss           0x00000000        0x0 c:/nburn/gcc-m68k/bin/../m68k-unknown-elf/sysroot/lib/m54455\libc.a(lib_a-setjmp.o)
 .data          0x00000000        0x0 c:/nburn/gcc-m68k/bin/../m68k-unknown-elf/sysroot/lib/m54455\libc.a(lib_a-setvbuf.o)
 .bss           0x00000000        0x0 c:/nburn/gcc-m68k/bin/../m68k-unknown-elf/sysroot/lib/m54455\libc.a(lib_a-setvbuf.o)
 .data          0x00000000        0x0 c:/nburn/gcc-m68k/bin/../m68k-unknown-elf/sysroot/lib/m54455\libc.a(lib_a-signal.o)
 .bss           0x00000000        0x0 c:/nburn/gcc-m68k/bin/../m68k-unknown-elf/sysroot/lib/m54455\libc.a(lib_a-signal.o)
 .data          0x00000000        0x0 c:/nburn/gcc-m68k/bin/../m68k-unknown-elf/sysroot/lib/m54455\libc.a(lib_a-signalr.o)
 .bss           0x00000000        0x0 c:/nburn/gcc-m68k/bin/../m68k-unknown-elf/sysroot/lib/m54455\libc.a(lib_a-signalr.o)
 .data          0x00000000        0x0 c:/nburn/gcc-m68k/bin/../m68k-unknown-elf/sysroot/lib/m54455\libc.a(lib_a-strcat.o)
 .bss           0x00000000        0x0 c:/nburn/gcc-m68k/bin/../m68k-unknown-elf/sysroot/lib/m54455\libc.a(lib_a-strcat.o)
 .data          0x00000000        0x0 c:/nburn/gcc-m68k/bin/../m68k-unknown-elf/sysroot/lib/m54455\libc.a(lib_a-strcmp.o)
 .bss           0x00000000        0x0 c:/nburn/gcc-m68k/bin/../m68k-unknown-elf/sysroot/lib/m54455\libc.a(lib_a-strcmp.o)
 .data          0x00000000        0x0 c:/nburn/gcc-m68k/bin/../m68k-unknown-elf/sysroot/lib/m54455\libc.a(lib_a-strcpy.o)
 .bss           0x00000000        0x0 c:/nburn/gcc-m68k/bin/../m68k-unknown-elf/sysroot/lib/m54455\libc.a(lib_a-strcpy.o)
 .data          0x00000000        0x0 c:/nburn/gcc-m68k/bin/../m68k-unknown-elf/sysroot/lib/m54455\libc.a(lib_a-strlen.o)
 .bss           0x00000000        0x0 c:/nburn/gcc-m68k/bin/../m68k-unknown-elf/sysroot/lib/m54455\libc.a(lib_a-strlen.o)
 .data          0x00000000        0x0 c:/nburn/gcc-m68k/bin/../m68k-unknown-elf/sysroot/lib/m54455\libc.a(lib_a-strncmp.o)
 .bss           0x00000000        0x0 c:/nburn/gcc-m68k/bin/../m68k-unknown-elf/sysroot/lib/m54455\libc.a(lib_a-strncmp.o)
 .data          0x00000000        0x0 c:/nburn/gcc-m68k/bin/../m68k-unknown-elf/sysroot/lib/m54455\libc.a(lib_a-strncpy.o)
 .bss           0x00000000        0x0 c:/nburn/gcc-m68k/bin/../m68k-unknown-elf/sysroot/lib/m54455\libc.a(lib_a-strncpy.o)
 .data          0x00000000        0x0 c:/nburn/gcc-m68k/bin/../m68k-unknown-elf/sysroot/lib/m54455\libc.a(lib_a-strstr.o)
 .bss           0x00000000        0x0 c:/nburn/gcc-m68k/bin/../m68k-unknown-elf/sysroot/lib/m54455\libc.a(lib_a-strstr.o)
 .data          0x00000000        0x0 c:/nburn/gcc-m68k/bin/../m68k-unknown-elf/sysroot/lib/m54455\libc.a(lib_a-strtol.o)
 .bss           0x00000000        0x0 c:/nburn/gcc-m68k/bin/../m68k-unknown-elf/sysroot/lib/m54455\libc.a(lib_a-strtol.o)
 .data          0x00000000        0x0 c:/nburn/gcc-m68k/bin/../m68k-unknown-elf/sysroot/lib/m54455\libc.a(lib_a-tolower.o)
 .bss           0x00000000        0x0 c:/nburn/gcc-m68k/bin/../m68k-unknown-elf/sysroot/lib/m54455\libc.a(lib_a-tolower.o)
 .data          0x00000000        0x0 c:/nburn/gcc-m68k/bin/../m68k-unknown-elf/sysroot/lib/m54455\libc.a(lib_a-toupper.o)
 .bss           0x00000000        0x0 c:/nburn/gcc-m68k/bin/../m68k-unknown-elf/sysroot/lib/m54455\libc.a(lib_a-toupper.o)
 .data          0x00000000        0x0 c:/nburn/gcc-m68k/bin/../m68k-unknown-elf/sysroot/lib/m54455\libc.a(lib_a-wbuf.o)
 .bss           0x00000000        0x0 c:/nburn/gcc-m68k/bin/../m68k-unknown-elf/sysroot/lib/m54455\libc.a(lib_a-wbuf.o)
 .data          0x00000000        0x0 c:/nburn/gcc-m68k/bin/../m68k-unknown-elf/sysroot/lib/m54455\libc.a(lib_a-wsetup.o)
 .bss           0x00000000        0x0 c:/nburn/gcc-m68k/bin/../m68k-unknown-elf/sysroot/lib/m54455\libc.a(lib_a-wsetup.o)
 .data          0x00000000        0x0 c:/nburn/gcc-m68k/bin/../m68k-unknown-elf/sysroot/lib/m54455\libc.a(lib_a-__atexit.o)
 .bss           0x00000000        0x0 c:/nburn/gcc-m68k/bin/../m68k-unknown-elf/sysroot/lib/m54455\libc.a(lib_a-__atexit.o)
 .text          0x00000000        0x0 c:/nburn/gcc-m68k/bin/../m68k-unknown-elf/sysroot/lib/m54455\libc.a(lib_a-ctype_.o)
 .bss           0x00000000        0x0 c:/nburn/gcc-m68k/bin/../m68k-unknown-elf/sysroot/lib/m54455\libc.a(lib_a-ctype_.o)
 .data          0x00000000        0x0 c:/nburn/gcc-m68k/bin/../m68k-unknown-elf/sysroot/lib/m54455\libc.a(lib_a-fflush.o)
 .bss           0x00000000        0x0 c:/nburn/gcc-m68k/bin/../m68k-unknown-elf/sysroot/lib/m54455\libc.a(lib_a-fflush.o)
 .data          0x00000000        0x0 c:/nburn/gcc-m68k/bin/../m68k-unknown-elf/sysroot/lib/m54455\libc.a(lib_a-findfp.o)
 .bss           0x00000000        0x0 c:/nburn/gcc-m68k/bin/../m68k-unknown-elf/sysroot/lib/m54455\libc.a(lib_a-findfp.o)
 .data          0x00000000        0x0 c:/nburn/gcc-m68k/bin/../m68k-unknown-elf/sysroot/lib/m54455\libc.a(lib_a-freer.o)
 .bss           0x00000000        0x0 c:/nburn/gcc-m68k/bin/../m68k-unknown-elf/sysroot/lib/m54455\libc.a(lib_a-freer.o)
 .data          0x00000000        0x0 c:/nburn/gcc-m68k/bin/../m68k-unknown-elf/sysroot/lib/m54455\libc.a(lib_a-fwalk.o)
 .bss           0x00000000        0x0 c:/nburn/gcc-m68k/bin/../m68k-unknown-elf/sysroot/lib/m54455\libc.a(lib_a-fwalk.o)
 .data          0x00000000        0x0 c:/nburn/gcc-m68k/bin/../m68k-unknown-elf/sysroot/lib/m54455\libc.a(lib_a-makebuf.o)
 .bss           0x00000000        0x0 c:/nburn/gcc-m68k/bin/../m68k-unknown-elf/sysroot/lib/m54455\libc.a(lib_a-makebuf.o)
 .data          0x00000000        0x0 c:/nburn/gcc-m68k/bin/../m68k-unknown-elf/sysroot/lib/m54455\libc.a(lib_a-refill.o)
 .bss           0x00000000        0x0 c:/nburn/gcc-m68k/bin/../m68k-unknown-elf/sysroot/lib/m54455\libc.a(lib_a-refill.o)
 .data          0x00000000        0x0 c:/nburn/gcc-m68k/bin/../m68k-unknown-elf/sysroot/lib/m54455\libc.a(lib_a-stdio.o)
 .bss           0x00000000        0x0 c:/nburn/gcc-m68k/bin/../m68k-unknown-elf/sysroot/lib/m54455\libc.a(lib_a-stdio.o)
 .data          0x00000000        0x0 c:/nburn/gcc-m68k/bin/../m68k-unknown-elf/sysroot/lib/m54455\libc.a(lib_a-writer.o)
 .bss           0x00000000        0x0 c:/nburn/gcc-m68k/bin/../m68k-unknown-elf/sysroot/lib/m54455\libc.a(lib_a-writer.o)
 .data          0x00000000        0x0 c:/nburn/gcc-m68k/bin/../m68k-unknown-elf/sysroot/lib/m54455\libc.a(lib_a-closer.o)
 .bss           0x00000000        0x0 c:/nburn/gcc-m68k/bin/../m68k-unknown-elf/sysroot/lib/m54455\libc.a(lib_a-closer.o)
 .data          0x00000000        0x0 c:/nburn/gcc-m68k/bin/../m68k-unknown-elf/sysroot/lib/m54455\libc.a(lib_a-fclose.o)
 .bss           0x00000000        0x0 c:/nburn/gcc-m68k/bin/../m68k-unknown-elf/sysroot/lib/m54455\libc.a(lib_a-fclose.o)
 .data          0x00000000        0x0 c:/nburn/gcc-m68k/bin/../m68k-unknown-elf/sysroot/lib/m54455\libc.a(lib_a-fstatr.o)
 .bss           0x00000000        0x0 c:/nburn/gcc-m68k/bin/../m68k-unknown-elf/sysroot/lib/m54455\libc.a(lib_a-fstatr.o)
 .data          0x00000000        0x0 c:/nburn/gcc-m68k/bin/../m68k-unknown-elf/sysroot/lib/m54455\libc.a(lib_a-isattyr.o)
 .bss           0x00000000        0x0 c:/nburn/gcc-m68k/bin/../m68k-unknown-elf/sysroot/lib/m54455\libc.a(lib_a-isattyr.o)
 .data          0x00000000        0x0 c:/nburn/gcc-m68k/bin/../m68k-unknown-elf/sysroot/lib/m54455\libc.a(lib_a-lseekr.o)
 .bss           0x00000000        0x0 c:/nburn/gcc-m68k/bin/../m68k-unknown-elf/sysroot/lib/m54455\libc.a(lib_a-lseekr.o)
 .data          0x00000000        0x0 c:/nburn/gcc-m68k/bin/../m68k-unknown-elf/sysroot/lib/m54455\libc.a(lib_a-readr.o)
 .bss           0x00000000        0x0 c:/nburn/gcc-m68k/bin/../m68k-unknown-elf/sysroot/lib/m54455\libc.a(lib_a-readr.o)
 .data          0x00000000        0x0 c:/nburn/gcc-m68k/bin/../lib/gcc/m68k-unknown-elf/5.2.0/m54455/crtend.o
 .bss           0x00000000        0x0 c:/nburn/gcc-m68k/bin/../lib/gcc/m68k-unknown-elf/5.2.0/m54455/crtend.o
 .jcr           0x00000000        0x4 c:/nburn/gcc-m68k/bin/../lib/gcc/m68k-unknown-elf/5.2.0/m54455/crtend.o

Memory Configuration

Name             Origin             Length             Attributes
ram              0x40000400         0x03fffcff         xrw
SRAM             0x80000400         0x0000fbf0         xrw
Cold_SRAM        0x8000fffe         0x00000002         xrw
*default*        0x00000000         0xffffffff

Linker script and memory map

LOAD c:/nburn/gcc-m68k/bin/../lib/gcc/m68k-unknown-elf/5.2.0/m54455\nb-crt0.o
LOAD c:/nburn/gcc-m68k/bin/../lib/gcc/m68k-unknown-elf/5.2.0/m54455/crtbegin.o
LOAD tests.od
LOAD main.od
LOAD Utility.od
LOAD Nav.od
LOAD Map.od
LOAD Logger.od
LOAD Drivers\servodrive.od
LOAD Drivers\pwm.od
LOAD Drivers\introspec.od
LOAD Drivers\dsm2.od
LOAD Drivers\SpinningLidar.od
LOAD Drivers\Odometer.od
LOAD Drivers\MadgwickFilter.od
LOAD Drivers\MPU9250.od
LOAD Drivers\LidarPWM.od
LOAD Drivers\LCD.od
LOAD Drivers\IMUSetupAndSample.od
LOAD htmldata.od
LOAD C:\Nburn/NANO54415/lib/sys.ld
                0x40000000                ovector_base = 0x40000000
                0x80000000                vector_base = 0x80000000
                0x80000400                SRAM_START_ADDR = 0x80000400
                0x8000fffe                SRAM_END_ADDR = 0x8000fffe
                0x8c000000                sim_rgpio = 0x8c000000
                0xec008000                sim1 = 0xec008000
                0xfc004000                sim2 = 0xfc004000
                0x00004000                FlashAppBase = 0x4000
                0xfc0d4008                DBETHER_EMIR_REG = 0xfc0d4008
                0x8000d000                comm_loc = 0x8000d000
START GROUP
LOAD C:\Nburn/lib/DBNANO54415.a
LOAD C:\Nburn/lib/DBNetBurner.a
LOAD C:\Nburn/lib/FatFile.a
LOAD c:/nburn/gcc-m68k/bin/../m68k-unknown-elf/sysroot/lib/m54455\libstdc++.a
LOAD C:\Nburn\lib\DBcryptolib.a
LOAD C:\Nburn\lib\DBdebugLibrary.a
LOAD C:\Nburn\lib\DBLua_Full.a
LOAD C:\Nburn\lib\DBnb-libxively.a
LOAD C:\Nburn\lib\DBnbwifilib.a
LOAD C:\Nburn\lib\DBsshLibrary.a
LOAD C:\Nburn\lib\DBwebclient.a
END GROUP
LOAD c:/nburn/gcc-m68k/bin/../m68k-unknown-elf/sysroot/lib/m54455\libstdc++.a
LOAD c:/nburn/gcc-m68k/bin/../m68k-unknown-elf/sysroot/lib/m54455\libm.a
LOAD c:/nburn/gcc-m68k/bin/../lib/gcc/m68k-unknown-elf/5.2.0/m54455\libgcc.a
LOAD c:/nburn/gcc-m68k/bin/../m68k-unknown-elf/sysroot/lib/m54455\libc.a
LOAD c:/nburn/gcc-m68k/bin/../lib/gcc/m68k-unknown-elf/5.2.0/m54455\libgcc.a
LOAD c:/nburn/gcc-m68k/bin/../lib/gcc/m68k-unknown-elf/5.2.0/m54455/crtend.o
START GROUP
LOAD c:/nburn/gcc-m68k/bin/../m68k-unknown-elf/sysroot/lib/m54455\libc.a
LOAD c:/nburn/gcc-m68k/bin/../lib/gcc/m68k-unknown-elf/5.2.0/m54455\libgcc.a
LOAD c:/nburn/gcc-m68k/bin/../m68k-unknown-elf/sysroot/lib/m54455\libm.a
END GROUP
                0x00000000                __DYNAMIC = 0x0
                0x44000000                PROVIDE (__stack, 0x44000000)
                [!provide]                PROVIDE (hardware_init_hook, 0x0)
                [!provide]                PROVIDE (_hardware_init_hook, 0x0)
                [!provide]                PROVIDE (software_init_hook, 0x0)
                [!provide]                PROVIDE (_software_init_hook, 0x0)

.gcc_except_table._ZN10__cxxabiv111__terminateEPFvvE
                0x40000400       0x1d
 .gcc_except_table._ZN10__cxxabiv111__terminateEPFvvE
                0x40000400       0x1d c:/nburn/gcc-m68k/bin/../m68k-unknown-elf/sysroot/lib/m54455\libstdc++.a(eh_terminate.o)

.gcc_except_table.__gxx_personality_v0
                0x40000420       0x1c
 .gcc_except_table.__gxx_personality_v0
                0x40000420       0x1c c:/nburn/gcc-m68k/bin/../m68k-unknown-elf/sysroot/lib/m54455\libstdc++.a(eh_personality.o)

.gcc_except_table.__cxa_call_unexpected
                0x4000043c       0x1c
 .gcc_except_table.__cxa_call_unexpected
                0x4000043c       0x1c c:/nburn/gcc-m68k/bin/../m68k-unknown-elf/sysroot/lib/m54455\libstdc++.a(eh_personality.o)

.gcc_except_table._ZN9__gnu_cxx27__verbose_terminate_handlerEv
                0x40000458       0x2c
 .gcc_except_table._ZN9__gnu_cxx27__verbose_terminate_handlerEv
                0x40000458       0x2c c:/nburn/gcc-m68k/bin/../m68k-unknown-elf/sysroot/lib/m54455\libstdc++.a(vterminate.o)

.SRAM_SECT      0x80000400        0x0
                0x80000400                SRAM_START = .
 *(SYS_VAR_SECT)
                0x80000400                SYS_VAR_SECT_END = .
                0x80000400                . = ALIGN (0x10)
 *(IDLE_STK_SECT)
                0x80000400                IDLE_STK_SECT_END = .
                0x80000400                . = ALIGN (0x10)
 *(MAIN_STK_SECT)
                0x80000400                MAIN_STK_SECT_END = .
                0x80000400                . = ALIGN (0x4)
 *(ETHER_VAR_SECT)
                0x80000400                ETHER_VAR_SECT_END = .
                0x80000400                . = ALIGN (0x10)
 *(ETHER_STK_SECT)
                0x80000400                ETHER_STK_SECT_END = .
                0x80000400                . = ALIGN (0x4)
 *(IP_VAR_SECT)
                0x80000400                IP_VAR_SECT_END = .
                0x80000400                . = ALIGN (0x10)
 *(IP_STK_SECT)
                0x80000400                IP_STK_SECT_END = .
                0x80000400                . = ALIGN (0x4)
 *(TCP_VAR_SECT)
                0x80000400                TCP_VAR_SECT_END = .
                0x80000400                . = ALIGN (0x10)
 *(TCP_STK_SECT)
                0x80000400                TCP_STK_SECT_END = .
                0x80000400                . = ALIGN (0x10)
 *(HTTP_STK_SECT)
                0x80000400                HTTP_STK_SECT_END = .
                0x80000400                . = ALIGN (0x10)
 *(FTP_STK_SECT)
                0x80000400                FTP_STK_SECT_END = .
                0x80000400                . = ALIGN (0x10)
 *(WIFI_STK_SECT)
                0x80000400                WIFI_STK_SECT_END = .
                0x80000400                . = ALIGN (0x10)
 *(PPP_STK_SECT)
                0x80000400                PPP_STK_SECT_END = .
                0x80000400                . = ALIGN (0x10)
 *(COMMAND_STK_SECT)
                0x80000400                COMMAND_STK_SECT_END = .
                0x80000400                . = ALIGN (0x4)
 *(USER_VAR_SECT)
                0x80000400                USER_VAR_SECT_END = .
                0x80000400                . = ALIGN (0x10)
 *(USER_STK_SECT)
                0x80000400                USER_STK_SECT_END = .
                0x80000400                . = ALIGN (0x4)
 *(TLS_VAR_SECT)
                0x80000400                TLS_VAR_SECT_END = .
                0x80000400                BUFFERS_SECT_START = .
                0x80000400                . = ALIGN (0x10)
 *(BUFFERS_VAR_SECT)
                0x80000400                . = ALIGN (0x10)
                0x80000400                BUFFERS_VAR_SECT_END = .
                0x80000400                . = ALIGN (0x10)
                0x80000400                SRAM_END = .

.COLD_SRAM_SECT
                0x8000fffe        0x2
 *(COLD_SRAM_VAR)
 COLD_SRAM_VAR  0x8000fffe        0x2 C:\Nburn/lib/DBNetBurner.a(ip.od)

.text           0x40000490    0x82720
 nb-crt0.o()
 .text          0x40000490       0xaa c:/nburn/gcc-m68k/bin/../lib/gcc/m68k-unknown-elf/5.2.0/m54455\nb-crt0.o
                0x40000490                start
 *fill*         0x4000053a        0x2 
 .data          0x4000053c        0x4 c:/nburn/gcc-m68k/bin/../lib/gcc/m68k-unknown-elf/5.2.0/m54455\nb-crt0.o
 .bss           0x40000540        0x0 c:/nburn/gcc-m68k/bin/../lib/gcc/m68k-unknown-elf/5.2.0/m54455\nb-crt0.o
                0x40000540                gConfigRec = .
                0x40002540                . = (. + 0x2000)
 *fill*         0x40000540     0x2000 
                0x40002540                UserParamBase = .
                0x40004540                . = (. + 0x2000)
 *fill*         0x40002540     0x2000 
 *(.text)
 .text          0x40004540      0x12c c:/nburn/gcc-m68k/bin/../lib/gcc/m68k-unknown-elf/5.2.0/m54455/crtbegin.o
 .text          0x4000466c        0x8 C:\Nburn/lib/DBNANO54415.a(hardware_init.od)
                0x4000466c                hardware_init_hook
 .text          0x40004674     0x288c C:\Nburn/lib/DBNANO54415.a(serial.od)
                0x40004674                _Z11FdSerialMapi
                0x400046b0                _Z14InitializeMapsv
                0x40004758                _Z6WakeTxi
                0x4000483c                _Z11BasePutCharih
                0x4000499c                _Z11BaseGetChari
                0x40004a98                _Z8DoSerIsri
                0x40004f20                _Z14fake_SER_0_ISRv
                0x40004f24                SER_0_ISR
                0x40004f74                real_SER_0_ISR
                0x40004f88                _Z14fake_SER_1_ISRv
                0x40004f8c                SER_1_ISR
                0x40004fdc                real_SER_1_ISR
                0x40004ff0                _Z14fake_SER_2_ISRv
                0x40004ff4                SER_2_ISR
                0x40005044                real_SER_2_ISR
                0x40005058                _Z14fake_SER_3_ISRv
                0x4000505c                SER_3_ISR
                0x400050ac                real_SER_3_ISR
                0x400050c0                _Z14fake_SER_4_ISRv
                0x400050c4                SER_4_ISR
                0x40005114                real_SER_4_ISR
                0x40005128                _Z14fake_SER_5_ISRv
                0x4000512c                SER_5_ISR
                0x4000517c                real_SER_5_ISR
                0x40005190                _Z14fake_SER_6_ISRv
                0x40005194                SER_6_ISR
                0x400051e4                real_SER_6_ISR
                0x400051f8                _Z14fake_SER_7_ISRv
                0x400051fc                SER_7_ISR
                0x4000524c                real_SER_7_ISR
                0x40005260                _Z14fake_SER_8_ISRv
                0x40005264                SER_8_ISR
                0x400052b4                real_SER_8_ISR
                0x400052c8                _Z14fake_SER_9_ISRv
                0x400052cc                SER_9_ISR
                0x4000531c                real_SER_9_ISR
                0x40005330                _Z15serwriteaddressic
                0x400054a0                _Z8serwriteiPKci
                0x400055f8                _Z10serreadwtoiPcii
                0x40005890                _Z7serreadiPci
                0x400058b0                _Z10OpenSerialijii11parity_mode
                0x40005eac                _Z11SerialClosei
                0x40005fd4                _Z16serexternalclosei
                0x40006008                _Z18SerialEnableTxFlowii
                0x400060b8                _Z18SerialEnableRxFlowii
                0x400061f0                _Z20Serial485HalfDupModeii
                0x40006504                _Z20SerialEnableHwTxFlowii
                0x40006764                _Z20SerialEnableHwRxFlowii
                0x4000692c                _Z9SendBreakim
                0x400069cc                _Z15GetUartErrorRegi
                0x40006a8c                _Z15fShowSerialDataP7__sFILE
                0x40006d4c                _Z20SerialExpandRxBufferii
                0x40006d9c                _Z18SerialSendCompletei
 .text          0x40006f00     0x20d2 C:\Nburn/lib/DBNANO54415.a(pins.od)
                0x40006f00                _ZN5PinIO3setEh
                0x40007714                _ZN5PinIO6toggleEv
                0x40007dac                _ZN5PinIO5driveEv
                0x400080b8                _ZN5PinIO4readEv
                0x4000876c                _ZN5PinIO8readBackEv
                0x400089c0                _ZN5PinIO8functionEi
 *fill*         0x40008fd2        0x2 
 .text          0x40008fd4      0x12a C:\Nburn/lib/DBNANO54415.a(SimpleAD.od)
                0x40008fd4                _Z15InitSingleEndADv
                0x4000909c                _Z7StartADv
                0x400090b8                _Z6ADDonev
                0x400090e0                _Z11GetADResulti
 *fill*         0x400090fe        0x2 
 .text          0x40009100      0x3f4 C:\Nburn/lib/DBNANO54415.a(FlashOps.od)
                0x40009100                _Z11InConfigRecPv
                0x40009138                _Z10AddrAdjustPv
                0x400091b4                _Z15GetSpiFlashCritv
                0x400091f4                _Z19ReleaseSpiFlashCritv
                0x40009210                _Z10FlashErasePvi
                0x4000925c                _Z12FlashProgramPvS_i
                0x4000933c                CopySPIFlashImageOnBoot
                0x400093bc                _Z12FlashComparePKhS0_m
 .text          0x400094f4      0xc44 C:\Nburn/lib/DBNANO54415.a(HiResTimer.od)
                0x400094f4                _Z21fake_Timer0_Interruptv
                0x400094f8                Timer0_Interrupt
                0x40009548                real_Timer0_Interrupt
                0x4000955c                _Z21fake_Timer1_Interruptv
                0x40009560                Timer1_Interrupt
                0x400095b0                real_Timer1_Interrupt
                0x400095c8                _Z21fake_Timer2_Interruptv
                0x400095cc                Timer2_Interrupt
                0x4000961c                real_Timer2_Interrupt
                0x40009634                _Z21fake_Timer3_Interruptv
                0x40009638                Timer3_Interrupt
                0x40009688                real_Timer3_Interrupt
                0x400096a0                _ZN10HiResTimer4initEd
                0x400097dc                _ZN10HiResTimer10init_ticksEmi
                0x4000992c                _ZN10HiResTimer8readTimeEv
                0x40009aa0                _ZN10HiResTimer5delayEd
                0x40009b08                _ZN10HiResTimer10delay_uSecEm
                0x40009bf0                _ZN10HiResTimer12pollingDelayEd
                0x40009c9c                _ZN10HiResTimer21pollingDelay_refTicksEm
                0x40009d10                _ZN10HiResTimer14clockGeneratorEd
                0x40009da8                _ZN10HiResTimer13getHiResTimerEi
                0x40009e90                _ZN10HiResTimer12releaseTimerEv
                0x40009eac                _ZN10HiResTimerC1Ei
                0x40009eac                _ZN10HiResTimerC2Ei
                0x40009f18                _ZN10HiResTimeraSERKS_
                0x40009fc4                _ZN10HiResTimer8toStringEv
 .text          0x4000a138       0x26 C:\Nburn/lib/DBNANO54415.a(netwait.od)
                0x4000a138                _Z29InitializeNetworkGDB_and_Waitv
 *fill*         0x4000a15e        0x2 
 .text          0x4000a160      0x316 C:\Nburn/lib/DBNANO54415.a(pin_irq.od)
                0x4000a160                _Z18fake_firq2_pin_isrv
                0x4000a164                firq2_pin_isr
                0x4000a1b4                real_firq2_pin_isr
                0x4000a1d8                _Z18fake_firq3_pin_isrv
                0x4000a1dc                firq3_pin_isr
                0x4000a22c                real_firq3_pin_isr
                0x4000a250                _Z9SetPinIrqiiPFvvE
                0x4000a3f0                _Z9EnableIrqi
                0x4000a434                _Z10DisableIrqi
 *fill*         0x4000a476        0xa 
 .text          0x4000a480     0x416c C:\Nburn/lib/DBNANO54415.a(dbethernet.od)
                0x4000a480                _Z13read_eth_addrP6MACADR
                0x4000a4b4                _Z14FillNMIBuffersv
                0x4000a5bc                _Z16NMI_Eth_TransmitP11pool_buffer
                0x4000a600                MASKABLE_ENET_ISR
                0x4000a6fc                _Z21CheckTcpDebugSettingsv
                0x4000b3a4                _Z17process_debug_arpP11CompleteARP
                0x4000b448                _Z17process_debug_tcpP14CompleteTCPPKT
                0x4000b830                _Z17GDBDebugConnectedv
                0x4000b84c                _Z18FillerFunctionNamev
                0x4000b850                ENET_TRAP
                0x4000b878                GDB_TRAP
                0x4000b93c                gdb_tcp_c_trap
                0x4000da84                _Z20InitializeNetworkGDBv
                0x4000db98                _ZN8dbip_objC1EPKc
                0x4000db98                _ZN8dbip_objC2EPKc
                0x4000dc20                _Z27MakeCompilerStopComplainingv
                0x4000dc4c                _Z15ProcessDBPacketP11pool_buffer
                0x4000deb8                _Z13DEnetClrSWIsrv
                0x4000ded4                _Z20DEnetMakeSWIsrHappenv
                0x4000def0                _Z15DEnetSetUpSWISRm
                0x4000df4c                _ZN12EthernetVars16NMIEthernetYieldERVmmm
                0x4000e1a8                _ZN12EthernetVars15DebugEthernetTxEP11pool_buffer
                0x4000e304                _ZN12EthernetVars16NMI_Eth_TransmitEP11pool_buffer
                0x4000e4c8                _Z14GetNMIEthTimerv
                0x4000e4d8                _Z16ResetNMIEthTimerv
                0x4000e4e8                _Z10SafeRebootv
                0x4000e570                _Z14FixUpDebugIsrsv
                0x4000e598                _Z16Get_Counter_Seedv
 .text          0x4000e5ec      0x5ee C:\Nburn/lib/DBNANO54415.a(bsp.od)
                0x4000e5ec                _Z5xTickv
                0x4000e5f0                Tick5441X
                0x4000e60c                _Z16fake_faultvectorv
                0x4000e610                faultvector
                0x4000e62c                real_faultvector
                0x4000e670                _Z7SetIntcilii
                0x4000e7e8                _Z13HardwareSetupl
                0x4000e974                _Z11ForceRebootb
                0x4000e99c                _Z11C_DebugTrapv
                0x4000e9a8                _Z12DisableCachev
                0x4000ea0c                _Z11isCacheablemm
                0x4000ea18                _Z11EnableCachev
                0x4000eb0c                _sbrk_r
                0x4000eb78                _Z6atexitPFvvE
                0x4000eb84                _Z9spaceleftv
                0x4000ebc0                _Z8getdipswv
                0x4000ebcc                _Z18BspGetTickFractionv
 *fill*         0x4000ebda        0x2 
 .text          0x4000ebdc      0x130 C:\Nburn/lib/DBNANO54415.a(localio.od)
                0x4000ebdc                _Z13GetUartRecordi
                0x4000ec28                _Z10GetDefUartv
                0x4000ec48                _Z11LocalInBytev
                0x4000ec7c                _Z12LocalOutBytec
                0x4000ece4                _Z14LocalCharAvailv
 .text          0x4000ed0c       0x8a C:\Nburn/lib/DBNANO54415.a(userparam.od)
                0x4000ed0c                _Z18SaveUserParametersPvi
                0x4000ed88                _Z17GetUserParametersv
 *fill*         0x4000ed96        0x2 
 .text          0x4000ed98      0x8f0 C:\Nburn/lib/DBNANO54415.a(multichanneli2c.od)
                0x4000ed98                MultiChannel_I2CInit
                0x4000f004                MultiChannel_I2CStart
                0x4000f074                MultiChannel_I2CRestart
                0x4000f0e4                MultiChannel_I2CStop
                0x4000f128                MultiChannel_I2CSend
                0x4000f184                MultiChannel_I2CRead
                0x4000f1d0                MultiChannel_I2CSendBuf
                0x4000f35c                MultiChannel_I2CReadBuf
                0x4000f560                MultiChannel_I2CFillSlaveTXBuf
                0x4000f5a4                MultiChannel_I2CGetByte
                0x4000f5cc                MultiChannel_I2CRXAvail
                0x4000f5f4                MultiChannel_I2CTXAvail
                0x4000f61c                I2CMultiChannelResetPeripheral
 *fill*         0x4000f688        0x8 
 .text          0x4000f690      0x19c C:\Nburn/lib/DBNANO54415.a(bspa.od)
                0x4000f690                CatchNullWrites
                0x4000f6a0                _cache_inval
                0x4000f6c0                _cache_push
                0x4000f6e0                _cache_flush
                0x4000f720                PushCacheLines
                0x4000f770                InvalidateCacheLines
                0x4000f7c0                FlushCacheLines
 .text          0x4000f82c      0x4de C:\Nburn/lib/DBNANO54415.a(defpins.od)
                0x4000f82c                _Z14SetDefPinUsagev
 *fill*         0x4000fd0a        0x2 
 .text          0x4000fd0c     0x360c C:\Nburn/lib/DBNANO54415.a(ethernet.od)
                0x4000fd28                _ZN12EthernetVars19ProcessDuplexStatusEt
                0x40010238                _ZN12EthernetVars15ProcessRxBufferEP11pool_buffer
                0x4001063c                _Z17Ether_ProcessTaskPv
                0x400107d4                _ZN12EthernetVars9RxIsrProcERVmmm
                0x40010b34                _Z15fake_rxenetisr0v
                0x40010b38                rxenetisr0
                0x40010b88                real_rxenetisr0
                0x40010bcc                _Z15fake_txenetisr0v
                0x40010bd0                txenetisr0
                0x40010c20                real_txenetisr0
                0x40010c5c                _Z15fake_rxenetisr1v
                0x40010c60                rxenetisr1
                0x40010cb0                real_rxenetisr1
                0x40010cf4                _Z15fake_txenetisr1v
                0x40010cf8                txenetisr1
                0x40010d48                real_txenetisr1
                0x40010d84                _ZN12EthernetVars9TxIsrProcERVmmm
                0x400110f0                _ZN12EthernetVars17EthTransmitBufferEP11pool_buffer
                0x40011364                _ZN12EthernetVars6GetMIIEh
                0x40011394                _ZN12EthernetVars6GetMIIEhh
                0x40011478                _ZN12EthernetVars6SetMIIEht
                0x400114bc                _ZN12EthernetVars6SetMIIEhht
                0x400115b4                _ZN12EthernetVars9ResetEnetEv
                0x40011cd8                _ZN12EthernetVars14ResetEnetPart2Ev
                0x400125a0                _ZN12EthernetVars16ReadyDescriptorsEv
                0x40012738                _ZN12EthernetVars13WarmEnetResetEv
                0x4001287c                _ZN12EthernetVars8StopEnetEv
                0x40012900                _ZN12EthernetVars18InitializeEthernetEiiR6MACADR
                0x40012ce4                _Z13EthMultifunc06MACADRh
                0x40012d34                _Z18EthTransmitBuffer0P11pool_buffer
                0x40012d50                _Z9StopEnet0v
                0x40012d68                _Z10EtherLink0v
                0x40012db8                _Z20AddEthernetInterfacev
                0x40012efc                _ZN12EthernetVars20ManualEthernetConfigEhhh
                0x40012fac                _ZN12EthernetVars14SetPromiscuousEh
                0x40012fec                _ZN12EthernetVars10DisablePHYEv
                0x400130bc                _ZN12EthernetVars9EnablePHYEv
                0x40013150                _Z9EtherLinkv
                0x40013184                _Z11EtherDuplexv
                0x400131b8                _Z13EtherSpeed100v
                0x400131ec                _Z10DisablePHYv
                0x40013204                _Z9EnablePHYv
                0x4001321c                _Z20ManualEthernetConfighhh
                0x40013264                _Z14SetPromiscuoush
 .text          0x40013318     0x1698 C:\Nburn/lib/DBNANO54415.a(etherprint.od)
                0x40013318                _ZN12EthernetVars9EtherLinkEv
                0x40013368                _ZN12EthernetVars13EtherSpeed100Ev
                0x40013538                _ZN12EthernetVars11EtherDuplexEv
                0x40013708                _ZN12EthernetVars14ShowLinkStatusEv
                0x400137b0                _Z10showbinarytt
                0x4001385c                _ZN12EthernetVars7ShowMIIEhhPKct
                0x400138e4                _ZN12EthernetVars13ShowPhyterMIIEv
                0x40013c64                _ZN12EthernetVars16ShowFECRegistersEv
                0x4001425c                _Z16ShowESWRegistersv
                0x40014648                _Z5denetv
                0x40014660                _Z5dEnetv
                0x40014678                DoDumpEnet
                0x400146b8                _Z9RawGetMIIhh
                0x4001476c                _Z6SetMIIhht
                0x4001481c                _Z13SwitchMIIPagem
                0x40014848                _Z9EtherInitv
 .text          0x400149b0      0x7b2 C:\Nburn/lib/DBNANO54415.a(emulticast.od)
                0x400149b0                _Z15GetMultiCastCRC6MACADR
                0x40014a28                _ZN12EthernetVars18EthEnableMulticastE6MACADR
                0x40014cd0                _ZN12EthernetVars19EthDisableMulticastE6MACADR
                0x40014f48                _Z18EthEnableMulticast6MACADR
                0x40015038                _Z19EthDisableMulticast6MACADR
 *fill*         0x40015162        0x2 
 .text          0x40015164      0xc42 C:\Nburn/lib/DBNANO54415.a(SPIFlash.od)
                0x40015164                _ZN8SPIFlashC2Ei
                0x40015164                _ZN8SPIFlashC1Ei
                0x400151ac                _ZN8SPIFlash9SendSPITXEhi
                0x40015220                _ZN8SPIFlash7DoSpiRxEv
                0x40015264                _ZN8SPIFlashD2Ev
                0x40015264                _ZN8SPIFlashD1Ev
                0x40015270                _ZN8SPIFlash8SpiStartEv
                0x40015288                _ZN8SPIFlash12SpiFrameWaitEv
                0x400152b0                _ZN8SPIFlash9SpiAscCmdEPKc
                0x40015498                _ZN8SPIFlash11WriteEnableEb
                0x400154ac                _ZN8SPIFlash11QFlushSPIRXEv
                0x400154fc                _ZN8SPIFlash9WriteDataEPhii
                0x40015720                _ZN8SPIFlash15WriteDataWEraseEPhii
                0x4001579c                _ZN8SPIFlash10EraseRangeEii
                0x400157f8                _ZN8SPIFlash11EraseSectorEi
                0x400158fc                _ZN8SPIFlash7JedecIdEv
                0x40015974                _ZN8SPIFlash9UniqueIdMEv
                0x40015a30                _ZN8SPIFlash9UniqueIdLEv
                0x40015b14                _ZN8SPIFlash6ReadSREv
                0x40015b5c                _ZN8SPIFlash7WriteSREh
                0x40015bd8                _ZN8SPIFlash12WriteEnabledEv
                0x40015bfc                _ZN8SPIFlash12WriteProtectEi
                0x40015c34                _ZN8SPIFlash7ResetMeEv
                0x40015c98                _ZN8SPIFlash8ReadDataEPhii
 *fill*         0x40015da6        0x2 
 .text          0x40015da8       0x4a C:\Nburn/lib/DBNANO54415.a(ethernetauxdb.od)
                0x40015da8                _Z16OSMaxTasksEnetDBv
                0x40015db4                _Z15GetBufferEnetDBv
                0x40015dd0                _Z16FreeBufferEnetDBP11pool_buffer
 *fill*         0x40015df2        0x2 
 .text          0x40015df4      0x370 C:\Nburn/lib/DBNANO54415.a(ether2nd.od)
                0x40015df4                _Z9StopEnet1v
                0x40015e0c                _Z10EtherLink1v
                0x40015e38                _Z18EthTransmitBuffer1P11pool_buffer
                0x40015e78                _Z13EthMultifunc16MACADRh
                0x40015ec8                _Z14Add2ndEthernetv
 .text          0x40016164      0x85a C:\Nburn/lib/DBNANO54415.a(etherswitch.od)
                0x40016164                _Z14UpdateMacTableblPhjj
                0x400163d0                _Z11GetMacEntrymPmS_
                0x4001640c                _Z11SetMacEntrymmm
                0x40016444                _Z13ClearMacTablev
                0x40016474                _Z9crc8_calcPh
                0x400164fc                _Z12InitMacTablev
                0x40016594                _Z17fake_rxeswitchisrv
                0x40016598                rxeswitchisr
                0x400165e8                real_rxeswitchisr
                0x40016618                _Z17fake_txeswitchisrv
                0x4001661c                txeswitchisr
                0x4001666c                real_txeswitchisr
                0x4001669c                _Z14fake_eswlrnisrv
                0x400166a0                eswlrnisr
                0x400166f0                real_eswlrnisr
                0x400167b4                _Z15EtherSwitchInitv
 *fill*         0x400169be        0x2 
 .text          0x400169c0     0x1080 C:\Nburn/lib/DBNANO54415.a(i2c_class.od)
                0x400169c0                _ZN10i2c_master3isrEv
                0x40016d20                _Z34fake_i2c0_multichannel_int_routinev
                0x40016d24                i2c0_multichannel_int_routine
                0x40016d74                real_i2c0_multichannel_int_routine
                0x40016d8c                _Z34fake_i2c1_multichannel_int_routinev
                0x40016d90                i2c1_multichannel_int_routine
                0x40016de0                real_i2c1_multichannel_int_routine
                0x40016df8                _Z34fake_i2c2_multichannel_int_routinev
                0x40016dfc                i2c2_multichannel_int_routine
                0x40016e4c                real_i2c2_multichannel_int_routine
                0x40016e64                _Z34fake_i2c3_multichannel_int_routinev
                0x40016e68                i2c3_multichannel_int_routine
                0x40016eb8                real_i2c3_multichannel_int_routine
                0x40016ed0                _Z34fake_i2c4_multichannel_int_routinev
                0x40016ed4                i2c4_multichannel_int_routine
                0x40016f24                real_i2c4_multichannel_int_routine
                0x40016f3c                _Z34fake_i2c5_multichannel_int_routinev
                0x40016f40                i2c5_multichannel_int_routine
                0x40016f90                real_i2c5_multichannel_int_routine
                0x40016fa8                _Z15i2cModuleSwitchi
                0x40017010                _ZN10i2c_masterC1Ev
                0x40017010                _ZN10i2c_masterC2Ev
                0x40017044                _ZN10i2c_master4initEhh
                0x40017200                _ZN10i2c_master4stopEm
                0x40017270                _ZN10i2c_master6write8Ehm
                0x40017334                _ZN10i2c_master5startEhbm
                0x40017458                _ZN10i2c_master7restartEhbm
                0x40017500                _ZN10i2c_master5read8EPhm
                0x400175a8                _ZN10i2c_master5resetEv
                0x40017650                _ZN10i2c_master14fillSlaveTXBufEPhmb
                0x400177a8                _ZN10i2c_master7getByteEv
                0x4001780c                _ZN10i2c_master7RXAvailEv
                0x4001782c                _ZN10i2c_master7TXAvailEv
                0x40017888                _ZN10i2c_master16SlaveTX_CallBackEv
                0x40017908                _ZN10i2c_master20SlaveTX_NAK_CallBackEv
                0x40017914                _ZN10i2c_master16SlaveRX_CallbackEh
 .text          0x40017a40      0x41a C:\Nburn/lib/DBNetBurner.a(ucosmcfa.od)
                0x40017a40                OSStartHighRdy
                0x40017a60                OSCtxSw
                0x40017a90                OSIntCtxSw
                0x40017ac0                OSTickISR
                0x40017b00                OSSetupVBR
                0x40017b20                OSDebugTraceHalt
                0x40017b30                memcpy
                0x40017b30                fmemcpy
                0x40017c00                memcpysum
                0x40017d90                memset
                0x40017d90                fmemset
                0x40017e30                GetSR_IntLevel
                0x40017e40                SetSR_IntLevel
 *fill*         0x40017e5a        0x2 
 .text          0x40017e5c        0x8 C:\Nburn/lib/DBNetBurner.a(software_init.od)
                0x40017e5c                software_init_hook
 .text          0x40017e64       0x46 C:\Nburn/lib/DBNetBurner.a(main.od)
                0x40017e64                __do_global_ctors
                0x40017e9c                main
 *fill*         0x40017eaa        0x2 
 .text          0x40017eac      0x452 C:\Nburn/lib/DBNetBurner.a(ucosmcfc.od)
                0x40017eac                _Z22TopOfStackKillfunctionv
                0x40017eb0                KillFunctionLink
                0x40017ebc                _Z17OSTaskCreatewNamePFvPvES_S_S_hPKc
                0x40018160                _Z12OSTaskCreatePFvPvES_S_S_h
                0x40018194                _Z9OSTCBInithPvS_PlPKc
 *fill*         0x400182fe        0x2 
 .text          0x40018300     0x1ada C:\Nburn/lib/DBNetBurner.a(ucos.od)
                0x40018300                _Z6OSInitPvS_h
                0x400184a4                _Z7OSStartv
                0x4001853c                OSSched
                0x400185ea                UCOSWAITS_HERE
                0x400185fc                OSIntExit
                0x400186bc                _Z9OSTimeDlyt
                0x400187b4                _Z15OSChangeTaskDlytt
                0x40018870                OSTimeTick
                0x4001898c                _Z12OSTCBGetFreev
                0x400189c8                _Z6OSLockv
                0x400189f0                _Z8OSUnlockv
                0x40018a40                _Z12OSChangePrioh
                0x40018bdc                _Z12OSTaskDeletev
                0x40018d40                _ZN15OS_TASK_DLY_OBJC2Ev
                0x40018d40                _ZN15OS_TASK_DLY_OBJC1Ev
                0x40018d58                _ZN6OS_SEM5ClaimEv
                0x40018dd4                _ZN6OS_SEM4InitEl
                0x40018e3c                _ZN6OS_SEM4PendEm
                0x40018f68                _ZN6OS_SEM10PendNoWaitEv
                0x40018fa0                _ZN6OS_SEM4PostEv
                0x40019004                _ZN7OS_MBOX4InitEPv
                0x40019050                _ZN7OS_MBOX4PendEPPvm
                0x400191d4                _ZN7OS_MBOX10PendNoWaitEPPv
                0x40019234                _ZN7OS_MBOX4PostEPv
                0x40019284                _ZN4OS_Q4InitEPPvh
                0x4001930c                _ZN4OS_Q4PendEPPvm
                0x400194e0                _ZN4OS_Q10PendNoWaitEPPv
                0x40019570                _ZN4OS_Q4PostEPv
                0x40019614                _ZN4OS_Q10PostUniqueEPv
                0x40019694                _ZN4OS_Q9PostFirstEPv
                0x40019744                _ZN7OS_FIFO4InitEv
                0x4001977c                _ZN7OS_FIFO4PendEPPV10os_fifo_elm
                0x400198d4                _ZN7OS_FIFO10PendNoWaitEPPV10os_fifo_el
                0x40019948                _ZN7OS_FIFO4PostEP10os_fifo_el
                0x400199a0                _ZN7OS_FIFO9PostFirstEP10os_fifo_el
                0x400199f0                getpid
                0x40019a0c                _ZN7OS_CRIT4InitEv
                0x40019a48                _ZN7OS_CRIT12LockAndEnterEm
                0x40019a7c                _ZN7OS_CRIT5EnterEm
                0x40019c5c                _ZN7OS_CRIT11EnterNoWaitEv
                0x40019d00                _ZN7OS_CRIT14LeaveAndUnlockEv
                0x40019d18                _ZN7OS_CRIT5LeaveEv
                0x40019d9c                _Z8OSTaskIDv
                0x40019db0                _Z9OSSetNamePKc
                0x40019dc8                _Z10OSTaskNamev
 *fill*         0x40019dda        0x2 
 .text          0x40019ddc       0x44 C:\Nburn/lib/DBNetBurner.a(cppmain.od)
                0x40019ddc                cppmain
 .text          0x40019e20      0x18c C:\Nburn/lib/DBNetBurner.a(debugtrap.od)
                0x40019e20                _Z6WDEBUGhm
                0x40019e84                _Z21SetAddressWrittenTrapm
                0x40019ec8                _Z24SetAddressWriteRangeTrapmm
                0x40019f18                _Z18SetAddressReadTrapm
                0x40019f5c                _Z23SetAddressReadRangeTrapmm
 .text          0x40019fac      0x470 C:\Nburn/lib/DBNetBurner.a(ucosmain.od)
                0x40019fac                UCosSetup
                0x40019ffc                __malloc_lock
                0x4001a024                __malloc_unlock
                0x4001a048                balloc_lock
                0x4001a070                balloc_unlock
                0x4001a094                _Z9UCosBeginv
                0x4001a168                _Z11OSDumpStackv
                0x4001a350                _Z22EnableOSStackProtectorv
                0x4001a368                OSStackProtector
                0x4001a3aa                OSStackProtectCtxSw
 .text          0x4001a41c      0x94e C:\Nburn/lib/DBNetBurner.a(fileio.od)
                0x4001a41c                ioctl
                0x4001a4d0                close
                0x4001a534                open
                0x4001a54c                _Z8rawwriteiPKci
                0x4001a5e4                write
                0x4001a764                isatty
                0x4001a77c                read
                0x4001aa90                lseek
                0x4001aaa8                fstat
                0x4001aac8                _Z11stdioinbytei
                0x4001ab54                charavail
                0x4001ab90                _Z5getsnPci
                0x4001ac40                ReplaceStdio
                0x4001ad10                CurrentStdioFD
                0x4001ad3c                fcntl
                0x4001ad48                _Z7outbytec
 *fill*         0x4001ad6a        0x2 
 .text          0x4001ad6c      0x988 C:\Nburn/lib/DBNetBurner.a(system.od)
                0x4001ad6c                _Z9isvalidcrP12ConfigRecord
                0x4001ae04                _Z12RawGetConfigi
                0x4001ae38                _Z14GetValidConfigi
                0x4001ae6c                _Z22UpdateConfigRecord_NumP12ConfigRecordi
                0x4001b0c4                _Z18UpdateConfigRecordP12ConfigRecord
                0x4001b0dc                _Z8ReadLinePci
                0x4001b398                _Z10IpQuestionPKcP7IPADDR4
                0x4001b4a4                _Z10ShowChangePKcP7IPADDR4PKS1_
                0x4001b528                _Z11SetupDialogv
 .text          0x4001b6f4     0x17d2 C:\Nburn/lib/DBNetBurner.a(utils.od)
                0x4001b6f4                kill
                0x4001b700                _exit
                0x4001b708                _fini
                0x4001b714                _Z14DiagMenuPickerih
                0x4001b764                _Z13sShowCountersPci
                0x4001b814                _Z13fShowCountersP7__sFILE
                0x4001b890                _Z12ShowCountersv
                0x4001b900                _Z8fShowMacP7__sFILEP6MACADR
                0x4001b984                _Z7ShowMacP6MACADR
                0x4001ba04                _Z9snShowMacPcmP6MACADR
                0x4001ba8c                _Z7MacToIDP6MACADRPc
                0x4001bb68                _Z7ShowIP47IPADDR4
                0x4001bbd0                _Z9snShowIP4Pcm7IPADDR4
                0x4001bc3c                _Z8fShowIP4P7__sFILE7IPADDR4
                0x4001bca8                _Z10AsciiToIp4PKc
                0x4001bd78                _Z9ValidIPv4PKc
                0x4001be40                _ZNK7IPADDR45printEv
                0x4001be68                _ZNK7IPADDR47fdprintEi
                0x4001bea4                _ZNK7IPADDR47sprintfEPci
                0x4001bed8                _ZN7IPADDR412SetFromAsciiEPKc
                0x4001bf04                _Z8ShowDataPKht
                0x4001c7d4                _Z9FancyDumpPhi
                0x4001c90c                __builtin_delete
                0x4001c9a8                _Z23convertBinaryToHexAsciiPhjS_j
                0x4001caa4                _Z23convertHexAsciiToBinaryPhjS_j
                0x4001cb10                _Z7bufnstrPKcS0_m
                0x4001cba0                _Z7AskTestPKcm
                0x4001cc8c                _Z11SetLogLevelv
                0x4001cd9c                _Z10putbytenumh
                0x4001ce44                _Z6putnumi
 *fill*         0x4001cec6        0x2 
 .text          0x4001cec8     0x2090 C:\Nburn/lib/DBNetBurner.a(ip.od)
                0x4001cec8                _Z12AddInterface7IPADDR4S_S_i
                0x4001d088                _Z22GetMultiHomeInterface47IPADDR4i
                0x4001d138                _Z20GetLocalIPInterface47IPADDR4
                0x4001d1c0                _Z8IsLocal47IPADDR4i
                0x4001d25c                _Z11IsBroadCast7IPADDR4i
                0x4001d2e4                GetSum
                0x4001d368                GetSum20
                0x4001d464                GetSumHdr
                0x4001d57c                _Z7GetDataP5IPPKT
                0x4001d5cc                _Z7IsMyIp47IPADDR4
                0x4001d608                _Z16FixHeaderAndSendP11pool_bufferP5IPPKT
                0x4001d8b8                _Z28FixHeaderAndSendViaInterfaceP11pool_bufferP5IPPKTi
                0x4001db04                _Z9SaveErrorP11pool_buffer
                0x4001db70                _Z13process_icmp4P11pool_bufferP5IPPKTt
                0x4001dd5c                _Z10DoIPPacketP11pool_bufferP6EFRAMEt
                0x4001e0b0                _Z16InitializeCStack7IPADDR4S_S_S_
                0x4001e134                _Z15InitializeStack7IPADDR4S_S_S_
                0x4001e33c                _Z9KillStackv
                0x4001e34c                _Z15PrepareIPOutputP11pool_buffer7IPADDR4t
                0x4001e3ac                _Z9FixUpICMPP5IPPKThhPht
                0x4001e46c                _Z9SendPing47IPADDR4tti
                0x4001e5cc                _Z13SendICMPErrorP11pool_bufferhh
                0x4001e6a8                _Z5Ping47IPADDR4ttt
                0x4001e710                _Z17Ping4ViaInterface7IPADDR4ttti
                0x4001e90c                _Z6IPTaskPv
                0x4001ebd4                _Z23IpProcessEthernetPacketP11pool_buffert
                0x4001ee54                _Z16GetEphemeralPortv
 .text          0x4001ef58     0x1a8c C:\Nburn/lib/DBNetBurner.a(buffers.od)
                0x4001ef58                _Z15ShowBuffers_Webi
                0x4001f250                _Z11ShowBuffersv
                0x4001f41c                _Z11DumpBuffersv
                0x4001f628                _Z11InitBuffersv
                0x4001f6b0                _Z13IncUsageCountP11pool_buffer
                0x4001f6f0                _Z11FreeBufferXP11pool_bufferPKci
                0x4001f784                _Z14FreeBufferListP11pool_buffer
                0x4001f7c0                _Z10GetBufferXPKci
                0x4001f834                _Z12ChangeOwnerXP11pool_bufferPKci
                0x4001f85c                _Z12GetFreeCountv
                0x4001f874                _ZN11buffer_list10InsertHeadEP11pool_buffer
                0x4001f90c                _ZN11buffer_list10InsertTailEP11pool_buffer
                0x4001f9a0                _ZN11buffer_list12InsertBeforeEP11pool_bufferS1_
                0x4001fa44                _ZN11buffer_list11InsertAfterEP11pool_bufferS1_
                0x4001fae8                _ZN11buffer_list6RemoveEP11pool_buffer
                0x4001fbb8                _ZN11buffer_list10RemoveHeadEv
                0x4001fc68                _ZN11buffer_list10RemoveTailEv
                0x4001fd0c                _Z10ShowBufferP11pool_buffer
                0x4001fe74                _ZN19fifo_buffer_storage14LongSpaceAvailEv
                0x4001ff0c                _ZN19fifo_buffer_storage10SpaceAvailEv
                0x4001ff38                _ZN19fifo_buffer_storage9SpaceUsedEv
                0x4001ff4c                _ZN19fifo_buffer_storage8ReadDataEPhi
                0x400200e0                _ZN19fifo_buffer_storage12ReadDatawSumEPhiRm
                0x40020354                _ZN19fifo_buffer_storage9WriteDataEPhi
                0x40020764                _ZN19fifo_buffer_storageC2Ehh
                0x40020764                _ZN19fifo_buffer_storageC1Ehh
                0x400207ac                _ZN19fifo_buffer_storageD2Ev
                0x400207ac                _ZN19fifo_buffer_storageD1Ev
                0x400207c4                _ZN19fifo_buffer_storage4InitEhh
                0x4002083c                _ZN19fifo_buffer_storage13SetMaxBuffersEh
                0x4002087c                _ZN19fifo_buffer_storage5ResetEh
                0x40020920                _ZN19fifo_buffer_storage5EmptyEv
                0x40020938                _ZN19fifo_buffer_storage4FullEv
 .text          0x400209e4     0x29b4 C:\Nburn/lib/DBNetBurner.a(arp.od)
                0x400209e4                _Z6IsNullP9ArpRecord
                0x400209fc                _Z25GetInterfaceForMyAddress47IPADDR4
                0x40020a9c                _Z9GetSrcIp47IPADDR4
                0x40020c5c                _Z19GetProperInterface47IPADDR4
                0x40020d88                _Z13InitializeArpv
                0x40020e94                _Z7FindArp7IPADDR4
                0x40021164                _Z10FindAddArp7IPADDR4
                0x400215d0                _Z12AddStaticArpP6MACADR7IPADDR4i
                0x40021650                _Z9DeleteArpP9ArpRecord
                0x400218c0                _Z11GetFirstArpv
                0x40021924                _Z10GetNextArpP9ArpRecord
                0x400219b4                _Z7Cleanupv
                0x400219c0                _Z10FreeOneArpv
                0x40021a60                _Z8fShowArpP7__sFILE
                0x40021b5c                _Z7ShowArpv
                0x40021c3c                _Z10processArpP11pool_bufferP6EFRAME
                0x400221a4                _Z10RawSendArpP9ArpRecord7IPADDR4i
                0x40022334                _Z17sendGratuitousArpi
                0x400224a8                _Z7SendArpP9ArpRecordi
                0x40022518                _Z6AgeArpv
                0x40022664                _Z6SetMacP9ArpRecord6MACADRi
                0x4002272c                _Z10AddPendingP6MACADR7IPADDR4i
                0x400227a4                _Z11AddCheckArpP6MACADR7IPADDR4i
                0x4002285c                _Z8NeedsArpi
                0x400228b0                _Z8RouteOutP6EFRAME7IPADDR4P11pool_buffer
                0x40022ccc                _Z11RouteOutViaP6EFRAME7IPADDR4P11pool_bufferi
                0x40023030                _Z8MacEqual6MACADRS_
                0x4002309c                _Z24IsMyAddressUsedArpDetectti
                0x4002326c                _Z15DeleteArpFromIp7IPADDR4
                0x400232a8                _Z15GetArpMacFromIp7IPADDR4R6MACADR
 .text          0x40023398     0x2478 C:\Nburn/lib/DBNetBurner.a(udp.od)
                0x40023398                _Z13GetUdpFifoRecti
                0x40023460                _ZN9UDPPacketC2EP11pool_buffer
                0x40023460                _ZN9UDPPacketC1EP11pool_buffer
                0x4002348c                _ZN9UDPPacketC1ERS_
                0x4002348c                _ZN9UDPPacketC2ERS_
                0x400234a4                _ZN9UDPPacketC1Eb
                0x400234a4                _ZN9UDPPacketC2Eb
                0x40023518                _ZN9UDPPacketC1EP7OS_FIFOm
                0x40023518                _ZN9UDPPacketC2EP7OS_FIFOm
                0x40023570                _ZN9UDPPacket4SwapERS_
                0x400235e0                _ZN9UDPPacketD2Ev
                0x400235e0                _ZN9UDPPacketD1Ev
                0x40023628                _ZN9UDPPacketaSERS_
                0x4002366c                _ZN9UDPPacket13SetSourcePortEt
                0x40023698                _ZNK9UDPPacket13GetSourcePortEv
                0x400236bc                _ZN9UDPPacket17GetSourceAddress4Ev
                0x40023704                _ZN9UDPPacket22GetDestinationAddress4Ev
                0x4002374c                _ZN9UDPPacket11GetPacketIdEv
                0x40023774                _ZN9UDPPacket18SetDestinationPortEt
                0x400237a4                _ZNK9UDPPacket18GetDestinationPortEv
                0x400237c8                _ZN9UDPPacket20GetRecievedInterfaceEv
                0x400237f0                _ZN9UDPPacket13GetDataBufferEb
                0x40023878                _ZN9UDPPacket11SetDataSizeEt
                0x400238ac                _ZNK9UDPPacket11GetDataSizeEv
                0x400238d4                _ZN9UDPPacket7AddDataEPKht
                0x400239ac                _ZN9UDPPacket7AddDataEPKc
                0x400239dc                _ZN9UDPPacket11AddDataWordEt
                0x40023a0c                _ZN9UDPPacket11AddDataByteEh
                0x40023a34                _ZN9UDPPacket9ResetDataEv
                0x40023a4c                _ZN9UDPPacket11GetIpPacketEv
                0x40023a64                _ZN9UDPPacket12SendAndKeep4E7IPADDR4h
                0x40023adc                _ZN9UDPPacket5Send4E7IPADDR4h
                0x40023c74                _ZN9UDPPacket20SendViaInterfaceNum4E7IPADDR4ih
                0x40023dd4                _ZN9UDPPacket8ValidateEv
                0x40023edc                _Z18RegisterUDPFifoViatP7OS_FIFOi
                0x40024010                _Z28RegisterUDPFifoWithNotifyViatP7OS_FIFOPFvS0_tEi
                0x40024148                _Z15RegisterUDPFifotP7OS_FIFO
                0x40024170                _Z25RegisterUDPFifoWithNotifytP7OS_FIFOPFvS0_tE
                0x4002419c                _Z17UnregisterUDPFifotb
                0x40024300                _Z24RegisterEphemeralFifoViaP7OS_FIFOi
                0x40024378                _Z21RegisterEphemeralFifoP7OS_FIFO
                0x40024390                _Z15FixIDDataPacketR9UDPPacketP15_InterfaceBlock
                0x400244c4                _Z13FixWifiConfigR12ConfigRecord
                0x400246c4                _Z15FixIDDataPacketR9UDPPacketi
                0x400246e8                _Z15ProcessIDPacketR9UDPPacketi
                0x40025094                _ZN9UDPPacket15process_all_udpEv
                0x400254cc                _Z12process_udp4P11pool_bufferP5IPPKTt
                0x4002556c                _ZN9UDPPacket15SendandKeepCopyEP11pool_buffer
                0x40025604                _ZN9UDPPacket21SendAndKeepViaIfAddr4E7IPADDR4S0_h
                0x400256b0                _ZN9UDPPacket14SendViaIfAddr4E7IPADDR4S0_h
                0x40025720                _Z24RegisterEphemeralFifoViaP7OS_FIFO7IPADDR6
                0x40025764                _Z18RegisterUDPFifoViatP7OS_FIFO7IPADDR6
                0x400257b8                _Z28RegisterUDPFifoWithNotifyViatP7OS_FIFOPFvS0_tE7IPADDR6
 .text          0x40025810     0x35e0 C:\Nburn/lib/DBNetBurner.a(ftpd.od)
                0x40025878                _Z12FTPDDoAcceptv
                0x400259f0                _Z8UserFunci
                0x40025a68                _Z8PassFunci
                0x40025b88                _Z7PwdFunci
                0x40025c70                _Z8QUITFunci
                0x40025d74                _Z12FTPdRawErrori
                0x40025e68                _Z13Return202Funci
                0x40025e9c                _Z13Return200Funci
                0x40025ed0                _Z8STRUFunci
                0x40025f9c                _Z8TYPEFunci
                0x40026014                _Z8MODEFunci
                0x400260e0                _Z8PASVFunci
                0x40026380                _Z8PORTFunci
                0x400266cc                _Z9GetDataFdi
                0x40026a14                _Z8RETRFunci
                0x40026c4c                _Z11FilterMatchPKcS0_
                0x40026c58                _Z12NLSTCallBackiPKc
                0x40026ce0                _Z12LISTCallBackiPKc
                0x40026d68                _Z13DLISTCallBackiPKc
                0x40026df0                _Z12SIZECallBackiPKc
                0x40026e78                _Z8NLSTFunci
                0x40027024                _Z8LISTFunci
                0x40027254                _Z7RMDFunci
                0x40027410                _Z7MKDFunci
                0x400276cc                _Z8DELEFunci
                0x40027828                _Z8STORFunci
                0x40027a60                _Z7TrimDirPc
                0x40027ac4                _Z7CWDFunci
                0x40027e78                _Z8CDUPFunci
                0x40027ed0                _Z8RNFRFunci
                0x40027fd8                _Z8RNTOFunci
                0x40028138                _Z8SIZEFunci
                0x4002829c                _Z8SYSTFunci
                0x400282d0                _Z8HELPFunci
                0x400283c4                _Z14FTPdRawCommandi
                0x400284c8                _Z11FTPdRawReadi
                0x400289bc                _Z8FTPdTaskPv
                0x40028c74                _Z9FTPDStartth
                0x40028d40                _Z11FTPDStopReqv
 .text          0x40028df0     0xae24 C:\Nburn/lib/DBNetBurner.a(tcp.od)
                0x40028df0                _Z11GetFirstSeqv
                0x40028e2c                _ZN13socket_struct8SetStateEi
                0x40028e64                _Z12ValidateTCP4P5IPPKTt
                0x40028f5c                _Z20FixHeaderAndSendTcp4P11pool_bufferP5IPPKTP13socket_struct
                0x40029150                _Z12TcpSendwSum4P13socket_struct7IPADDR4R16TcpCarrierPackethm
                0x4002946c                _Z11TcpSendwSumP13socket_structRK7IPADDR6R16TcpCarrierPackethm
                0x400294ec                _Z15TcpSendwSumFromRK7IPADDR6S1_R16TcpCarrierPackethm
                0x4002956c                _Z7TcpSendP13socket_structRK7IPADDR6R16TcpCarrierPacketh
                0x40029678                _Z13SendTcpSynRstR16TcpCarrierPacket
                0x4002975c                _Z10SendTcpRstR16TcpCarrierPacket
                0x4002986c                _Z16core_process_tcpR16TcpCarrierPacket
                0x400299b4                _Z16core_process_tcpP11pool_buffer
                0x40029a14                _Z12process_tcp6R25IPv6FrameProcessingStruct
                0x40029a94                _Z12process_tcp4P11pool_bufferP5IPPKTt
                0x40029b10                _Z7InitTCPv
                0x40029cb8                _Z10FREESOCKETP13socket_struct
                0x40029d90                _Z23RemoveFromUserCloseListP13socket_struct
                0x40029ea0                _Z13GetFreeSocketv
                0x40029fdc                _Z8connect47IPADDR4ttm
                0x4002a048                _ZN13socket_struct11CoreConnectE7IPADDR6ttS0_
                0x4002a508                _Z15NoBlockConnect47IPADDR4ttS_
                0x4002a5f8                _Z18NoBlockconnectvia47IPADDR4ttS_
                0x4002a6f4                _Z15NoBlockConnect6RK7IPADDR6ttS1_
                0x4002a780                _Z11connectvia47IPADDR4ttmS_
                0x4002a94c                _Z8connect47IPADDR4ttmS_
                0x4002aa40                _Z8connect6RK7IPADDR6ttm
                0x4002aa90                _Z8connect6RK7IPADDR6ttmS1_
                0x4002abec                _Z7listen47IPADDR4th
                0x4002ad60                _Z7listen6RK7IPADDR6th
                0x4002aeb8                _Z9listenvia7IPADDR6thi
                0x4002b000                _Z9listenvia7IPADDR6thS_
                0x4002b0a8                _Z7accept6iP7IPADDR6Ptt
                0x4002b4bc                _Z7accept4iP7IPADDR4Ptt
                0x4002b554                _Z16FindListenSocketR16TcpCarrierPacket
                0x4002b66c                _Z16FindListenSocketP13socket_struct
                0x4002b764                _Z12GetTcpSocketR16TcpCarrierPacket
                0x4002b7f8                _ZN13socket_struct7processER16TcpCarrierPacket
                0x4002c528                _ZN13socket_struct18MyAdvertisedWindowEv
                0x4002c5f0                _ZN13socket_struct10OpenWindowEv
                0x4002c664                _Z10fixoverlapmmRmS_
                0x4002c760                _ZN13socket_struct9SendStateEtP11pool_buffer
                0x4002c7e8                _ZN13socket_struct9SendStateEtR16TcpCarrierPacket
                0x4002cf20                _ZN13socket_struct14processoptionsER16TcpCarrierPacket
                0x4002d120                _Z12TCPTimerTaskPv
                0x4002d2d0                _ZN13socket_struct8SetTimerEm
                0x4002d348                _ZN13socket_struct12ProcessTimerEv
                0x4002d4b8                _ZN13socket_struct8SaveDataEPhth
                0x4002d5f0                _Z14getsocketerrori
                0x4002d638                _Z19GetSocketLocalAddr4i
                0x4002d6a0                _Z20GetSocketRemoteAddr4i
                0x4002d700                _Z20GetSocketRemoteAddr6i
                0x4002d768                _Z19GetSocketLocalAddr6i
                0x4002d7c8                _Z19GetSocketRemotePorti
                0x4002d810                _Z18GetSocketLocalPorti
                0x4002d858                _Z21_Socket_Private_closei
                0x4002d9d4                _Z19SockReadWithTimeoutiPcim
                0x4002dd4c                _Z20_Socket_Private_readiPci
                0x4002dd6c                _Z21_Socket_Private_writeiPKci
                0x4002e0d8                _Z11abortsocketi
                0x4002e244                _ZN13socket_struct9DoRawSendEv
                0x4002e84c                _ZN13socket_struct10ProcessAckER16TcpCarrierPacket
                0x4002ec94                _ZN13socket_struct7CalcRTOEm
                0x4002ed54                _ZN13socket_struct12DoRetransmitEh
                0x4002ef9c                _ZN13socket_struct7DoCloseEi
                0x4002f3b0                _ZN13socket_struct19SetUpNextRetransmitEv
                0x4002f4b8                _ZN13socket_struct22CleanUpDeletedListenerEv
                0x4002f4f4                _ZN13socket_struct10ProcessRSTEv
                0x4002f5dc                _ZN13socket_struct10ProcessFINER16TcpCarrierPackett
                0x4002f838                _Z13setsockoptionii
                0x4002f894                _Z13getsockoptioni
                0x4002f8dc                _Z13clrsockoptionii
                0x4002f994                _Z19setsocketackbuffersih
                0x4002f9e8                _Z18SetSocketRxBuffersii
                0x4002fa48                _Z18SetSocketTxBuffersii
                0x4002faa8                _ZN13socket_struct14TestOutofOrderEv
                0x4002fe90                _ZN13socket_struct18ProcessDataSegmentER16TcpCarrierPackettPh
                0x4003026c                _ZN13socket_struct9DoCleanupEv
                0x400304fc                _ZN13socket_struct12ClearPendingEi
                0x40030574                _ZN13socket_struct14ShowSocketInfoEv
                0x40030818                _ZN13socket_struct14ShowSocketInfoEb
                0x40030884                _Z14DebugTraceFuncP13socket_structP16TcpCarrierPacketti
                0x40030ae0                _Z14EnableTcpDebugt
                0x40030afc                _Z15RawDumpTcpDebugP13socket_struct
                0x40031068                _Z12DumpTcpDebugv
                0x4003107c                _Z13DumpTcpPacketR16TcpCarrierPacket
                0x400314cc                _ZN14HashSocketListC1Ev
                0x400314cc                _ZN14HashSocketListC2Ev
                0x400314d8                _ZNK14HashSocketList4InitEv
                0x40031500                _ZNK14HashSocketList10findsocketER16TcpCarrierPacket
                0x40031680                _ZNK14HashSocketList9AddSocketEP13socket_struct
                0x40031774                _ZNK14HashSocketList12RemoveSocketEP13socket_struct
                0x40031864                _ZN15ShortSocketList12GetFreeShortEv
                0x40031b08                _ZNK15ShortSocketList9FreeShortEP11ShortSocket
                0x40031b6c                _ZN15ShortSocketListC2Ev
                0x40031b6c                _ZN15ShortSocketListC1Ev
                0x40031b90                _ZN15ShortSocketList4InitEv
                0x40031bdc                _ZN15ShortSocketList9AddSocketEP13socket_struct
                0x40031dac                _ZNK15ShortSocketList7processER16TcpCarrierPacket
                0x4003224c                _ZN15ShortSocketList11processTickEv
                0x400323b4                _ZNK15ShortSocketList10findsocketER16TcpCarrierPacket
                0x40032538                _Z11GetTcpStatei
                0x40032588                _Z21RegisterTCPReadNotifyiPFviE
                0x400325d0                _Z14GetTcpRtxCounti
                0x40032660                _Z20SetOutOfOrderbuffersih
                0x400326c0                _Z16TcpGetLastRxTimei
                0x40032708                _Z16TcpSendKeepAlivei
                0x400327cc                _Z15ShowFdTcpSocketi
                0x40032c54                _Z18GetFreeSocketCountv
                0x40032cf8                _Z17TcpGetSocketStatei
                0x40032d48                _Z20TcpGetLastRxIntervali
                0x40032dc4                _Z23TcpGetRxBufferSpaceUsedi
                0x40032e20                _Z24TcpGetTxBufferAvailSpacei
                0x40032e7c                _Z15TcpAllDataAckedi
                0x40032eec                _Z18WaitForSocketFlushim
                0x40032f50                _ZN16TcpCarrierPacket20SourceShouldLoopBackEv
                0x40033010                _ZN16TcpCarrierPacket15GetSourceIpHashEv
                0x40033044                _ZN16TcpCarrierPacket20GetDestinationIpHashEv
                0x40033078                _ZN13socket_struct24CreateInitOutBoundPacketER16TcpCarrierPackettP11pool_buffer
                0x40033150                _ZN16TcpCarrierPacket10IsSourceIPERK7IPADDR6
                0x40033210                _ZN16TcpCarrierPacket16GetDestinationIPEv
                0x4003327c                _ZN16TcpCarrierPacket11GetSourceIPEv
                0x400332e4                _ZN16TcpCarrierPacket9GetDefMssERK7IPADDR6
                0x40033340                _ZN16TcpCarrierPacketC1EP11pool_buffer
                0x40033340                _ZN16TcpCarrierPacketC2EP11pool_buffer
                0x40033454                _ZN16TcpCarrierPacketC1ER25IPv6FrameProcessingStruct
                0x40033454                _ZN16TcpCarrierPacketC2ER25IPv6FrameProcessingStruct
                0x4003346c                _ZN16TcpCarrierPacket15InitIPv6CarrierER25IPv6FrameProcessingStruct
                0x40033534                _ZN16TcpCarrierPacket9InitBlankEP11pool_bufferb
                0x4003369c                _Z6BeToLet
                0x400336dc                _Z6BeToLem
                0x40033734                _Z6BeToLes
                0x40033774                _Z6BeToLel
                0x400337cc                _Z6BeToLef
                0x40033824                _Z6BeToLed
                0x400338c0                _ZN16TcpCarrierPacketC2Eb
                0x400338c0                _ZN16TcpCarrierPacketC1Eb
                0x40033904                _ZN16TcpCarrierPacket15SetOutBoundSizeEt
                0x40033964                _Z32GetProperInterfaceForDestinationRK7IPADDR6
                0x400339c4                _Z7IsLocalRK7IPADDR6i
                0x40033a2c                _Z28GetInterfaceNumberFromMyAddr7IPADDR6
                0x40033a8c                _Z18GetSocketInterfacei
 .text          0x40033c14      0x3c6 C:\Nburn/lib/DBNetBurner.a(extraio.od)
                0x40033c14                _Z10ExpandReadiPci
                0x40033c74                _Z11ExpandWriteiPKci
                0x40033cd4                _Z11ExpandClosei
                0x40033d2c                _Z10InitExtrasv
                0x40033d70                _Z10GetExtraFDPvP14IoExpandStruct
                0x40033d8c                _Z15GetExtraFDwIntfPvP14IoExpandStructi
                0x40033e58                _Z11FreeExtraFdi
                0x40033eb8                _Z12GetExtraDatai
                0x40033eec                _Z12SetExtraDataiPv
                0x40033f20                _Z17GetExtraExtraDatai
                0x40033f58                _Z17GetExtraInterfacei
                0x40033f8c                _Z19GetFreeExtraFDCountv
 *fill*         0x40033fda        0x2 
 .text          0x40033fdc      0xa80 C:\Nburn/lib/DBNetBurner.a(http.od)
                0x40033fdc                _Z18processHttpRequestPPcS_S_iR12HTTP_Request
                0x4003413c                _Z8HttpMainPv
                0x400349b0                _Z9StartHTTPt
 .text          0x40034a5c     0x1616 C:\Nburn/lib/DBNetBurner.a(httpinternal.od)
                0x40034a5c                _ZN12HTTP_Request11ProcessLineEPc
                0x40035114                _Z14SendHTMLHeaderi
                0x40035130                _Z21SendHTMLHeaderWCookieiPc
                0x4003516c                _Z14SendTextHeaderi
                0x40035188                _Z13SendGifHeaderi
                0x400351a4                _ZN12HTTP_Request7RespondEi
                0x4003538c                _Z8StopHTTPv
                0x40035398                _Z6appendRPcPKc
                0x400353d0                _Z15writesafestringiPKc
                0x4003551c                _Z18writeallsafestringiPKc
                0x40035670                _Z11alnumToBytec
                0x400356f4                _Z9decodeURIPc
                0x40035830                _Z16RedirectResponseiPKc
                0x40035870                _Z16NotFoundResponseiPKc
                0x400358c0                _Z17ForbiddenResponseiPKc
                0x40035910                _Z20NotAvailableResponseiPKc
                0x40035960                _Z18BadRequestResponseiPKcS0_
                0x400359d4                _Z10BaseDoPostiPcS_S_
                0x400359e0                _Z15BaseInterfaceOKiP16HTML_FILE_RECORD
                0x40035a8c                _Z9BaseDoGetiPcS_
                0x40035c38                _Z10BaseDoHeadiPcS_
                0x40035cd0                _Z15ExtractPostDataPKcS0_Pci
                0x40035f58                _Z17SetNewPostHandlerPFiiPcS_S_E
                0x40035f78                _Z15SetNewWSHandlerPFiP12HTTP_RequestiPcS1_E
                0x40035f98                _Z16SetNewGetHandlerPFiiPcS_E
                0x40035fb8                _Z17SetNewHeadHandlerPFiiPcS_E
                0x40035fd8                _Z22SetNewMultiPartHandlerPFiiPcS_S_mE
                0x40035ff8                _Z29SetNewMultiPartExtractHandlerPFiPKcS0_PciE
                0x40036018                _Z18SetNewErrorHandlerPFi7IPADDR610eWEB_ERRORPvE
                0x40036038                _Z8InitHttpv
 *fill*         0x40036072        0x2 
 .text          0x40036074       0x74 C:\Nburn/lib/DBNetBurner.a(httpstricmp.od)
                0x40036074                _Z11httpstricmpPKcS0_
 .text          0x400360e8      0xb96 C:\Nburn/lib/DBNetBurner.a(htmldecomp.od)
                0x400361e8                _Z17GetRecordFromNamePKc
                0x40036248                _Z14SendCompressediPci
                0x40036268                _Z8SendHtmliPciPKc
                0x40036654                _Z8SendDataP16HTML_FILE_RECORDiPKc
                0x40036734                _Z13SendXMLHeaderi
                0x40036750                _Z10SendHeaderiPKcm
                0x40036770                _Z10SendHeaderiPKcmb
                0x40036814                _Z17SendEmailResponseiPKcS0_
                0x400369f4                _Z16SendFullResponsePKci
                0x40036b4c                _Z18SendHeaderResponsePKci
                0x40036c18                _Z16SendFileFragmentPKciS0_
 *fill*         0x40036c7e        0x2 
 .text          0x40036c80      0x8f8 C:\Nburn/lib/DBNetBurner.a(iosys.od)
                0x40036c80                _Z10FD_OVERLAPP6fd_setS0_
                0x40036cd0                _Z15RawCheckSelectsv
                0x40036d64                _Z12CheckSelectsv
                0x40036dbc                _Z9AddSelectP13PendingSelect
                0x40036e38                _Z12RemoveSelectP13PendingSelect
                0x40036ed0                _Z12SetDataAvaili
                0x40036f0c                _Z12ClrDataAvaili
                0x40036f28                _Z13SetWriteAvaili
                0x40036f64                _Z13ClrWriteAvaili
                0x40036f80                _Z12SetHaveErrori
                0x40036fa0                _Z12ClrHaveErrori
                0x40036fbc                ReadWithTimeout
                0x400370a0                FD_ZERO
                0x400370d0                FD_CLR
                0x4003714c                FD_SET
                0x400371c4                FD_ISSET
                0x40037238                _Z11countdwbitsm
                0x4003726c                _Z9countbitsP6fd_set
                0x400372b0                _Z15FD_SELECT_COUNTR6fd_setS0_
                0x40037310                ZeroWaitSelect
                0x40037370                select
                0x4003745c                writeall
                0x400374d8                writestring
                0x40037540                dataavail
 .text          0x40037578       0x28 C:\Nburn/lib/DBNetBurner.a(new_ops.od)
                0x40037578                _Znwm
 .text          0x400375a0      0x9b4 C:\Nburn/lib/DBNetBurner.a(autoip.od)
                0x400375a0                _ZN12AutoIPClientC1Ei
                0x400375a0                _ZN12AutoIPClientC2Ei
                0x40037648                _ZN12AutoIPClientD1Ev
                0x40037648                _ZN12AutoIPClientD2Ev
                0x400376bc                _ZN12AutoIPClient5startEv
                0x40037700                _ZN12AutoIPClient4stopEv
                0x40037784                _ZN12AutoIPClient7restartEv
                0x400377a4                _ZN12AutoIPClient16addressCollisionEv
                0x400377ec                _ZN12AutoIPClient8getStateEv
                0x400377fc                _ZN12AutoIPClient11getNextTickEv
                0x4003780c                _ZN12AutoIPClient14staticTimeTickEv
                0x40037884                _ZN12AutoIPClient8timeTickEv
                0x40037914                _ZN12AutoIPClient6setRNGEv
                0x4003798c                _ZN12AutoIPClient17generateNewIPAddrEv
                0x40037a1c                _ZN12AutoIPClient9tickDelayEi
                0x40037a5c                _ZN12AutoIPClient9negotiateEv
                0x40037af8                _ZN12AutoIPClient8startArpEv
                0x40037c6c                _ZN12AutoIPClient8arpCheckEv
                0x40037dd0                _ZN12AutoIPClient8announceEv
                0x40037e2c                _Z18AddAutoIPInterfacei
 .text          0x40037f54     0x33d0 C:\Nburn/lib/DBNetBurner.a(dhcpc.od)
                0x40037f54                _ZN11DHCPMessageC1Ev
                0x40037f54                _ZN11DHCPMessageC2Ev
                0x40037fec                _ZN11DHCPMessageC1EPh
                0x40037fec                _ZN11DHCPMessageC2EPh
                0x40038030                _ZN11DHCPMessage11CreateReplyEmm
                0x400380a8                _ZN11DHCPMessage12ClearOptionsEv
                0x40038100                _ZN11DHCPMessage10ResetBytesEv
                0x40038198                _ZN11DHCPMessage12SetRandomXidEv
                0x40038208                _ZN11DHCPMessage13GetOptionDataEhRi
                0x400382dc                _ZN11DHCPMessage13GetOptionDataEh
                0x40038308                _Z13CompareChaddrPhS_
                0x40038360                _ZN11DHCPMessage15MsgForInterfaceEi
                0x400383a0                _ZN11DHCPMessage7SendMsgE7IPADDR4i
                0x4003847c                _ZN11DHCPMessage13SendServerMsgE7IPADDR4i
                0x40038558                _Z12ValidDhcpMsgPh
                0x400385c8                _Z14AddDhcpOptionsR11DHCPMessageRi
                0x40038740                _Z21CreateDhcpDiscoverMsgR11DHCPMessagei
                0x40038ac0                _Z20CreateDhcpRequestMsgR11DHCPMessageS0_i
                0x40039098                _ZN10DhcpObject18CreateDhcpRenewMsgER11DHCPMessage
                0x40039428                _ZN10DhcpObject20CreateDhcpReleaseMsgER11DHCPMessage
                0x40039724                _ZN10DhcpObject11BootpConfigER11DHCPMessage
                0x400398d0                _ZN10DhcpObject10DhcpConfigER11DHCPMessage
                0x40039e44                _ZN10DhcpObject19UpdateIPRuntimeVarsEh
                0x40039fdc                _ZN10DhcpObject16ReTransmitPacketEm
                0x4003a1bc                _ZN10DhcpObject9RenewDHCPEv
                0x4003a1f0                _ZN10DhcpObject10RebindDHCPEv
                0x4003a224                _ZN10DhcpObject9DHCPTimerEv
                0x4003a424                _ZN10DhcpObject10DHCPPacketEP11pool_buffer
                0x4003a7f4                _ZN10DhcpObject9StartDHCPEv
                0x4003a834                _ZN10DhcpObject10StartBOOTPEv
                0x4003a868                _ZN10DhcpObject9StopBOOTPEv
                0x4003a87c                _ZN10DhcpObject8StopDHCPEv
                0x4003a928                _ZN10DhcpObject11RestartDHCPEv
                0x4003a954                _Z13__restartDHCPP10DhcpObject
                0x4003a968                _ZN10DhcpObject12GetDHCPStateEv
                0x4003a978                _ZN10DhcpObject14CreateBootpMsgER11DHCPMessage
                0x4003ab9c                _ZN10DhcpObject14ValidDhcpLeaseEv
                0x4003abd0                _ZN10DhcpObject25GetRemainingDhcpLeaseTimeEv
                0x4003ac10                _ZN10DhcpObjectC2Ei
                0x4003ac10                _ZN10DhcpObjectC1Ei
                0x4003ae64                _ZN10DhcpObject14StopProcessingEv
                0x4003ae78                _ZN10DhcpObjectD1Ev
                0x4003ae78                _ZN10DhcpObjectD2Ev
                0x4003aef0                _ZN10DhcpObject16staticDHCPPacketEP11pool_buffer
                0x4003af6c                _ZN10DhcpObject15staticDHCPTimerEv
                0x4003afa8                _Z14GetDHCPAddressi
                0x4003b09c                _Z25GetDHCPAddressIfNecessaryib
                0x4003b11c                _Z29All_GetDHCPAddressIfNecessaryb
                0x4003b310                _Z22SetDHCPDiscoverSecondsm
 .text          0x4003b324      0x402 C:\Nburn/lib/DBNetBurner.a(netrx.od)
                0x4003b324                _Z7NetDoRXP11pool_bufferti
 *fill*         0x4003b726        0x2 
 .text          0x4003b728      0x724 C:\Nburn/lib/DBNetBurner.a(netinterface.od)
                0x4003b728                _Z14TransmitBufferP11pool_bufferi
                0x4003b7e8                _Z17GetFirstInterfacev
                0x4003b820                _Z16GetnextInterfacei
                0x4003b85c                _Z17GetInterFaceBlocki
                0x4003b890                _Z18GetInterfaceNumberP15_InterfaceBlock
                0x4003b8cc                _Z11InterfaceIPi
                0x4003b924                _Z12InterfaceDNSi
                0x4003b980                _Z13InterfaceDNS2i
                0x4003b9dc                _Z13InterfaceMASKi
                0x4003ba38                _Z13InterfaceGatei
                0x4003ba94                _Z12InterfaceMACi
                0x4003bae4                _Z16GetInterfaceLinki
                0x4003bb44                _Z9GetEframeP11pool_buffer
                0x4003bb58                _Z15EnableMulticast6MACADRi
                0x4003bb94                _Z16DisableMulticast6MACADRi
                0x4003bbcc                _Z17InitializeNetworkPFvP11pool_bufferP6EFRAMEtEPFvS0_S2_E
                0x4003bc40                _Z12StopNetworksv
                0x4003bc4c                _Z26RegisterMultiHomeInterfaceP15_InterfaceBlock
                0x4003bcdc                _Z17RegisterInterfaceP15_InterfaceBlock
                0x4003bd7c                _Z15Removeinterfacei
                0x4003bdbc                _Z11GetIfConfigi
                0x4003be04                _Z12SaveIfConfigP12ConfigRecordi
 .text          0x4003be4c      0x2b6 C:\Nburn/lib/DBNetBurner.a(multiconfig.od)
                0x4003be4c                _Z16SetupIFConfigRecR15_InterfaceBlock
 *fill*         0x4003c102        0x2 
 .text          0x4003c104      0x7ae C:\Nburn/lib/DBNetBurner.a(taskmon.od)
                0x4003c104                _Z18BufferDumpTCBStateP6os_tcb
                0x4003c738                _Z17ProcessTaskPacketR9UDPPacketi
                0x4003c820                _Z17EnableTaskMonitorv
                0x4003c838                _Z23GetUCOS_TaskStateBufferv
 *fill*         0x4003c8b2        0x2 
 .text          0x4003c8b4      0xbbe C:\Nburn/lib/DBNetBurner.a(smarttrap.od)
                0x4003c8b4                _Z15Local_OutStringPKc
                0x4003c8e4                _Z12Local_OutHexmi
                0x4003c9bc                _Z18Local_ShowTaskNamePV6os_tcb
                0x4003cae8                _Z8SafeReadm
                0x4003cb2c                _Z9WalkStackP6os_tcbmm
                0x4003cbac                _Z17Local_OutTCBStateP6os_tcbmm
                0x4003ce40                _Z17Smart_Trap_Holderv
                0x4003ce46                smart_trap_asm
                0x4003d440                _Z16EnableSmartTrapsv
 *fill*         0x4003d472        0x2 
 .text          0x4003d474      0xa66 C:\Nburn/lib/DBNetBurner.a(autoupdate.od)
                0x4003d474                _Z16EnableAutoUpdatev
                0x4003d4ac                _Z7DoStartR9UDPPacket
                0x4003d790                _Z6DoDataR9UDPPacket
                0x4003d9e8                _Z8DoRebootv
                0x4003da40                _Z9DoExecuteR9UDPPacketi
                0x4003ddec                _Z23ProcessAutoUpdatePacketR9UDPPacket
 *fill*         0x4003deda        0x2 
 .text          0x4003dedc       0xa8 C:\Nburn/lib/DBNetBurner.a(device.od)
                0x4003dedc                _Z19DeviceInitializeSemv
                0x4003df0c                _Z16DeviceGetQspiSemv
                0x4003df1c                _Z15DeviceGetI2cSemv
 .text          0x4003df84      0x83a C:\Nburn/lib/DBNetBurner.a(base64.od)
                0x4003df84                _Z12Base64DecodePKcPhS0_
                0x4003e100                _Z12Base64EncodePhiPc
                0x4003e218                _Z23Base64StreamEncodeChunkPhRiPciRmS0_
                0x4003e308                _Z18Base64StreamFinishPcmi
                0x4003e398                _ZN6b64ctxC1EPci
                0x4003e398                _ZN6b64ctxC2EPci
                0x4003e3d4                _ZN6b64ctx4initEPci
                0x4003e410                _ZN6b64ctx5flushEv
                0x4003e490                _ZN6b64ctx5writeEPKci
                0x4003e55c                _ZN6b64ctx5closeEv
                0x4003e5ec                _Z10b64io_readiPci
                0x4003e5f8                _Z11b64io_writeiPKci
                0x4003e630                _Z11b64io_closei
                0x4003e65c                _ZN6b64ctx5GetFDER14IoExpandStructi
                0x4003e6cc                _Z18Base64StreamEncodeiPhiPci
 *fill*         0x4003e7be        0x2 
 .text          0x4003e7c0     0x2c1c C:\Nburn/lib/DBNetBurner.a(nbiprintf.od)
                0x4003e7c0                _Z10decimallenm
                0x4003e854                _Z13decimallenully
                0x4003e9bc                _Z6hexlenm
                0x4003ea34                _Z9hexlenully
                0x4003ea88                _Z6octlenm
                0x4003eb2c                _Z6binlenm
                0x4003ed30                _Z10Put20CharsPvPFiS_PKciEiS1_
                0x4003ed9c                _Z8prespaceimiPFiPvPKciES_Ri
                0x4003ee10                _Z9postspaceimiPFiPvPKciES_Ri
                0x4003ee84                _Z8leadzeroimiPFiPvPKciES_Ri
                0x4003eeec                _Z7FillHexPcm
                0x4003ef3c                _Z7IsInRamPv
                0x4003ef80                _Z26NormalGetNextParamFunctionPv
                0x4003efa0                _Z19NB_internal_iprintfPFiPvPKciES_Pm
                0x4003efc8                _Z15CoreLongLongDecyPFiPvPKciES_R7pfstate
                0x4003f448                _Z7CoreDecmPFiPvPKciES_R7pfstate
                0x4003f874                _Z23NB_internal_iprintf_indPFiPvPKciES_PFmS_ES_
                0x40041394                _Z8putcharsPvPKci
                0x400413b4                iprintf
 .text          0x400413dc       0x38 C:\Nburn/lib/DBNetBurner.a(nbprintf.od)
                0x400413dc                printf
 .text          0x40041414      0x148 C:\Nburn/lib/DBNetBurner.a(nbsiprintf.od)
                0x40041414                _Z11putstrcharsPvPKci
                0x400414b0                siprintf
                0x40041504                sniprintf
 .text          0x4004155c      0x290 C:\Nburn/lib/DBNetBurner.a(nbsprintf.od)
                0x4004155c                sprintf
                0x400415b8                snprintf
                0x40041620                _Z8pva_funcPv
                0x40041664                vsnprintf
                0x400416d8                vsprintf
                0x400416f8                _Z12putfilecharsPvPKci
                0x40041724                vfiprintf
                0x40041760                vfprintf
                0x40041788                fprintf
                0x400417c0                fiprintf
 .text          0x400417ec       0x16 C:\Nburn/lib/DBNetBurner.a(weakumain.od)
                0x400417ec                _Z8UserMainPv
 *fill*         0x40041802        0x2 
 .text          0x40041804       0x16 C:\Nburn/lib/DBNetBurner.a(cusermain.od)
                0x40041804                callcusermain
 *fill*         0x4004181a        0x2 
 .text          0x4004181c       0x88 C:\Nburn/lib/DBNetBurner.a(fdprintf.od)
                0x4004181c                _Z8fdprintfiPKcz
 .text          0x400418a4     0x112a C:\Nburn/lib/DBNetBurner.a(ipv6_addr.od)
                0x400418a4                _ZNK7IPADDR68McastMacEv
                0x40041978                _ZNK7IPADDR613CompactformatEPc
                0x40041b74                _ZNK7IPADDR65printEbb
                0x40041cac                _ZNK7IPADDR67fdprintEibb
                0x40041e08                _ZNK7IPADDR67sprintfEPcibb
                0x40042114                _ZN7IPADDR612SetFromAsciiEPKcb
                0x40042530                _ZN7IPADDR616SolicitedNodeIP6ERKS_
                0x4004255c                _ZN7IPADDR610AsciiToIp6EPKcb
                0x4004259c                _Z10AsciiToIp6PKc
                0x400425c0                _ZN7IPADDR66NullIPEv
                0x400425f0                _ZN7IPADDR619SetSolicitedNodeIP6ERKS_
                0x4004262c                _ZN7IPADDR69SetGlobalER6MACADRRKS_
                0x4004269c                _ZN7IPADDR610FromIPMaskER6MACADRRKS_i
                0x400426d4                _ZN7IPADDR613SetFromIPMaskER6MACADRRKS_i
                0x40042900                _ZN7IPADDR610SetFromIP4E7IPADDR4
                0x4004293c                _ZN7IPADDR64csumEv
 *fill*         0x400429ce        0x2 
 .text          0x400429d0      0x73c C:\Nburn/lib/DBNetBurner.a(ipv6_tcp.od)
                0x400429d0                _Z7IsMyIp6RK7IPADDR6
                0x40042a08                _Z9GetSrcIp6RK7IPADDR6
                0x40042aa0                _Z8SumTCPV6R25IPv6FrameProcessingStructR16TcpCarrierPacketm
                0x40042bb0                _Z18RetransmitV6PacketP11pool_bufferP13socket_struct
                0x40042c88                _Z16TcpSendwSumFrom6RK7IPADDR6S1_R16TcpCarrierPackethm
                0x40042e2c                _Z12TcpSendwSum6P13socket_structRK7IPADDR6R16TcpCarrierPackethm
                0x40043100                _ZN13IPv6Interface17GetDestinationMTUERK7IPADDR6
 .text          0x4004310c     0xa700 C:\Nburn/lib/DBNetBurner.a(ipv6_ip.od)
                0x4004310c                _Z5ERRORPKc
                0x40043138                _ZN25IPv6FrameProcessingStruct16free_proc_structEv
                0x40043190                _ZN25IPv6FrameProcessingStruct7releaseEv
                0x40043444                _ZN25IPv6FrameProcessingStruct25RouterHeaderParseHasErrorEPhPi
                0x40043484                _ZN25IPv6FrameProcessingStruct21HopByHopParseHasErrorEPhPi
                0x400435c4                _ZN25IPv6FrameProcessingStruct15DestOptHasErrorEPhPi
                0x400435e0                _ZN25IPv6FrameProcessingStruct14WalkNextHeaderEPi
                0x40043bc8                _ZN13IPv6Interface7SumIcmpER25IPv6FrameProcessingStruct
                0x40043ce4                _Z18ValidOptionLengthsR25IPv6FrameProcessingStructi
                0x40043d60                _Z11HasSLOptionR25IPv6FrameProcessingStructi
                0x40043df4                _ZN13IPv6Interface19ProcessND_N_SolicitER25IPv6FrameProcessingStruct
                0x40044404                _ZN13IPv6Interface21ProcessND_N_AdvertiseER25IPv6FrameProcessingStruct
                0x400446b4                _ZN13IPv6Interface20ProcessRouterOptionsEP11IPV6_ROUTERR25IPv6FrameProcessingStructRiRPh
                0x400450c4                _ZN13IPv6Interface19CalcRandomReachableEv
                0x40045140                _ZN13IPv6Interface21ProcessND_R_AdvertiseER25IPv6FrameProcessingStruct
                0x400459bc                _ZN13IPv6Interface18ProcessND_RedirectER25IPv6FrameProcessingStruct
                0x40045e6c                _ZN13IPv6Interface18ProcessPingRequestER25IPv6FrameProcessingStruct
                0x400460e0                _ZN13IPv6Interface16ProcessPingReplyER25IPv6FrameProcessingStruct
                0x40046134                _ZN13IPv6Interface18ProcessIcmpUnreachER25IPv6FrameProcessingStruct
                0x40046148                _ZN13IPv6Interface13ProcessTooBigER25IPv6FrameProcessingStruct
                0x40046264                _ZN13IPv6Interface19ProcessTimeExceededER25IPv6FrameProcessingStruct
                0x40046278                _ZN13IPv6Interface16ProcessParamProbER25IPv6FrameProcessingStruct
                0x4004628c                _ZN13IPv6Interface18ValidateIcmpPacketER25IPv6FrameProcessingStruct
                0x40046494                _ZN13IPv6Interface13ProcessIcmpV6ER25IPv6FrameProcessingStruct
                0x40046620                _ZN11IPV6_PREFIX6OnLinkERK7IPADDR6
                0x40046764                _ZN13IPv6Interface6OnLinkERK7IPADDR6
                0x400467fc                _ZN13IPv6Interface11IsMyAddressERK7IPADDR6b
                0x40046948                _ZN13IPv6Interface10RootErrorsEhhmR25IPv6FrameProcessingStruct
                0x40046d20                _ZN13IPv6Interface16SendTimeExceededEP11pool_buffer
                0x40046d60                _ZN13IPv6Interface15SendUnreachableER25IPv6FrameProcessingStruct
                0x40046d84                _ZN13IPv6Interface20SendParameterProblemER25IPv6FrameProcessingStructii
                0x40046db4                _ZN13IPv6Interface9ProcessV6ER25IPv6FrameProcessingStruct
                0x40046fc8                _ZN25IPv6FrameProcessingStructC2EP11pool_buffer
                0x40046fc8                _ZN25IPv6FrameProcessingStructC1EP11pool_buffer
                0x40047028                _ZN13IPv6Interface13RootProcessV6EP11pool_buffer
                0x4004719c                _ZN13IPv6Interface17RootProcessV6TickEv
                0x400471c4                _ZN13IPv6Interface17SendRouterSolicitEb
                0x40047414                _ZN13IPv6Interface4pingERK7IPADDR6ttti
                0x400478b0                _ZN13IPv6Interface16SendDUP_DiscoverERK7IPADDR6
                0x40047a70                _ZN13IPv6Interface13AddDefAddressERK7IPADDR6
                0x40047c2c                _ZN13IPv6Interface4TickEv
                0x40048294                _ZN13IPv6InterfaceC1Ei
                0x40048294                _ZN13IPv6InterfaceC2Ei
                0x4004863c                _ZN13IPv6Interface7StartNDEv
                0x40048818                _ZN13IPv6Interface22GetFirst_IP6_InterfaceEv
                0x40048828                _ZN13IPv6Interface21GetNext_IP6_InterfaceEv
                0x40048844                _ZN13IPv6Interface13GetInterfaceNEi
                0x4004888c                _ZN13IPv6Interface26GetInterfaceForDestinationERK7IPADDR6
                0x4004891c                _ZN13IPv6Interface21GetInterfaceForSourceERK7IPADDR6
                0x40048968                _ZN13IPv6Interface14ClearDHCPDInfoEP10IPV6_DHCPD
                0x40048a60                _Z20AddStaticIPv6AddressRK7IPADDR6i
                0x40048aa8                _ZN13IPv6Interface16AddStaticAddressERK7IPADDR6i
                0x40048c60                _ZN13IPv6Interface17AddDefaultGatewayERK7IPADDR6
                0x40048d04                _ZN13IPv6Interface12AddStaticDNSERK7IPADDR6
                0x40048d8c                _Z23RemoveStaticIPv6AddressRK7IPADDR6i
                0x40048dcc                _ZN13IPv6Interface19RemoveStaticAddressERK7IPADDR6
                0x40048e04                _ZN13IPv6Interface20RemoveDefaultGatewayERK7IPADDR6
                0x40048e3c                _ZN13IPv6Interface15RemoveStaticDNSERK7IPADDR6
                0x40048e74                _Z8InitIPv6i
                0x40048f2c                _Z5Ping6RK7IPADDR6ttti
                0x40049018                _Z17Ping6ViaInterfaceRK7IPADDR6tttii
                0x400490d8                _ZN13IPv6Interface8HasRouteERK7IPADDR6
                0x400490fc                _ZN13IPv6Interface8RouteOutER25IPv6FrameProcessingStructP9IPV6_DEST
                0x4004983c                _ZN11IPV6_PREFIX12free_elementEv
                0x40049864                _ZN9IPV6_DEST12free_elementEv
                0x4004988c                _ZN11IPV6_ROUTER12free_elementEv
                0x400498b4                _ZN13IPV6_NEIGHBOR12free_elementEv
                0x400498dc                _ZN8IPV6_DNS12free_elementEv
                0x40049904                _ZN10IPV6_DHCPD12free_elementEv
                0x4004992c                _ZN11IPV6_PREFIXC1Ev
                0x4004992c                _ZN11IPV6_PREFIXC2Ev
                0x400499a0                _ZN13IPv6Interface11PrefixAllocERK7IPADDR6
                0x40049a6c                _ZN13IPv6Interface9DestAllocERK7IPADDR6
                0x40049b64                _ZN13IPv6Interface11RouterAllocERK7IPADDR6
                0x40049c3c                _ZN13IPv6Interface18FindCreateNeighborERK7IPADDR6
                0x40049cb8                _ZN13IPv6Interface13NeighborAllocERK7IPADDR6
                0x40049d74                _ZN13IPv6Interface8DnsAllocERK7IPADDR6b
                0x40049e68                _ZN13IPv6Interface10DHCPDAllocERK7IPADDR6
                0x40049f28                _ZN12IPV6_ROOT_ELD1Ev
                0x40049f28                _ZN12IPV6_ROOT_ELD2Ev
                0x40049f54                _ZN12IPV6_ROOT_ELD0Ev
                0x40049f78                _ZN22IPV6_ROOT_EL_CONTAINER6InsertEP12IPV6_ROOT_EL
                0x40049fdc                _ZN22IPV6_ROOT_EL_CONTAINER10InsertBackEP12IPV6_ROOT_EL
                0x4004a054                _ZN22IPV6_ROOT_EL_CONTAINER6RemoveEP12IPV6_ROOT_EL
                0x4004a1b8                _ZN22IPV6_ROOT_EL_CONTAINER4FindERK7IPADDR6b
                0x4004a2d0                _ZN13IPv6Interface7FindDNSERK7IPADDR6bP10IPV6_DHCPD
                0x4004a408                _ZN13IPv6Interface14FindDNSByDHCPDEP10IPV6_DHCPDP8IPV6_DNS
                0x4004a454                _ZN10IPV6_DHCPD11FindIA_AddrEP11IPV6_PREFIX
                0x4004a484                _ZN22IPV6_ROOT_EL_CONTAINER5FirstEv
                0x4004a494                _ZN22IPV6_ROOT_EL_CONTAINERC1Ev
                0x4004a494                _ZN22IPV6_ROOT_EL_CONTAINERC2Ev
                0x4004a4c8                _ZN22IPV6_ROOT_EL_CONTAINER6AttachER13IPv6InterfacePKc
                0x4004a4e4                _ZN13IPV6_NEIGHBORC1Ev
                0x4004a4e4                _ZN13IPV6_NEIGHBORC2Ev
                0x4004a55c                _ZN13IPV6_NEIGHBOR13ProcessAdvertER25IPv6FrameProcessingStructP15ICMP6_ND_ADVERT
                0x4004ac0c                _ZN13IPV6_NEIGHBOR15Send_ND_SolicitEb
                0x4004b048                _ZN13IPV6_NEIGHBOR7DiscardEv
                0x4004b130                _ZN13IPV6_NEIGHBOR11ProcessTickEv
                0x4004b3e8                _ZN13IPv6Interface14FirstDefRouterEv
                0x4004b45c                _ZN11IPV6_ROUTER12GetNextValidEv
                0x4004b4d4                _ZN11IPV6_PREFIX16CleanUpAndRemoveEv
                0x4004b540                _ZN8IPV6_DNS16CleanUpAndRemoveEv
                0x4004b5ac                _ZN11IPV6_ROUTER16CleanUpAndRemoveEv
                0x4004b82c                _ZN11IPV6_ROUTER17RemoveFromDefaultEv
                0x4004ba30                _ZN13IPV6_NEIGHBOR4SendER25IPv6FrameProcessingStructt
                0x4004bd98                _ZN11IPV6_PREFIX17AgeStillPreferredEv
                0x4004be2c                _ZN11IPV6_PREFIX17AgeStillValidTestEv
                0x4004bf44                _ZN11IPV6_ROUTER17AgeStillValidTestEv
                0x4004bf7c                _ZN10IPV6_DHCPD17AgeStillValidTestEv
                0x4004bf88                _ZN8IPV6_DNS17AgeStillValidTestEv
                0x4004c000                _ZN13IPV6_NEIGHBOR17AgeStillValidTestEv
                0x4004c00c                _ZN13IPV6_NEIGHBOR16StillValidToSendEv
                0x4004c040                _ZN9IPV6_DEST17AgeStillValidTestEv
                0x4004c098                _ZN12IPV6_ROOT_EL17AgeStillValidTestEv
                0x4004c0a4                _ZN12IPV6_ROOT_EL12free_elementEv
                0x4004c0b0                _ZN6MACADR5printEv
                0x4004c4a0                _Z13bFullFragmentP11pool_bufferS0_
                0x4004c588                _ZN13IPv6Interface16Process_FragmentER25IPv6FrameProcessingStruct
                0x4004cd5c                _ZN13IPv6Interface11Process_UDPER25IPv6FrameProcessingStruct
                0x4004d084                _ZN13IPv6Interface11Process_TCPER25IPv6FrameProcessingStruct
                0x4004d100                _ZN13IPv6Interface17NotifyUnreachableERK7IPADDR6
                0x4004d170                _ZN13IPv6Interface15NotifyReachableERK7IPADDR6
                0x4004d1e8                _ZN13IPv6Interface12MyDNSAddressEv
                0x4004d258                _ZN11IPV6_PREFIX8PreferedEv
                0x4004d2c4                _ZN13IPv6Interface15MySourceAddressERK7IPADDR6
                0x4004d504                _ZN13IPV6_NEIGHBOR12CoreSendPendEP11pool_buffer
                0x4004d628                _ZN13IPV6_NEIGHBOR11SendPendingEv
                0x4004d698                _Z12GetStateName18eMY_NEIGHBOR_STATE
                0x4004d6f8                _ZN13IPV6_NEIGHBOR8SetStateE18eMY_NEIGHBOR_STATE
                0x4004d79c                _Z20GetLocalIPInterface6RK7IPADDR6
 .text          0x4004d80c      0xb38 C:\Nburn/lib/DBNetBurner.a(ipv6_udp.od)
                0x4004d80c                _ZN9UDPPacket11SetUpUdpPktEP11pool_buffer
                0x4004d8cc                _ZN9UDPPacket10InitUdpPktEb
                0x4004d99c                _ZN9UDPPacketC1ER25IPv6FrameProcessingStruct
                0x4004d99c                _ZN9UDPPacketC2ER25IPv6FrameProcessingStruct
                0x4004d9d4                _Z12process_udp6R25IPv6FrameProcessingStruct
                0x4004da4c                _ZN9UDPPacket17GetSourceAddress6Ev
                0x4004dad8                _ZN9UDPPacket22GetDestinationAddress6Ev
                0x4004db68                _ZN9UDPPacket12SendAndKeep6ERK7IPADDR6h
                0x4004dbbc                _ZN9UDPPacket5Send6ERK7IPADDR6h
                0x4004dc48                _Z6SumUDPR25IPv6FrameProcessingStruct
                0x4004dd80                _ZN9UDPPacket10Fix_6_Sb_4Ev
                0x4004deb0                _ZN9UDPPacket20SendViaInterfaceNum6ERK7IPADDR6ih
                0x4004e2b0                _ZN9UDPPacket14SendViaIfAddr6ERK7IPADDR6S2_h
 .text          0x4004e344       0x94 C:\Nburn/lib/DBNetBurner.a(ipv6_printhelp.od)
                0x4004e344                _ZN7IPADDR611GetPrintLenEb
                0x4004e37c                _ZN7IPADDR611PrintHelperEPFiPvPKciES0_b
 .text          0x4004e3d8      0x692 C:\Nburn/lib/DBNetBurner.a(ipv6_extensions.od)
                0x4004e3d8                _ZN13IPv6Interface18JoinMulticastGroupERK7IPADDR6
                0x4004e3f8                _ZN13IPv6Interface19LinkLocalIsNowValidEv
                0x4004e51c                _ZN13IPv6Interface12ReadyMLDBaseER25IPv6FrameProcessingStructRK7IPADDR6
                0x4004e790                _ZN13IPv6Interface19SendMLDRegistrationERK7IPADDR6b
                0x4004e8c0                _ZN13IPv6Interface7MLDTickEv
                0x4004ea60                _ZN13IPv6Interface20ProcessICMPExtensionER25IPv6FrameProcessingStruct
 *fill*         0x4004ea6a        0x2 
 .text          0x4004ea6c      0x70e C:\Nburn/lib/DBNetBurner.a(ipv6_multicast.od)
                0x4004ea6c                _Z17ListeningForGroupRK7IPADDR6
                0x4004eb38                _Z22RegisterMulticastFifo67IPADDR6tP7OS_FIFOi
                0x4004ed7c                _Z24UnregisterMulticastFifo67IPADDR6ti
 *fill*         0x4004f17a        0x2 
 .text          0x4004f17c      0x730 C:\Nburn/lib/DBNetBurner.a(ipv6_show.od)
                0x4004f17c                _ZN22IPV6_ROOT_EL_CONTAINER4ShowEv
                0x4004f1fc                _ZN13IPv6Interface8ShowInfoEv
                0x4004f2d0                _ZN13IPv6Interface11ShowAllInfoEv
                0x4004f31c                _Z15ShowIP6Countersv
                0x4004f3ec                _Z13ShowAllV6Infov
                0x4004f400                _ZN12IPV6_ROOT_EL8ShowItemEv
                0x4004f444                _ZN11IPV6_PREFIX8ShowItemEv
                0x4004f544                _ZN13IPV6_NEIGHBOR8ShowItemEv
                0x4004f6b8                _ZN11IPV6_ROUTER8ShowItemEv
                0x4004f720                _ZN9IPV6_DEST8ShowItemEv
                0x4004f7c4                _ZN10IPV6_DHCPD8ShowItemEv
                0x4004f808                _ZN8IPV6_DNS8ShowItemEv
 .text          0x4004f8ac     0x2880 C:\Nburn/lib/DBNetBurner.a(ipv6_dhcp.od)
                0x4004f8ac                _ZN2NB2V66DHCPv613DHCPv6MessageC2Ev
                0x4004f8ac                _ZN2NB2V66DHCPv613DHCPv6MessageC1Ev
                0x4004f918                _ZN2NB2V66DHCPv613DHCPv6MessageC2EPNS1_12DHCP_MessageEt
                0x4004f918                _ZN2NB2V66DHCPv613DHCPv6MessageC1EPNS1_12DHCP_MessageEt
                0x4004f95c                _ZN2NB2V66DHCPv613DHCPv6MessageC2EP9UDPPacket
                0x4004f95c                _ZN2NB2V66DHCPv613DHCPv6MessageC1EP9UDPPacket
                0x4004f9b0                _ZN2NB2V66DHCPv613DHCPv6MessageD2Ev
                0x4004f9b0                _ZN2NB2V66DHCPv613DHCPv6MessageD1Ev
                0x4004f9c8                _ZN2NB2V66DHCPv613DHCPv6Message13ReleaseBufferEv
                0x4004f9f4                _ZN2NB2V66DHCPv613DHCPv6Message9AddOptionERNS1_6OptionEt
                0x4004fa60                _ZN2NB2V66DHCPv613DHCPv6Message11AddClientIDEv
                0x4004faec                _ZN2NB2V66DHCPv613DHCPv6Message6AddOROEPNS1_9Option_IDEti
                0x4004fcc0                _ZN2NB2V66DHCPv613DHCPv6Message14AddElapsedTimeEt
                0x4004fd08                _ZN2NB2V66DHCPv613DHCPv6Message8AddIA_NAEmmmt
                0x4004fd80                _ZN2NB2V66DHCPv613DHCPv6Message7AddFQDNEPKc
                0x4004fe4c                _ZN2NB2V66DHCPv613DHCPv6Message11SendSolicitEmmm
                0x4004ffa8                _ZN2NB2V66DHCPv613DHCPv6Message11SendRequestEmmmPNS1_3Opt14ClientServerIDEPNS3_5IA_NAE
                0x400501a4                _ZN2NB2V66DHCPv613DHCPv6Message11SendInfoReqEmm
                0x400502b0                _ZN2NB2V66DHCPv613DHCPv6Message7SendMsgERK7IPADDR6i
                0x40050318                _ZN2NB2V66DHCPv613DHCPv6Message9GetOptionENS1_9Option_IDEPNS1_6OptionE
                0x4005037c                _ZN2NB2V66DHCPv63Opt5IA_NA9GetOptionENS1_9Option_IDEPNS1_6OptionE
                0x400503e4                _ZN2NB2V66DHCPv63Opt5IA_TA9GetOptionENS1_9Option_IDEPNS1_6OptionE
                0x40050444                _ZN2NB2V66DHCPv63Opt7IA_ADDR9GetOptionENS1_9Option_IDEPNS1_6OptionE
                0x400504ac                _ZN2NB2V66DHCPv610DHCPClientC1EP13IPv6Interface
                0x400504ac                _ZN2NB2V66DHCPv610DHCPClientC2EP13IPv6Interface
                0x40050504                _ZN2NB2V66DHCPv610DHCPClient16ProcessDHCPAvailEP13IPv6Interfaceh
                0x40050614                _ZN2NB2V66DHCPv610DHCPClient12StartInfoReqEv
                0x40050680                _ZN2NB2V66DHCPv610DHCPClient12StartSolicitEv
                0x4005075c                _ZN2NB2V66DHCPv610DHCPClient11SendSolicitEv
                0x400507ac                _ZN2NB2V66DHCPv610DHCPClient11SendRequestEv
                0x40050904                _ZN2NB2V66DHCPv610DHCPClient15SendRenewRebindEb
                0x40050b80                _ZN2NB2V66DHCPv610DHCPClient19ProcessReply_DNSOptEP10IPV6_DHCPDPNS1_3Opt11DNS_ServersEm
                0x40050e0c                _ZN2NB2V66DHCPv610DHCPClient17ProcessReply_InfoERNS1_13DHCPv6MessageE
                0x40051044                _ZN2NB2V66DHCPv610DHCPClient20ProcessReply_SolicitERNS1_13DHCPv6MessageEb
                0x400515a8                _ZN2NB2V66DHCPv610DHCPClient12ProcessReplyERNS1_13DHCPv6MessageE
                0x4005162c                _ZN2NB2V66DHCPv610DHCPClient13ProcessAdvertERNS1_13DHCPv6MessageE
                0x40051820                _ZN2NB2V66DHCPv610DHCPClient15ProcessReconfigERNS1_13DHCPv6MessageE
                0x4005182c                _ZN2NB2V66DHCPv610DHCPClient10ProcessMsgERNS1_13DHCPv6MessageE
                0x4005190c                _ZN2NB2V66DHCPv610DHCPClient14ProcessDHCPMsgEP9UDPPacket
                0x40051988                _ZN2NB2V66DHCPv610DHCPClient4TickEv
                0x40051e44                _ZN2NB2V66DHCPv610DHCPClient15SetCurrentDelayEm
                0x40051e88                _ZN2NB2V66DHCPv610DHCPClient21IncrementCurrentDelayEm
                0x40051ef4                _ZN2NB2V66DHCPv610DHCPClient9GetNewXidEv
                0x40051f18                _ZN2NB2V66DHCPv610DHCPClient14GetStateStringENS2_11ClientStateE
                0x40051fa8                _ZN2NB2V66DHCPv610DHCPClient8ShowInfoEv
                0x40052000                _Z19StartDHCPv6_Soliciti
                0x40052060                _Z19StartDHCPv6_InfoReqi
 .text          0x4005212c     0x11d8 C:\Nburn/lib/DBNetBurner.a(multicast.od)
                0x4005212c                _Z10GetIgmpPktP5IPPKT
                0x4005214c                _Z14SendIGMPBelong7IPADDR4i
                0x40052358                _Z13SendIGMPLeave7IPADDR4i
                0x40052540                _Z9MultiTickv
                0x400526e0                _Z12GetValidIgmpP11pool_buffert
                0x40052734                _Z9RandomMaxh
                0x400527a4                _Z12process_igmpP11pool_bufferP5IPPKTt
                0x40052a34                _Z13process_mcudpP11pool_bufferP5IPPKTt
                0x40052ca0                _Z16MultiProcessFuncP11pool_buffert
                0x40052d74                _Z22RegisterMulticastFifo47IPADDR4tP7OS_FIFOi
                0x40052f90                _Z24UnregisterMulticastFifo47IPADDR4ti
 .text          0x40053304      0x29c C:\Nburn/lib/DBNetBurner.a(random.od)
                0x40053304                _Z11RandomValidv
                0x40053324                _Z18DoRandomGatherSeedv
                0x400534c4                _Z13GetRandomBytev
                0x4005351c                _Z13GetRandomWordv
                0x40053560                _Z14GetRandomDwordv
 .text          0x400535a0     0x1648 C:\Nburn/lib/DBNetBurner.a(nbfloatprint.od)
                0x400535a0                _Z13ulldecimalleny
                0x400537d4                _Z9Get_f_lendR7pfstate
                0x40053920                _Z9Get_e_lendR7pfstate
                0x400539d0                _Z7pfdigitiPFiPvPKciES_
                0x40053a14                _Z13printfractionPFiPvPKciES_dR7pfstate
                0x40053b28                _Z12OutputFFloatPFiPvPKciES_dR7pfstate
                0x40053edc                _Z12OutputEFloatPFiPvPKciES_dR7pfstatec
                0x40054278                _Z12count_gstuffPvPKci
                0x4005444c                _Z9Get_g_lendR7pfstateR9g_counter
                0x400544c8                _Z12OutputgFloatPFiPvPKciES_dR7pfstateR9g_counter
                0x40054528                _Z14TheFloatPrintfcPFiPvPKciES_dR7pfstate
 .text          0x40054be8       0x9e C:\Nburn/lib/DBNetBurner.a(fdiprintf.od)
                0x40054be8                _Z11putafdcharsPvPKci
                0x40054c0c                _Z9fdiprintfiPKcz
 *fill*         0x40054c86        0x2 
 .text          0x40054c88     0x1816 C:\Nburn/lib/DBNetBurner.a(md5c.od)
                0x40054c88                _ZN7MD5_CTXC1EPmS0_PhS1_S1_
                0x40054c88                _ZN7MD5_CTXC2EPmS0_PhS1_S1_
                0x40054d60                _ZN7MD5_CTX6__InitEv
                0x40054dbc                _ZN7MD5_CTX8__UpdateEPKhj
                0x40054efc                _ZN7MD5_CTX7__FinalEPh
                0x40054fa4                _ZNK7MD5_CTX14__GetDigestLenEv
                0x40054fb0                _ZNK7MD5_CTX11__GetOIDLenEv
                0x40054fbc                _ZNK7MD5_CTX8__GetOIDEv
                0x40054fcc                _ZN7MD5_CTX4ctorEv
 *fill*         0x4005649e        0x2 
 .text          0x400564a0     0x440e c:/nburn/gcc-m68k/bin/../m68k-unknown-elf/sysroot/lib/m54455\libstdc++.a(cp-demangle.o)
                0x4005a798                __cxa_demangle
                0x4005a878                __gcclibcxx_demangle_callback
 *fill*         0x4005a8ae        0x2 
 .text          0x4005a8b0       0xea c:/nburn/gcc-m68k/bin/../m68k-unknown-elf/sysroot/lib/m54455\libm.a(lib_a-s_cos.o)
                0x4005a8b0                cos
 *fill*         0x4005a99a        0x2 
 .text          0x4005a99c       0x6c c:/nburn/gcc-m68k/bin/../m68k-unknown-elf/sysroot/lib/m54455\libm.a(lib_a-s_fpclassify.o)
                0x4005a99c                __fpclassifyd
 .text          0x4005aa08       0xda c:/nburn/gcc-m68k/bin/../m68k-unknown-elf/sysroot/lib/m54455\libm.a(lib_a-s_modf.o)
                0x4005aa08                modf
 *fill*         0x4005aae2        0x2 
 .text          0x4005aae4       0xc6 c:/nburn/gcc-m68k/bin/../m68k-unknown-elf/sysroot/lib/m54455\libm.a(lib_a-s_round.o)
                0x4005aae4                round
 *fill*         0x4005abaa        0x2 
 .text          0x4005abac       0xea c:/nburn/gcc-m68k/bin/../m68k-unknown-elf/sysroot/lib/m54455\libm.a(lib_a-s_sin.o)
                0x4005abac                sin
 *fill*         0x4005ac96        0x2 
 .text          0x4005ac98        0xc c:/nburn/gcc-m68k/bin/../m68k-unknown-elf/sysroot/lib/m54455\libm.a(lib_a-w_atan2.o)
                0x4005ac98                atan2
 .text          0x4005aca4      0x436 c:/nburn/gcc-m68k/bin/../m68k-unknown-elf/sysroot/lib/m54455\libm.a(lib_a-w_pow.o)
                0x4005aca4                pow
 *fill*         0x4005b0da        0x2 
 .text          0x4005b0dc       0xf8 c:/nburn/gcc-m68k/bin/../m68k-unknown-elf/sysroot/lib/m54455\libm.a(lib_a-w_sqrt.o)
                0x4005b0dc                sqrt
 .text          0x4005b1d4       0xec c:/nburn/gcc-m68k/bin/../m68k-unknown-elf/sysroot/lib/m54455\libm.a(lib_a-wf_asin.o)
                0x4005b1d4                asinf
 .text          0x4005b2c0        0xc c:/nburn/gcc-m68k/bin/../m68k-unknown-elf/sysroot/lib/m54455\libm.a(lib_a-wf_atan2.o)
                0x4005b2c0                atan2f
 .text          0x4005b2cc       0xfe c:/nburn/gcc-m68k/bin/../m68k-unknown-elf/sysroot/lib/m54455\libm.a(lib_a-wf_sqrt.o)
                0x4005b2cc                sqrtf
 *fill*         0x4005b3ca        0x2 
 .text          0x4005b3cc      0x24c c:/nburn/gcc-m68k/bin/../m68k-unknown-elf/sysroot/lib/m54455\libm.a(lib_a-e_atan2.o)
                0x4005b3cc                __ieee754_atan2
 .text          0x4005b618      0xdfe c:/nburn/gcc-m68k/bin/../m68k-unknown-elf/sysroot/lib/m54455\libm.a(lib_a-e_pow.o)
                0x4005b618                __ieee754_pow
 *fill*         0x4005c416        0x2 
 .text          0x4005c418      0x5f2 c:/nburn/gcc-m68k/bin/../m68k-unknown-elf/sysroot/lib/m54455\libm.a(lib_a-e_rem_pio2.o)
                0x4005c418                __ieee754_rem_pio2
 *fill*         0x4005ca0a        0x2 
 .text          0x4005ca0c      0x1d0 c:/nburn/gcc-m68k/bin/../m68k-unknown-elf/sysroot/lib/m54455\libm.a(lib_a-e_sqrt.o)
                0x4005ca0c                __ieee754_sqrt
 .text          0x4005cbdc      0x39a c:/nburn/gcc-m68k/bin/../m68k-unknown-elf/sysroot/lib/m54455\libm.a(lib_a-ef_asin.o)
                0x4005cbdc                __ieee754_asinf
 *fill*         0x4005cf76        0x2 
 .text          0x4005cf78      0x1c6 c:/nburn/gcc-m68k/bin/../m68k-unknown-elf/sysroot/lib/m54455\libm.a(lib_a-ef_atan2.o)
                0x4005cf78                __ieee754_atan2f
 *fill*         0x4005d13e        0x2 
 .text          0x4005d140       0xe4 c:/nburn/gcc-m68k/bin/../m68k-unknown-elf/sysroot/lib/m54455\libm.a(lib_a-ef_sqrt.o)
                0x4005d140                __ieee754_sqrtf
 .text          0x4005d224      0x260 c:/nburn/gcc-m68k/bin/../m68k-unknown-elf/sysroot/lib/m54455\libm.a(lib_a-k_cos.o)
                0x4005d224                __kernel_cos
 .text          0x4005d484      0x8dc c:/nburn/gcc-m68k/bin/../m68k-unknown-elf/sysroot/lib/m54455\libm.a(lib_a-k_rem_pio2.o)
                0x4005d484                __kernel_rem_pio2
 .text          0x4005dd60      0x1fa c:/nburn/gcc-m68k/bin/../m68k-unknown-elf/sysroot/lib/m54455\libm.a(lib_a-k_sin.o)
                0x4005dd60                __kernel_sin
 *fill*         0x4005df5a        0x2 
 .text          0x4005df5c      0x440 c:/nburn/gcc-m68k/bin/../m68k-unknown-elf/sysroot/lib/m54455\libm.a(lib_a-s_atan.o)
                0x4005df5c                atan
 .text          0x4005e39c       0x1c c:/nburn/gcc-m68k/bin/../m68k-unknown-elf/sysroot/lib/m54455\libm.a(lib_a-s_fabs.o)
                0x4005e39c                fabs
 .text          0x4005e3b8       0x1c c:/nburn/gcc-m68k/bin/../m68k-unknown-elf/sysroot/lib/m54455\libm.a(lib_a-s_finite.o)
                0x4005e3b8                finite
 .text          0x4005e3d4      0x17c c:/nburn/gcc-m68k/bin/../m68k-unknown-elf/sysroot/lib/m54455\libm.a(lib_a-s_floor.o)
                0x4005e3d4                floor
 .text          0x4005e550        0xa c:/nburn/gcc-m68k/bin/../m68k-unknown-elf/sysroot/lib/m54455\libm.a(lib_a-s_matherr.o)
                0x4005e550                matherr
 *fill*         0x4005e55a        0x2 
 .text          0x4005e55c       0x10 c:/nburn/gcc-m68k/bin/../m68k-unknown-elf/sysroot/lib/m54455\libm.a(lib_a-s_nan.o)
                0x4005e55c                nan
 .text          0x4005e56c      0x19e c:/nburn/gcc-m68k/bin/../m68k-unknown-elf/sysroot/lib/m54455\libm.a(lib_a-s_rint.o)
                0x4005e56c                rint
 *fill*         0x4005e70a        0x2 
 .text          0x4005e70c      0x188 c:/nburn/gcc-m68k/bin/../m68k-unknown-elf/sysroot/lib/m54455\libm.a(lib_a-s_scalbn.o)
                0x4005e70c                scalbn
 .text          0x4005e894      0x2c0 c:/nburn/gcc-m68k/bin/../m68k-unknown-elf/sysroot/lib/m54455\libm.a(lib_a-sf_atan.o)
                0x4005e894                atanf
 .text          0x4005eb54       0x10 c:/nburn/gcc-m68k/bin/../m68k-unknown-elf/sysroot/lib/m54455\libm.a(lib_a-sf_fabs.o)
                0x4005eb54                fabsf
 .text          0x4005eb64       0x4a c:/nburn/gcc-m68k/bin/../m68k-unknown-elf/sysroot/lib/m54455\libm.a(lib_a-sf_fpclassify.o)
                0x4005eb64                __fpclassifyf
 *fill*         0x4005ebae        0x2 
 .text          0x4005ebb0       0x2a c:/nburn/gcc-m68k/bin/../m68k-unknown-elf/sysroot/lib/m54455\libm.a(lib_a-s_copysign.o)
                0x4005ebb0                copysign
 *fill*         0x4005ebda        0x2 
 .text          0x4005ebdc      0xba0 c:/nburn/gcc-m68k/bin/../lib/gcc/m68k-unknown-elf/5.2.0/m54455\libgcc.a(_double.o)
                0x4005ec36                __subdf3
                0x4005ec3c                __adddf3
                0x4005f0d8                __muldf3
                0x4005f2b4                __divdf3
                0x4005f5a4                __negdf2
                0x4005f602                __cmpdf2_internal
                0x4005f6da                __cmpdf2
 .text          0x4005f77c      0x7ca c:/nburn/gcc-m68k/bin/../lib/gcc/m68k-unknown-elf/5.2.0/m54455\libgcc.a(_float.o)
                0x4005f7c4                __subsf3
                0x4005f7ca                __addsf3
                0x4005faac                __mulsf3
                0x4005fbee                __divsf3
                0x4005fde2                __negsf2
                0x4005fe34                __cmpsf2_internal
                0x4005fed4                __cmpsf2
 *fill*         0x4005ff46        0x2 
 .text          0x4005ff48       0x74 c:/nburn/gcc-m68k/bin/../lib/gcc/m68k-unknown-elf/5.2.0/m54455\libgcc.a(_floatex.o)
                0x4005ff48                __clear_sticky_bit
                0x4005ff54                $_exception_handler
 .text          0x4005ffbc       0x22 c:/nburn/gcc-m68k/bin/../lib/gcc/m68k-unknown-elf/5.2.0/m54455\libgcc.a(_eqdf2.o)
                0x4005ffbc                __eqdf2
 *fill*         0x4005ffde        0x2 
 .text          0x4005ffe0       0x22 c:/nburn/gcc-m68k/bin/../lib/gcc/m68k-unknown-elf/5.2.0/m54455\libgcc.a(_nedf2.o)
                0x4005ffe0                __nedf2
 *fill*         0x40060002        0x2 
 .text          0x40060004       0x22 c:/nburn/gcc-m68k/bin/../lib/gcc/m68k-unknown-elf/5.2.0/m54455\libgcc.a(_gtdf2.o)
                0x40060004                __gtdf2
 *fill*         0x40060026        0x2 
 .text          0x40060028       0x22 c:/nburn/gcc-m68k/bin/../lib/gcc/m68k-unknown-elf/5.2.0/m54455\libgcc.a(_gedf2.o)
                0x40060028                __gedf2
 *fill*         0x4006004a        0x2 
 .text          0x4006004c       0x22 c:/nburn/gcc-m68k/bin/../lib/gcc/m68k-unknown-elf/5.2.0/m54455\libgcc.a(_ltdf2.o)
                0x4006004c                __ltdf2
 *fill*         0x4006006e        0x2 
 .text          0x40060070       0x22 c:/nburn/gcc-m68k/bin/../lib/gcc/m68k-unknown-elf/5.2.0/m54455\libgcc.a(_ledf2.o)
                0x40060070                __ledf2
 *fill*         0x40060092        0x2 
 .text          0x40060094       0x1a c:/nburn/gcc-m68k/bin/../lib/gcc/m68k-unknown-elf/5.2.0/m54455\libgcc.a(_eqsf2.o)
                0x40060094                __eqsf2
 *fill*         0x400600ae        0x2 
 .text          0x400600b0       0x1a c:/nburn/gcc-m68k/bin/../lib/gcc/m68k-unknown-elf/5.2.0/m54455\libgcc.a(_gtsf2.o)
                0x400600b0                __gtsf2
 *fill*         0x400600ca        0x2 
 .text          0x400600cc       0x1a c:/nburn/gcc-m68k/bin/../lib/gcc/m68k-unknown-elf/5.2.0/m54455\libgcc.a(_ltsf2.o)
                0x400600cc                __ltsf2
 *fill*         0x400600e6        0x2 
 .text          0x400600e8       0x66 c:/nburn/gcc-m68k/bin/../lib/gcc/m68k-unknown-elf/5.2.0/m54455\libgcc.a(_muldi3.o)
                0x400600e8                __muldi3
 *fill*         0x4006014e        0x2 
 .text          0x40060150       0x76 c:/nburn/gcc-m68k/bin/../lib/gcc/m68k-unknown-elf/5.2.0/m54455\libgcc.a(_fixunsdfsi.o)
                0x40060150                __fixunsdfsi
 *fill*         0x400601c6        0x2 
 .text          0x400601c8       0x7a c:/nburn/gcc-m68k/bin/../lib/gcc/m68k-unknown-elf/5.2.0/m54455\libgcc.a(_fixunsdfdi.o)
                0x400601c8                __fixunsdfdi
 *fill*         0x40060242        0x2 
 .text          0x40060244      0x3fe c:/nburn/gcc-m68k/bin/../lib/gcc/m68k-unknown-elf/5.2.0/m54455\libgcc.a(_udivdi3.o)
                0x40060244                __udivdi3
 *fill*         0x40060642        0x2 
 .text          0x40060644      0x372 c:/nburn/gcc-m68k/bin/../lib/gcc/m68k-unknown-elf/5.2.0/m54455\libgcc.a(_umoddi3.o)
                0x40060644                __umoddi3
 *fill*         0x400609b6        0x2 
 .text          0x400609b8      0x442 c:/nburn/gcc-m68k/bin/../lib/gcc/m68k-unknown-elf/5.2.0/m54455\libgcc.a(fpgnulib.o)
                0x400609b8                __unordsf2
                0x40060a10                __unorddf2
                0x40060a7a                __floatunsidf
                0x40060ade                __floatsidf
                0x40060b8a                __floatunsisf
                0x40060ba4                __floatsisf
                0x40060bbe                __extendsfdf2
                0x40060c2a                __truncdfsf2
                0x40060d54                __fixdfsi
                0x40060de0                __fixsfsi
 *fill*         0x40060dfa        0x2 
 .text          0x40060dfc     0x21b4 c:/nburn/gcc-m68k/bin/../lib/gcc/m68k-unknown-elf/5.2.0/m54455\libgcc.a(unwind-dw2.o)
                0x400629d6                _Unwind_GetGR
                0x40062a3c                _Unwind_GetCFA
                0x40062a4c                _Unwind_SetGR
                0x40062ab6                _Unwind_GetIP
                0x40062ac6                _Unwind_GetIPInfo
                0x40062ae6                _Unwind_SetIP
                0x40062af8                _Unwind_GetLanguageSpecificData
                0x40062b08                _Unwind_GetRegionStart
                0x40062b18                _Unwind_FindEnclosingFunction
                0x40062b42                _Unwind_GetDataRelBase
                0x40062b52                _Unwind_GetTextRelBase
                0x40062b62                __frame_state_for
                0x40062c2e                _Unwind_RaiseException
                0x40062d48                _Unwind_ForcedUnwind
                0x40062ddc                _Unwind_Resume
                0x40062e72                _Unwind_Resume_or_Rethrow
                0x40062f0c                _Unwind_DeleteException
                0x40062f2a                _Unwind_Backtrace
 .text          0x40062fb0     0x126e c:/nburn/gcc-m68k/bin/../lib/gcc/m68k-unknown-elf/5.2.0/m54455\libgcc.a(unwind-dw2-fde.o)
                0x40063e04                __register_frame_info_bases
                0x40063e4c                __register_frame_info
                0x40063e94                __register_frame
                0x40063eec                __register_frame_info_table_bases
                0x40063f36                __register_frame_info_table
                0x40063f7c                __register_frame_table
                0x40063fcc                __deregister_frame_info_bases
                0x400640a2                __deregister_frame_info
                0x400640ac                __deregister_frame
                0x400640d0                _Unwind_Find_FDE
 *fill*         0x4006421e        0x2 
 .text          0x40064220       0x18 c:/nburn/gcc-m68k/bin/../m68k-unknown-elf/sysroot/lib/m54455\libc.a(lib_a-abort.o)
                0x40064220                abort
 .text          0x40064238       0x18 c:/nburn/gcc-m68k/bin/../m68k-unknown-elf/sysroot/lib/m54455\libc.a(lib_a-atexit.o)
                0x40064238                atexit
 .text          0x40064250       0x34 c:/nburn/gcc-m68k/bin/../m68k-unknown-elf/sysroot/lib/m54455\libc.a(lib_a-atoi.o)
                0x40064250                atoi
                0x40064268                _atoi_r
 .text          0x40064284       0x5c c:/nburn/gcc-m68k/bin/../m68k-unknown-elf/sysroot/lib/m54455\libc.a(lib_a-bsearch.o)
                0x40064284                bsearch
 .text          0x400642e0       0x1a c:/nburn/gcc-m68k/bin/../m68k-unknown-elf/sysroot/lib/m54455\libc.a(lib_a-bzero.o)
                0x400642e0                bzero
 *fill*         0x400642fa        0x2 
 .text          0x400642fc       0x1e c:/nburn/gcc-m68k/bin/../m68k-unknown-elf/sysroot/lib/m54455\libc.a(lib_a-cxa_atexit.o)
                0x400642fc                __cxa_atexit
 *fill*         0x4006431a        0x2 
 .text          0x4006431c        0xe c:/nburn/gcc-m68k/bin/../m68k-unknown-elf/sysroot/lib/m54455\libc.a(lib_a-errno.o)
                0x4006431c                __errno
 *fill*         0x4006432a        0x2 
 .text          0x4006432c       0x5c c:/nburn/gcc-m68k/bin/../m68k-unknown-elf/sysroot/lib/m54455\libc.a(lib_a-fputc.o)
                0x4006432c                _fputc_r
                0x4006436e                fputc
 .text          0x40064388       0xa4 c:/nburn/gcc-m68k/bin/../m68k-unknown-elf/sysroot/lib/m54455\libc.a(lib_a-fputs.o)
                0x40064388                _fputs_r
                0x40064412                fputs
 .text          0x4006442c      0x366 c:/nburn/gcc-m68k/bin/../m68k-unknown-elf/sysroot/lib/m54455\libc.a(lib_a-fvwrite.o)
                0x4006442c                __sfvwrite_r
 *fill*         0x40064792        0x2 
 .text          0x40064794       0xc2 c:/nburn/gcc-m68k/bin/../m68k-unknown-elf/sysroot/lib/m54455\libc.a(lib_a-fwrite.o)
                0x40064794                _fwrite_r
                0x40064834                fwrite
 *fill*         0x40064856        0x2 
 .text          0x40064858       0x1a c:/nburn/gcc-m68k/bin/../m68k-unknown-elf/sysroot/lib/m54455\libc.a(lib_a-isalnum.o)
                0x40064858                isalnum
 *fill*         0x40064872        0x2 
 .text          0x40064874       0x1a c:/nburn/gcc-m68k/bin/../m68k-unknown-elf/sysroot/lib/m54455\libc.a(lib_a-isspace.o)
                0x40064874                isspace
 *fill*         0x4006488e        0x2 
 .text          0x40064890       0x32 c:/nburn/gcc-m68k/bin/../m68k-unknown-elf/sysroot/lib/m54455\libc.a(lib_a-malloc.o)
                0x40064890                malloc
                0x400648a8                free
 *fill*         0x400648c2        0x2 
 .text          0x400648c4      0x584 c:/nburn/gcc-m68k/bin/../m68k-unknown-elf/sysroot/lib/m54455\libc.a(lib_a-mallocr.o)
                0x400648c4                _malloc_r
 .text          0x40064e48       0x32 c:/nburn/gcc-m68k/bin/../m68k-unknown-elf/sysroot/lib/m54455\libc.a(lib_a-memchr.o)
                0x40064e48                memchr
 *fill*         0x40064e7a        0x2 
 .text          0x40064e7c       0x32 c:/nburn/gcc-m68k/bin/../m68k-unknown-elf/sysroot/lib/m54455\libc.a(lib_a-memcmp.o)
                0x40064e7c                memcmp
 *fill*         0x40064eae        0x2 
 .text          0x40064eb0       0x54 c:/nburn/gcc-m68k/bin/../m68k-unknown-elf/sysroot/lib/m54455\libc.a(lib_a-memmove.o)
                0x40064eb0                memmove
 .text          0x40064f04       0xa0 c:/nburn/gcc-m68k/bin/../m68k-unknown-elf/sysroot/lib/m54455\libc.a(lib_a-putc.o)
                0x40064f04                _putc_r
                0x40064f8a                putc
 .text          0x40064fa4       0xac c:/nburn/gcc-m68k/bin/../m68k-unknown-elf/sysroot/lib/m54455\libc.a(lib_a-puts.o)
                0x40064fa4                _puts_r
                0x4006503a                puts
 .text          0x40065050       0x62 c:/nburn/gcc-m68k/bin/../m68k-unknown-elf/sysroot/lib/m54455\libc.a(lib_a-rand.o)
                0x40065050                srand
                0x40065068                rand
 *fill*         0x400650b2        0x2 
 .text          0x400650b4       0x1c c:/nburn/gcc-m68k/bin/../m68k-unknown-elf/sysroot/lib/m54455\libc.a(lib_a-realloc.o)
                0x400650b4                realloc
 .text          0x400650d0      0x456 c:/nburn/gcc-m68k/bin/../m68k-unknown-elf/sysroot/lib/m54455\libc.a(lib_a-reallocr.o)
                0x400650d0                _realloc_r
 *fill*         0x40065526        0x2 
 .text          0x40065528       0x68 c:/nburn/gcc-m68k/bin/../m68k-unknown-elf/sysroot/lib/m54455\libc.a(lib_a-rget.o)
                0x40065528                __srget_r
                0x4006557a                __srget
 .text          0x40065590       0x34 c:/nburn/gcc-m68k/bin/../m68k-unknown-elf/sysroot/lib/m54455\libc.a(lib_a-setjmp.o)
                0x40065590                setjmp
                0x400655a6                longjmp
 .text          0x400655c4      0x146 c:/nburn/gcc-m68k/bin/../m68k-unknown-elf/sysroot/lib/m54455\libc.a(lib_a-setvbuf.o)
                0x400655c4                setvbuf
 *fill*         0x4006570a        0x2 
 .text          0x4006570c      0x1ce c:/nburn/gcc-m68k/bin/../m68k-unknown-elf/sysroot/lib/m54455\libc.a(lib_a-signal.o)
                0x4006570c                _init_signal_r
                0x40065754                _signal_r
                0x400657a0                _raise_r
                0x40065814                __sigtramp_r
                0x40065882                raise
                0x40065898                signal
                0x400658b2                _init_signal
                0x400658c4                __sigtramp
 *fill*         0x400658da        0x2 
 .text          0x400658dc       0x3e c:/nburn/gcc-m68k/bin/../m68k-unknown-elf/sysroot/lib/m54455\libc.a(lib_a-signalr.o)
                0x400658dc                _kill_r
                0x4006590e                _getpid_r
 *fill*         0x4006591a        0x2 
 .text          0x4006591c       0x2e c:/nburn/gcc-m68k/bin/../m68k-unknown-elf/sysroot/lib/m54455\libc.a(lib_a-strcat.o)
                0x4006591c                strcat
 *fill*         0x4006594a        0x2 
 .text          0x4006594c       0x2e c:/nburn/gcc-m68k/bin/../m68k-unknown-elf/sysroot/lib/m54455\libc.a(lib_a-strcmp.o)
                0x4006594c                strcmp
 *fill*         0x4006597a        0x2 
 .text          0x4006597c       0x1c c:/nburn/gcc-m68k/bin/../m68k-unknown-elf/sysroot/lib/m54455\libc.a(lib_a-strcpy.o)
                0x4006597c                strcpy
 .text          0x40065998       0x1a c:/nburn/gcc-m68k/bin/../m68k-unknown-elf/sysroot/lib/m54455\libc.a(lib_a-strlen.o)
                0x40065998                strlen
 *fill*         0x400659b2        0x2 
 .text          0x400659b4       0x4e c:/nburn/gcc-m68k/bin/../m68k-unknown-elf/sysroot/lib/m54455\libc.a(lib_a-strncmp.o)
                0x400659b4                strncmp
 *fill*         0x40065a02        0x2 
 .text          0x40065a04       0x30 c:/nburn/gcc-m68k/bin/../m68k-unknown-elf/sysroot/lib/m54455\libc.a(lib_a-strncpy.o)
                0x40065a04                strncpy
 .text          0x40065a34       0x4a c:/nburn/gcc-m68k/bin/../m68k-unknown-elf/sysroot/lib/m54455\libc.a(lib_a-strstr.o)
                0x40065a34                strstr
 *fill*         0x40065a7e        0x2 
 .text          0x40065a80      0x16e c:/nburn/gcc-m68k/bin/../m68k-unknown-elf/sysroot/lib/m54455\libc.a(lib_a-strtol.o)
                0x40065a80                _strtol_r
                0x40065bd0                strtol
 *fill*         0x40065bee        0x2 
 .text          0x40065bf0       0x2a c:/nburn/gcc-m68k/bin/../m68k-unknown-elf/sysroot/lib/m54455\libc.a(lib_a-tolower.o)
                0x40065bf0                tolower
 *fill*         0x40065c1a        0x2 
 .text          0x40065c1c       0x2a c:/nburn/gcc-m68k/bin/../m68k-unknown-elf/sysroot/lib/m54455\libc.a(lib_a-toupper.o)
                0x40065c1c                toupper
 *fill*         0x40065c46        0x2 
 .text          0x40065c48       0xf4 c:/nburn/gcc-m68k/bin/../m68k-unknown-elf/sysroot/lib/m54455\libc.a(lib_a-wbuf.o)
                0x40065c48                __swbuf_r
                0x40065d22                __swbuf
 .text          0x40065d3c      0x116 c:/nburn/gcc-m68k/bin/../m68k-unknown-elf/sysroot/lib/m54455\libc.a(lib_a-wsetup.o)
                0x40065d3c                __swsetup_r
 *fill*         0x40065e52        0x2 
 .text          0x40065e54       0xa0 c:/nburn/gcc-m68k/bin/../m68k-unknown-elf/sysroot/lib/m54455\libc.a(lib_a-__atexit.o)
                0x40065e54                __register_exitproc
 .text          0x40065ef4      0x204 c:/nburn/gcc-m68k/bin/../m68k-unknown-elf/sysroot/lib/m54455\libc.a(lib_a-fflush.o)
                0x40065ef4                __sflush_r
                0x4006607c                _fflush_r
                0x400660ca                fflush
 .text          0x400660f8      0x28c c:/nburn/gcc-m68k/bin/../m68k-unknown-elf/sysroot/lib/m54455\libc.a(lib_a-findfp.o)
                0x40066102                _cleanup_r
                0x4006619e                __sfmoreglue
                0x400661fa                _cleanup
                0x4006620e                __sinit
                0x4006627e                __sfp
                0x40066330                __sfp_lock_acquire
                0x40066338                __sfp_lock_release
                0x40066340                __sinit_lock_acquire
                0x40066348                __sinit_lock_release
                0x40066350                __fp_lock_all
                0x4006636a                __fp_unlock_all
 .text          0x40066384      0x2ec c:/nburn/gcc-m68k/bin/../m68k-unknown-elf/sysroot/lib/m54455\libc.a(lib_a-freer.o)
                0x40066384                _malloc_trim_r
                0x40066458                _free_r
 .text          0x40066670       0xb4 c:/nburn/gcc-m68k/bin/../m68k-unknown-elf/sysroot/lib/m54455\libc.a(lib_a-fwalk.o)
                0x40066670                _fwalk
                0x400666c8                _fwalk_reent
 .text          0x40066724      0x152 c:/nburn/gcc-m68k/bin/../m68k-unknown-elf/sysroot/lib/m54455\libc.a(lib_a-makebuf.o)
                0x40066724                __smakebuf_r
 *fill*         0x40066876        0x2 
 .text          0x40066878      0x1a2 c:/nburn/gcc-m68k/bin/../m68k-unknown-elf/sysroot/lib/m54455\libc.a(lib_a-refill.o)
                0x4006689a                __srefill_r
 *fill*         0x40066a1a        0x2 
 .text          0x40066a1c      0x126 c:/nburn/gcc-m68k/bin/../m68k-unknown-elf/sysroot/lib/m54455\libc.a(lib_a-stdio.o)
                0x40066a1c                __sread
                0x40066a60                __seofread
                0x40066a6a                __swrite
                0x40066ad6                __sseek
                0x40066b2a                __sclose
 *fill*         0x40066b42        0x2 
 .text          0x40066b44       0x38 c:/nburn/gcc-m68k/bin/../m68k-unknown-elf/sysroot/lib/m54455\libc.a(lib_a-writer.o)
                0x40066b44                _write_r
 .text          0x40066b7c       0x2e c:/nburn/gcc-m68k/bin/../m68k-unknown-elf/sysroot/lib/m54455\libc.a(lib_a-closer.o)
                0x40066b7c                _close_r
 *fill*         0x40066baa        0x2 
 .text          0x40066bac       0xe2 c:/nburn/gcc-m68k/bin/../m68k-unknown-elf/sysroot/lib/m54455\libc.a(lib_a-fclose.o)
                0x40066bac                _fclose_r
                0x40066c78                fclose
 *fill*         0x40066c8e        0x2 
 .text          0x40066c90       0x32 c:/nburn/gcc-m68k/bin/../m68k-unknown-elf/sysroot/lib/m54455\libc.a(lib_a-fstatr.o)
                0x40066c90                _fstat_r
 *fill*         0x40066cc2        0x2 
 .text          0x40066cc4       0x2e c:/nburn/gcc-m68k/bin/../m68k-unknown-elf/sysroot/lib/m54455\libc.a(lib_a-isattyr.o)
                0x40066cc4                _isatty_r
 *fill*         0x40066cf2        0x2 
 .text          0x40066cf4       0x38 c:/nburn/gcc-m68k/bin/../m68k-unknown-elf/sysroot/lib/m54455\libc.a(lib_a-lseekr.o)
                0x40066cf4                _lseek_r
 .text          0x40066d2c       0x38 c:/nburn/gcc-m68k/bin/../m68k-unknown-elf/sysroot/lib/m54455\libc.a(lib_a-readr.o)
                0x40066d2c                _read_r
 .text          0x40066d64       0x32 c:/nburn/gcc-m68k/bin/../lib/gcc/m68k-unknown-elf/5.2.0/m54455/crtend.o
                0x40066da0                . = ALIGN (0x10)
 *fill*         0x40066d96        0xa 
 *(.text.*)
 .text._ZN7IPADDR4C2Ev
                0x40066da0       0x10 main.od
                0x40066da0                _ZN7IPADDR4C1Ev
                0x40066da0                _ZN7IPADDR4C2Ev
 .text._ZN7IPADDR46NullIPEv
                0x40066db0       0x26 main.od
                0x40066db0                _ZN7IPADDR46NullIPEv
 *fill*         0x40066dd6        0x2 
 .text._ZN6OS_SEMC2El
                0x40066dd8       0x2c main.od
                0x40066dd8                _ZN6OS_SEMC2El
                0x40066dd8                _ZN6OS_SEMC1El
 .text._ZN5PinIOC2Ei
                0x40066e04       0x16 main.od
                0x40066e04                _ZN5PinIOC1Ei
                0x40066e04                _ZN5PinIOC2Ei
 *fill*         0x40066e1a        0x2 
 .text._ZN5PinIO3hizEv
                0x40066e1c       0x1a main.od
                0x40066e1c                _ZN5PinIO3hizEv
 *fill*         0x40066e36        0x2 
 .text._ZN10PinIOArrayixEi
                0x40066e38       0x22 main.od
                0x40066e38                _ZN10PinIOArrayixEi
 *fill*         0x40066e5a        0x2 
 .text._Z5HiConi
                0x40066e5c       0x30 main.od
                0x40066e5c                _Z5HiConi
 .text._Z15CheckNVSettingsv
                0x40066e8c      0x296 main.od
                0x40066e8c                _Z15CheckNVSettingsv
 *fill*         0x40067122        0x2 
 .text._ZN3LCDaSERKS_
                0x40067124       0x1c main.od
                0x40067124                _ZN3LCDaSERKS_
 .text._ZN8OdometeraSERKS_
                0x40067140        0xc main.od
                0x40067140                _ZN8OdometeraSERKS_
 .text._Z4initv
                0x4006714c      0x3b4 main.od
                0x4006714c                _Z4initv
 .text._Z9LCDUpdatePv
                0x40067500      0x174 main.od
                0x40067500                _Z9LCDUpdatePv
 .text._Z5DrivePv
                0x40067674      0x120 main.od
                0x40067674                _Z5DrivePv
 .text.UserMain
                0x40067794      0x13a main.od
                0x40067794                UserMain
 *fill*         0x400678ce        0x2 
 .text._Z41__static_initialization_and_destruction_0ii
                0x400678d0       0xd6 main.od
 *fill*         0x400679a6        0x2 
 .text._GLOBAL__sub_I_MainTaskSem
                0x400679a8       0x1e main.od
 *fill*         0x400679c6        0x2 
 .text.I2CResetPeripheral
                0x400679c8       0x18 Utility.od
                0x400679c8                I2CResetPeripheral
 .text._ZN7Utility4modeEv
                0x400679e0       0x3e Utility.od
                0x400679e0                _ZN7Utility4modeEv
 *fill*         0x40067a1e        0x2 
 .text._ZN7Utility9odoToFeetEm
                0x40067a20       0x48 Utility.od
                0x40067a20                _ZN7Utility9odoToFeetEm
 .text._ZN7Utility10degreeWrapEf
                0x40067a68       0x6e Utility.od
                0x40067a68                _ZN7Utility10degreeWrapEf
 *fill*         0x40067ad6        0x2 
 .text._ZN7Utility9switchValEi
                0x40067ad8       0x2a Utility.od
                0x40067ad8                _ZN7Utility9switchValEi
 *fill*         0x40067b02        0x2 
 .text._ZN3NavC2Ev
                0x40067b04       0x5e Nav.od
                0x40067b04                _ZN3NavC2Ev
                0x40067b04                _ZN3NavC1Ev
 *fill*         0x40067b62        0x2 
 .text._ZN3NavD2Ev
                0x40067b64       0x2e Nav.od
                0x40067b64                _ZN3NavD1Ev
                0x40067b64                _ZN3NavD2Ev
 *fill*         0x40067b92        0x2 
 .text._ZN3NavD0Ev
                0x40067b94       0x28 Nav.od
                0x40067b94                _ZN3NavD0Ev
 .text._ZN3Nav4getXEv
                0x40067bbc       0x10 Nav.od
                0x40067bbc                _ZN3Nav4getXEv
 .text._ZN3Nav4getYEv
                0x40067bcc       0x10 Nav.od
                0x40067bcc                _ZN3Nav4getYEv
 .text._ZN3Nav10getHeadDesEv
                0x40067bdc       0x10 Nav.od
                0x40067bdc                _ZN3Nav10getHeadDesEv
 .text._ZN3Nav4getVEv
                0x40067bec       0x10 Nav.od
                0x40067bec                _ZN3Nav4getVEv
 .text._ZN3Nav10isFinishedEv
                0x40067bfc       0x10 Nav.od
                0x40067bfc                _ZN3Nav10isFinishedEv
 .text._ZN3Nav9navUpdateEv
                0x40067c0c      0x566 Nav.od
                0x40067c0c                _ZN3Nav9navUpdateEv
 *fill*         0x40068172        0x2 
 .text._ZN3Nav8getSteerEv
                0x40068174      0x128 Nav.od
                0x40068174                _ZN3Nav8getSteerEv
 .text._ZN3Nav11getThrottleEv
                0x4006829c      0x220 Nav.od
                0x4006829c                _ZN3Nav11getThrottleEv
 .text._ZN16START_MARKER_OBJC2Ev
                0x400684bc       0x2e Logger.od
                0x400684bc                _ZN16START_MARKER_OBJC1Ev
                0x400684bc                _ZN16START_MARKER_OBJC2Ev
 *fill*         0x400684ea        0x2 
 .text._ZN13MainLogObjectC2Ev
                0x400684ec     0x25a2 Logger.od
                0x400684ec                _ZN13MainLogObjectC2Ev
                0x400684ec                _ZN13MainLogObjectC1Ev
 *fill*         0x4006aa8e        0x2 
 .text._ZN13MainLogObject8BuildOneEv
                0x4006aa90       0x50 Logger.od
                0x4006aa90                _ZN13MainLogObject8BuildOneEv
 .text._ZN13MainLogObject9GetExtentERPmS1_
                0x4006aae0       0x2a Logger.od
                0x4006aae0                _ZN13MainLogObject9GetExtentERPmS1_
 *fill*         0x4006ab0a        0x2 
 .text._ZN6Logger7logLoopEPv
                0x4006ab0c     0x399e Logger.od
                0x4006ab0c                _ZN6Logger7logLoopEPv
 *fill*         0x4006e4aa        0x2 
 .text._ZN6Logger8logBeginEv
                0x4006e4ac       0x3c Logger.od
                0x4006e4ac                _ZN6Logger8logBeginEv
 .text._ZN8INTROFELIdEC2EPKc
                0x4006e4e8       0x40 Logger.od
                0x4006e4e8                _ZN8INTROFELIdEC2EPKc
                0x4006e4e8                _ZN8INTROFELIdEC1EPKc
 .text._ZN8INTROFELIfEC2EPKc
                0x4006e528       0x3c Logger.od
                0x4006e528                _ZN8INTROFELIfEC1EPKc
                0x4006e528                _ZN8INTROFELIfEC2EPKc
 .text._ZN8INTROIELIiEC2EPKc
                0x4006e564       0x38 Logger.od
                0x4006e564                _ZN8INTROIELIiEC1EPKc
                0x4006e564                _ZN8INTROIELIiEC2EPKc
 .text._ZN8INTROFELIdEaSEd
                0x4006e59c       0x22 Logger.od
                0x4006e59c                _ZN8INTROFELIdEaSEd
 *fill*         0x4006e5be        0x2 
 .text._ZN8INTROFELIfEaSEf
                0x4006e5c0       0x14 Logger.od
                0x4006e5c0                _ZN8INTROFELIfEaSEf
 .text._ZN8INTROIELIiEaSEi
                0x4006e5d4       0x14 Logger.od
                0x4006e5d4                _ZN8INTROIELIiEaSEi
 .text._Z41__static_initialization_and_destruction_0ii
                0x4006e5e8       0x30 Logger.od
 .text._GLOBAL__sub_I_mainLog
                0x4006e618       0x1e Logger.od
 *fill*         0x4006e636        0x2 
 .text._Z11CoreRcTimeri
                0x4006e638      0x16e Drivers\servodrive.od
                0x4006e638                _Z11CoreRcTimeri
 *fill*         0x4006e7a6        0x2 
 .text._Z12fake_Ch0_ISRv
                0x4006e7a8       0x56 Drivers\servodrive.od
                0x4006e7a8                _Z12fake_Ch0_ISRv
                0x4006e7ac                Ch0_ISR
 *fill*         0x4006e7fe        0x2 
 .text.real_Ch0_ISR
                0x4006e800       0x18 Drivers\servodrive.od
                0x4006e800                real_Ch0_ISR
 .text._Z12fake_Ch1_ISRv
                0x4006e818       0x56 Drivers\servodrive.od
                0x4006e818                _Z12fake_Ch1_ISRv
                0x4006e81c                Ch1_ISR
 *fill*         0x4006e86e        0x2 
 .text.real_Ch1_ISR
                0x4006e870       0x1a Drivers\servodrive.od
                0x4006e870                real_Ch1_ISR
 *fill*         0x4006e88a        0x2 
 .text._Z14ServoDriveInitv
                0x4006e88c      0x1d2 Drivers\servodrive.od
                0x4006e88c                _Z14ServoDriveInitv
 *fill*         0x4006ea5e        0x2 
 .text._Z11SetServoPosid
                0x4006ea60      0x1a0 Drivers\servodrive.od
                0x4006ea60                _Z11SetServoPosid
 .text._Z11SetServoRawii
                0x4006ec00      0x142 Drivers\servodrive.od
                0x4006ec00                _Z11SetServoRawii
 *fill*         0x4006ed42        0x2 
 .text._Z11getServoPosi
                0x4006ed44       0x1c Drivers\servodrive.od
                0x4006ed44                _Z11getServoPosi
 .text._Z6PinPWMiid
                0x4006ed60       0xfe Drivers\pwm.od
                0x4006ed60                _Z6PinPWMiid
 *fill*         0x4006ee5e        0x2 
 .text._Z14PinFunctionPWMi
                0x4006ee60      0x1c0 Drivers\pwm.od
                0x4006ee60                _Z14PinFunctionPWMi
 .text._Z18CheckLoadOkayClearv
                0x4006f020       0x5c Drivers\pwm.od
                0x4006f020                _Z18CheckLoadOkayClearv
 .text._Z19RegisterDefinitionsih
                0x4006f07c      0x108 Drivers\pwm.od
                0x4006f07c                _Z19RegisterDefinitionsih
 .text._Z16InitializeModulev
                0x4006f184       0x30 Drivers\pwm.od
                0x4006f184                _Z16InitializeModulev
 .text._Z14EdgeAlignedPWMiii
                0x4006f1b4      0x2b6 Drivers\pwm.od
                0x4006f1b4                _Z14EdgeAlignedPWMiii
 *fill*         0x4006f46a        0x2 
 .text._ZN7OS_CRITC2Ev
                0x4006f46c       0x28 Drivers\introspec.od
                0x4006f46c                _ZN7OS_CRITC1Ev
                0x4006f46c                _ZN7OS_CRITC2Ev
 .text._Z11OSCritEnterP7OS_CRITt
                0x4006f494       0x26 Drivers\introspec.od
                0x4006f494                _Z11OSCritEnterP7OS_CRITt
 *fill*         0x4006f4ba        0x2 
 .text._Z11OSCritLeaveP7OS_CRIT
                0x4006f4bc       0x18 Drivers\introspec.od
                0x4006f4bc                _Z11OSCritLeaveP7OS_CRIT
 .text._ZN20OSCriticalSectionObjC2ER7OS_CRIT
                0x4006f4d4       0x24 Drivers\introspec.od
                0x4006f4d4                _ZN20OSCriticalSectionObjC2ER7OS_CRIT
                0x4006f4d4                _ZN20OSCriticalSectionObjC1ER7OS_CRIT
 .text._ZN20OSCriticalSectionObjD2Ev
                0x4006f4f8       0x1e Drivers\introspec.od
                0x4006f4f8                _ZN20OSCriticalSectionObjD2Ev
                0x4006f4f8                _ZN20OSCriticalSectionObjD1Ev
 *fill*         0x4006f516        0x2 
 .text._Z22BuildOrFindDescriptionPKc
                0x4006f518      0x112 Drivers\introspec.od
                0x4006f518                _Z22BuildOrFindDescriptionPKc
 *fill*         0x4006f62a        0x2 
 .text._ZN15IntrospecObjectC2EPKc
                0x4006f62c       0x28 Drivers\introspec.od
                0x4006f62c                _ZN15IntrospecObjectC1EPKc
                0x4006f62c                _ZN15IntrospecObjectC2EPKc
 .text._Z14LogEscapedByteh
                0x4006f654       0x82 Drivers\introspec.od
                0x4006f654                _Z14LogEscapedByteh
 *fill*         0x4006f6d6        0x2 
 .text._Z10LogRawByteh
                0x4006f6d8       0x6e Drivers\introspec.od
                0x4006f6d8                _Z10LogRawByteh
 *fill*         0x4006f746        0x2 
 .text._Z8LogRaw32m
                0x4006f748      0x1b2 Drivers\introspec.od
                0x4006f748                _Z8LogRaw32m
 *fill*         0x4006f8fa        0x2 
 .text._Z10LogRawDataPmS_
                0x4006f8fc       0x32 Drivers\introspec.od
                0x4006f8fc                _Z10LogRawDataPmS_
 *fill*         0x4006f92e        0x2 
 .text._ZN15IntrospecObject7ElementEPvmPKcc
                0x4006f930      0x152 Drivers\introspec.od
                0x4006f930                _ZN15IntrospecObject7ElementEPvmPKcc
 *fill*         0x4006fa82        0x2 
 .text._ZN15IntrospecObject12LogStructureEv
                0x4006fa84      0x138 Drivers\introspec.od
                0x4006fa84                _ZN15IntrospecObject12LogStructureEv
 .text._ZN15IntrospecObject3LogEb
                0x4006fbbc      0x1a8 Drivers\introspec.od
                0x4006fbbc                _ZN15IntrospecObject3LogEb
 .text._Z10LogMessagePKcb
                0x4006fd64       0xc8 Drivers\introspec.od
                0x4006fd64                _Z10LogMessagePKcb
 .text._Z12WriteLogToFdi
                0x4006fe2c      0x1f8 Drivers\introspec.od
                0x4006fe2c                _Z12WriteLogToFdi
 .text._Z8ClearLogv
                0x40070024       0x4a Drivers\introspec.od
                0x40070024                _Z8ClearLogv
 *fill*         0x4007006e        0x2 
 .text._Z10GetLogSizev
                0x40070070       0xde Drivers\introspec.od
                0x40070070                _Z10GetLogSizev
 *fill*         0x4007014e        0x2 
 .text._Z10InitLogFtpi
                0x40070150       0x22 Drivers\introspec.od
                0x40070150                _Z10InitLogFtpi
 *fill*         0x40070172        0x2 
 .text._Z22FTPD_GetFileFromClientPKcS0_Pvi
                0x40070174        0xa Drivers\introspec.od
                0x40070174                _Z22FTPD_GetFileFromClientPKcS0_Pvi
 *fill*         0x4007017e        0x2 
 .text._Z21FTPD_AbleToCreateFilePKcS0_Pv
                0x40070180        0xa Drivers\introspec.od
                0x40070180                _Z21FTPD_AbleToCreateFilePKcS0_Pv
 *fill*         0x4007018a        0x2 
 .text._Z16FTPDSessionStartPKcS0_7IPADDR4
                0x4007018c        0xa Drivers\introspec.od
                0x4007018c                _Z16FTPDSessionStartPKcS0_7IPADDR4
 *fill*         0x40070196        0x2 
 .text._Z14FTPDSessionEndPv
                0x40070198        0xa Drivers\introspec.od
                0x40070198                _Z14FTPDSessionEndPv
 *fill*         0x400701a2        0x2 
 .text._Z23FTPD_ListSubDirectoriesPKcPvPFviS0_Ei
                0x400701a4        0xa Drivers\introspec.od
                0x400701a4                _Z23FTPD_ListSubDirectoriesPKcPvPFviS0_Ei
 *fill*         0x400701ae        0x2 
 .text._Z20FTPD_DirectoryExistsPKcPv
                0x400701b0        0xa Drivers\introspec.od
                0x400701b0                _Z20FTPD_DirectoryExistsPKcPv
 *fill*         0x400701ba        0x2 
 .text._Z23FTPD_CreateSubDirectoryPKcS0_Pv
                0x400701bc        0xa Drivers\introspec.od
                0x400701bc                _Z23FTPD_CreateSubDirectoryPKcS0_Pv
 *fill*         0x400701c6        0x2 
 .text._Z23FTPD_DeleteSubDirectoryPKcS0_Pv
                0x400701c8        0xa Drivers\introspec.od
                0x400701c8                _Z23FTPD_DeleteSubDirectoryPKcS0_Pv
 *fill*         0x400701d2        0x2 
 .text._Z15FTPD_DeleteFilePKcS0_Pv
                0x400701d4       0x2e Drivers\introspec.od
                0x400701d4                _Z15FTPD_DeleteFilePKcS0_Pv
 *fill*         0x40070202        0x2 
 .text._Z11FTPD_RenamePKcS0_S0_Pv
                0x40070204        0xa Drivers\introspec.od
                0x40070204                _Z11FTPD_RenamePKcS0_S0_Pv
 *fill*         0x4007020e        0x2 
 .text._Z16FTPD_GetFileSizePKcS0_
                0x40070210        0xa Drivers\introspec.od
                0x40070210                _Z16FTPD_GetFileSizePKcS0_
 *fill*         0x4007021a        0x2 
 .text._Z12getdirstringPKclPc
                0x4007021c       0xee Drivers\introspec.od
                0x4007021c                _Z12getdirstringPKclPc
 *fill*         0x4007030a        0x2 
 .text._Z13FTPD_ListFilePKcPvPFviS0_Ei
                0x4007030c       0x90 Drivers\introspec.od
                0x4007030c                _Z13FTPD_ListFilePKcPvPFviS0_Ei
 .text._Z21FTPD_SendFileToClientPKcS0_Pvi
                0x4007039c       0x4a Drivers\introspec.od
                0x4007039c                _Z21FTPD_SendFileToClientPKcS0_Pvi
 *fill*         0x400703e6        0x2 
 .text._Z15FTPD_FileExistsPKcS0_Pv
                0x400703e8        0xa Drivers\introspec.od
                0x400703e8                _Z15FTPD_FileExistsPKcS0_Pv
 *fill*         0x400703f2        0x2 
 .text._ZN7FileLogC2EPKc
                0x400703f4       0x2a Drivers\introspec.od
                0x400703f4                _ZN7FileLogC2EPKc
                0x400703f4                _ZN7FileLogC1EPKc
 *fill*         0x4007041e        0x2 
 .text._Z15LogFileVersionsv
                0x40070420       0x98 Drivers\introspec.od
                0x40070420                _Z15LogFileVersionsv
 .text._Z41__static_initialization_and_destruction_0ii
                0x400704b8       0x44 Drivers\introspec.od
 .text._GLOBAL__sub_I__ZN15IntrospecObject7bShowMeE
                0x400704fc       0x1e Drivers\introspec.od
 *fill*         0x4007051a        0x2 
 .text._Z15RC_ProcessCharsih
                0x4007051c      0x1ce Drivers\dsm2.od
                0x4007051c                _Z15RC_ProcessCharsih
 *fill*         0x400706ea        0x2 
 .text._Z10InitDSM2Rxi
                0x400706ec       0x54 Drivers\dsm2.od
                0x400706ec                _Z10InitDSM2Rxi
 .text._ZN13SpinningLidar17SpinningLidarInitEv
                0x40070740       0x36 Drivers\SpinningLidar.od
                0x40070740                _ZN13SpinningLidar17SpinningLidarInitEv
 *fill*         0x40070776        0x2 
 .text._ZN13SpinningLidar11checkHealthEi
                0x40070778      0x10c Drivers\SpinningLidar.od
                0x40070778                _ZN13SpinningLidar11checkHealthEi
 .text._ZN13SpinningLidar9hardResetEi
                0x40070884       0x4c Drivers\SpinningLidar.od
                0x40070884                _ZN13SpinningLidar9hardResetEi
 .text._ZN13SpinningLidar9startScanEi
                0x400708d0       0x80 Drivers\SpinningLidar.od
                0x400708d0                _ZN13SpinningLidar9startScanEi
 .text._ZN13SpinningLidar11processCharEih
                0x40070950      0x1f2 Drivers\SpinningLidar.od
                0x40070950                _ZN13SpinningLidar11processCharEih
 *fill*         0x40070b42        0x2 
 .text._ZN13SpinningLidar9LidarTaskEPv
                0x40070b44      0x1be Drivers\SpinningLidar.od
                0x40070b44                _ZN13SpinningLidar9LidarTaskEPv
 *fill*         0x40070d02        0x2 
 .text._ZN8OdometerC2Ev
                0x40070d04       0x16 Drivers\Odometer.od
                0x40070d04                _ZN8OdometerC1Ev
                0x40070d04                _ZN8OdometerC2Ev
 *fill*         0x40070d1a        0x2 
 .text._ZN8OdometerC2Ei
                0x40070d1c       0x60 Drivers\Odometer.od
                0x40070d1c                _ZN8OdometerC1Ei
                0x40070d1c                _ZN8OdometerC2Ei
 .text._ZN8OdometerD2Ev
                0x40070d7c       0x2e Drivers\Odometer.od
                0x40070d7c                _ZN8OdometerD2Ev
                0x40070d7c                _ZN8OdometerD1Ev
 *fill*         0x40070daa        0x2 
 .text._ZN8OdometerD0Ev
                0x40070dac       0x28 Drivers\Odometer.od
                0x40070dac                _ZN8OdometerD0Ev
 .text._ZN8Odometer8getCountEv
                0x40070dd4        0xe Drivers\Odometer.od
                0x40070dd4                _ZN8Odometer8getCountEv
 *fill*         0x40070de2        0x2 
 .text._ZN8Odometer6OdoIrqEv
                0x40070de4       0xb6 Drivers\Odometer.od
                0x40070de4                _ZN8Odometer6OdoIrqEv
 .text._ZN5Madge24MadgwickQuaternionUpdateEfffffffff
                0x40070e9a      0xde8 Drivers\MadgwickFilter.od
                0x40070e9a                _ZN5Madge24MadgwickQuaternionUpdateEfffffffff
 *fill*         0x40071c82        0x2 
 .text.I2CSendBuf
                0x40071c84       0x3c Drivers\MPU9250.od
                0x40071c84                I2CSendBuf
 .text.I2CReadBuf
                0x40071cc0       0x3c Drivers\MPU9250.od
                0x40071cc0                I2CReadBuf
 .text.I2CRestart
                0x40071cfc       0x38 Drivers\MPU9250.od
                0x40071cfc                I2CRestart
 .text._ZN7MPU9250C2Eh
                0x40071d34       0x64 Drivers\MPU9250.od
                0x40071d34                _ZN7MPU9250C1Eh
                0x40071d34                _ZN7MPU9250C2Eh
 .text._ZN7MPU92507getMresEh
                0x40071d98       0x56 Drivers\MPU9250.od
                0x40071d98                _ZN7MPU92507getMresEh
 *fill*         0x40071dee        0x2 
 .text._ZN7MPU92507getGresEh
                0x40071df0       0x9a Drivers\MPU9250.od
                0x40071df0                _ZN7MPU92507getGresEh
 *fill*         0x40071e8a        0x2 
 .text._ZN7MPU92507getAresEh
                0x40071e8c       0x9a Drivers\MPU9250.od
                0x40071e8c                _ZN7MPU92507getAresEh
 *fill*         0x40071f26        0x2 
 .text._ZN7MPU925015readMPU9250DataEPs
                0x40071f28      0x182 Drivers\MPU9250.od
                0x40071f28                _ZN7MPU925015readMPU9250DataEPs
 *fill*         0x400720aa        0x2 
 .text._ZN7MPU925011readMagDataEPs
                0x400720ac       0xd0 Drivers\MPU9250.od
                0x400720ac                _ZN7MPU925011readMagDataEPs
 .text._ZN7MPU925010initAK8963EhhPf
                0x4007217c      0x250 Drivers\MPU9250.od
                0x4007217c                _ZN7MPU925010initAK8963EhhPf
 .text._ZN7MPU925011initMPU9250Ehh
                0x400723cc      0x1fc Drivers\MPU9250.od
                0x400723cc                _ZN7MPU925011initMPU9250Ehh
 .text._ZN7MPU925013magcalMPU9250EPfS0_
                0x400725c8      0x54e Drivers\MPU9250.od
                0x400725c8                _ZN7MPU925013magcalMPU9250EPfS0_
 *fill*         0x40072b16        0x2 
 .text._ZN7MPU925016calibrateMPU9250EPfS0_
                0x40072b18      0xb40 Drivers\MPU9250.od
                0x40072b18                _ZN7MPU925016calibrateMPU9250EPfS0_
 .text._ZN7MPU92508SelfTestEPf
                0x40073658      0xc4a Drivers\MPU9250.od
                0x40073658                _ZN7MPU92508SelfTestEPf
 *fill*         0x400742a2        0x2 
 .text._ZN7MPU925018I2CWriteReadBufferEhhPhi
                0x400742a4      0x10c Drivers\MPU9250.od
                0x400742a4                _ZN7MPU925018I2CWriteReadBufferEhhPhi
 .text._ZN7MPU92509writeByteEhhh
                0x400743b0       0x76 Drivers\MPU9250.od
                0x400743b0                _ZN7MPU92509writeByteEhhh
 *fill*         0x40074426        0x2 
 .text._ZN7MPU92508readByteEhh
                0x40074428       0x66 Drivers\MPU9250.od
                0x40074428                _ZN7MPU92508readByteEhh
 *fill*         0x4007448e        0x2 
 .text._ZN7MPU92509readBytesEhhhPh
                0x40074490       0x50 Drivers\MPU9250.od
                0x40074490                _ZN7MPU92509readBytesEhhhPh
 .text._ZN7MPU9250C2Ev
                0x400744e0        0xa Drivers\MPU9250.od
                0x400744e0                _ZN7MPU9250C2Ev
                0x400744e0                _ZN7MPU9250C1Ev
 *fill*         0x400744ea        0x2 
 .text._Z20fake_LIDAR_ISR_RIGHTv
                0x400744ec       0x56 Drivers\LidarPWM.od
                0x400744ec                _Z20fake_LIDAR_ISR_RIGHTv
                0x400744f0                LIDAR_ISR_RIGHT
 *fill*         0x40074542        0x2 
 .text.real_LIDAR_ISR_RIGHT
                0x40074544       0xb0 Drivers\LidarPWM.od
                0x40074544                real_LIDAR_ISR_RIGHT
 .text._Z12LidarPWMInitv
                0x400745f4       0x3e Drivers\LidarPWM.od
                0x400745f4                _Z12LidarPWMInitv
 *fill*         0x40074632        0x2 
 .text._Z15GlobalTimerIniti
                0x40074634       0xac Drivers\LidarPWM.od
                0x40074634                _Z15GlobalTimerIniti
 .text._Z13getRightLidarv
                0x400746e0       0x50 Drivers\LidarPWM.od
                0x400746e0                _Z13getRightLidarv
 .text._ZN3LCDC2Ev
                0x40074730       0x1e Drivers\LCD.od
                0x40074730                _ZN3LCDC1Ev
                0x40074730                _ZN3LCDC2Ev
 *fill*         0x4007474e        0x2 
 .text._ZN3LCDD2Ev
                0x40074750       0x2e Drivers\LCD.od
                0x40074750                _ZN3LCDD2Ev
                0x40074750                _ZN3LCDD1Ev
 *fill*         0x4007477e        0x2 
 .text._ZN3LCDD0Ev
                0x40074780       0x28 Drivers\LCD.od
                0x40074780                _ZN3LCDD0Ev
 .text._ZN3LCDC2Eii
                0x400747a8       0x40 Drivers\LCD.od
                0x400747a8                _ZN3LCDC1Eii
                0x400747a8                _ZN3LCDC2Eii
 .text._ZN3LCD10moveCursorEii
                0x400747e8       0x64 Drivers\LCD.od
                0x400747e8                _ZN3LCD10moveCursorEii
 .text._ZN3LCD5clearEv
                0x4007484c       0x6e Drivers\LCD.od
                0x4007484c                _ZN3LCD5clearEv
 *fill*         0x400748ba        0x2 
 .text._ZN3LCD5printEPKc
                0x400748bc       0x24 Drivers\LCD.od
                0x400748bc                _ZN3LCD5printEPKc
 .text._ZN3LCD5printEPKci
                0x400748e0       0x2a Drivers\LCD.od
                0x400748e0                _ZN3LCD5printEPKci
 *fill*         0x4007490a        0x2 
 .text._ZN5PinIOaSEi
                0x4007490c       0x24 Drivers\IMUSetupAndSample.od
                0x4007490c                _ZN5PinIOaSEi
 .text._ZN10HiResTimer5startEv
                0x40074930       0x24 Drivers\IMUSetupAndSample.od
                0x40074930                _ZN10HiResTimer5startEv
 .text._Z8IMUSetupv
                0x40074954      0x548 Drivers\IMUSetupAndSample.od
                0x40074954                _Z8IMUSetupv
 .text._Z15CalibAccAndGyrov
                0x40074e9c      0x30e Drivers\IMUSetupAndSample.od
                0x40074e9c                _Z15CalibAccAndGyrov
 *fill*         0x400751aa        0x2 
 .text._Z4Pirqv
                0x400751ac       0x2a Drivers\IMUSetupAndSample.od
                0x400751ac                _Z4Pirqv
 *fill*         0x400751d6        0x2 
 .text._Z13IMUSampleLoopPv
                0x400751d8      0x944 Drivers\IMUSetupAndSample.od
                0x400751d8                _Z13IMUSampleLoopPv
 .text._Z9unclodI2Cv
                0x40075b1c      0x25c Drivers\IMUSetupAndSample.od
                0x40075b1c                _Z9unclodI2Cv
 .text._Z11whoAmICheckv
                0x40075d78       0xaa Drivers\IMUSetupAndSample.od
                0x40075d78                _Z11whoAmICheckv
 *fill*         0x40075e22        0x2 
 .text._Z6IMURunv
                0x40075e24       0x84 Drivers\IMUSetupAndSample.od
                0x40075e24                _Z6IMURunv
 .text._Z10getHeadingv
                0x40075ea8       0x2e Drivers\IMUSetupAndSample.od
                0x40075ea8                _Z10getHeadingv
 *fill*         0x40075ed6        0x2 
 .text._Z41__static_initialization_and_destruction_0ii
                0x40075ed8       0xae Drivers\IMUSetupAndSample.od
 *fill*         0x40075f86        0x2 
 .text._GLOBAL__sub_I_Gscale
                0x40075f88       0x1e Drivers\IMUSetupAndSample.od
 *fill*         0x40075fa6        0x2 
 .text._Z14DoHtmlFunctioniPKct
                0x40075fa8       0x12 htmldata.od
                0x40075fa8                _Z14DoHtmlFunctioniPKct
 *fill*         0x40075fba        0x2 
 .text._Z14DoHtmlVariableit
                0x40075fbc       0x12 htmldata.od
                0x40075fbc                _Z14DoHtmlVariableit
 *fill*         0x40075fce        0x2 
 .text._Z11random_seedv
                0x40075fd0       0x2e C:\Nburn/lib/DBNANO54415.a(serial.od)
                0x40075fd0                _Z11random_seedv
 *fill*         0x40075ffe        0x2 
 .text._ZN11UartDataRecC2Ev
                0x40076000       0x3c C:\Nburn/lib/DBNANO54415.a(serial.od)
                0x40076000                _ZN11UartDataRecC1Ev
                0x40076000                _ZN11UartDataRecC2Ev
 .text._ZN11UartDataRecD2Ev
                0x4007603c       0x2c C:\Nburn/lib/DBNANO54415.a(serial.od)
                0x4007603c                _ZN11UartDataRecD2Ev
                0x4007603c                _ZN11UartDataRecD1Ev
 .text._Z10OSCritInitP7OS_CRIT
                0x40076068       0x14 C:\Nburn/lib/DBNANO54415.a(FlashOps.od)
                0x40076068                _Z10OSCritInitP7OS_CRIT
 .text._Z9OSSemInitP6OS_SEMl
                0x4007607c       0x22 C:\Nburn/lib/DBNANO54415.a(HiResTimer.od)
                0x4007607c                _Z9OSSemInitP6OS_SEMl
 *fill*         0x4007609e        0x2 
 .text._Z9OSSemPostP6OS_SEM
                0x400760a0       0x14 C:\Nburn/lib/DBNANO54415.a(HiResTimer.od)
                0x400760a0                _Z9OSSemPostP6OS_SEM
 .text._Z9OSSemPendP6OS_SEMt
                0x400760b4       0x22 C:\Nburn/lib/DBNANO54415.a(HiResTimer.od)
                0x400760b4                _Z9OSSemPendP6OS_SEMt
 *fill*         0x400760d6        0x2 
 .text._ZN10HiResTimerC2Ev
                0x400760d8       0x20 C:\Nburn/lib/DBNANO54415.a(HiResTimer.od)
                0x400760d8                _ZN10HiResTimerC2Ev
                0x400760d8                _ZN10HiResTimerC1Ev
 .text._ZN10HiResTimerD2Ev
                0x400760f8        0xa C:\Nburn/lib/DBNANO54415.a(HiResTimer.od)
                0x400760f8                _ZN10HiResTimerD1Ev
                0x400760f8                _ZN10HiResTimerD2Ev
 *fill*         0x40076102        0x2 
 .text._ZN10HiResTimer8readHighEv
                0x40076104       0x10 C:\Nburn/lib/DBNANO54415.a(HiResTimer.od)
                0x40076104                _ZN10HiResTimer8readHighEv
 .text._ZN10HiResTimer7readLowEv
                0x40076114       0x14 C:\Nburn/lib/DBNANO54415.a(HiResTimer.od)
                0x40076114                _ZN10HiResTimer7readLowEv
 .text._ZN10HiResTimer9stopClearEv
                0x40076128       0x46 C:\Nburn/lib/DBNANO54415.a(HiResTimer.od)
                0x40076128                _ZN10HiResTimer9stopClearEv
 *fill*         0x4007616e        0x2 
 .text._ZN10HiResTimer13fireInterruptEi
                0x40076170       0x24 C:\Nburn/lib/DBNANO54415.a(HiResTimer.od)
                0x40076170                _ZN10HiResTimer13fireInterruptEi
 .text._ZN10HiResTimer13fireInterruptEv
                0x40076194       0x7c C:\Nburn/lib/DBNANO54415.a(HiResTimer.od)
                0x40076194                _ZN10HiResTimer13fireInterruptEv
 .text._Z10OSFifoPostP7OS_FIFOP10os_fifo_el
                0x40076210       0x18 C:\Nburn/lib/DBNANO54415.a(dbethernet.od)
                0x40076210                _Z10OSFifoPostP7OS_FIFOP10os_fifo_el
 .text._ZN7IPADDR4aSERKS_
                0x40076228       0x18 C:\Nburn/lib/DBNANO54415.a(dbethernet.od)
                0x40076228                _ZN7IPADDR4aSERKS_
 .text._ZN7IPADDR4aSEm
                0x40076240       0x14 C:\Nburn/lib/DBNANO54415.a(dbethernet.od)
                0x40076240                _ZN7IPADDR4aSEm
 .text._ZNK7IPADDR4cvmEv
                0x40076254        0xe C:\Nburn/lib/DBNANO54415.a(dbethernet.od)
                0x40076254                _ZNK7IPADDR4cvmEv
 *fill*         0x40076262        0x2 
 .text._ZNK7IPADDR46IsNullEv
                0x40076264       0x16 C:\Nburn/lib/DBNANO54415.a(dbethernet.od)
                0x40076264                _ZNK7IPADDR46IsNullEv
 *fill*         0x4007627a        0x2 
 .text._ZN12PsudeoHeaderC2Ev
                0x4007627c       0x2a C:\Nburn/lib/DBNANO54415.a(dbethernet.od)
                0x4007627c                _ZN12PsudeoHeaderC1Ev
                0x4007627c                _ZN12PsudeoHeaderC2Ev
 *fill*         0x400762a6        0x2 
 .text._ZN10i2c_master5setTXEv
                0x400762a8       0x24 C:\Nburn/lib/DBNANO54415.a(multichanneli2c.od)
                0x400762a8                _ZN10i2c_master5setTXEv
 .text._ZN10i2c_master8setNoAckEv
                0x400762cc       0x24 C:\Nburn/lib/DBNANO54415.a(multichanneli2c.od)
                0x400762cc                _ZN10i2c_master8setNoAckEv
 .text._ZN10i2c_master10setAddressEh
                0x400762f0       0x22 C:\Nburn/lib/DBNANO54415.a(multichanneli2c.od)
                0x400762f0                _ZN10i2c_master10setAddressEh
 *fill*         0x40076312        0x2 
 .text._ZN10i2c_master8readDataEv
                0x40076314       0x12 C:\Nburn/lib/DBNANO54415.a(multichanneli2c.od)
                0x40076314                _ZN10i2c_master8readDataEv
 *fill*         0x40076326        0x2 
 .text._ZN16I2C_Slave_RecordC2Ev
                0x40076328       0x1a C:\Nburn/lib/DBNANO54415.a(multichanneli2c.od)
                0x40076328                _ZN16I2C_Slave_RecordC1Ev
                0x40076328                _ZN16I2C_Slave_RecordC2Ev
 *fill*         0x40076342        0x2 
 .text._ZN7OS_FIFOC2Ev
                0x40076344       0x24 C:\Nburn/lib/DBNANO54415.a(ethernet.od)
                0x40076344                _ZN7OS_FIFOC1Ev
                0x40076344                _ZN7OS_FIFOC2Ev
 .text._Z10OSFifoInitP7OS_FIFO
                0x40076368       0x1e C:\Nburn/lib/DBNANO54415.a(ethernet.od)
                0x40076368                _Z10OSFifoInitP7OS_FIFO
 *fill*         0x40076386        0x2 
 .text._Z10OSFifoPendP7OS_FIFOt
                0x40076388       0x2e C:\Nburn/lib/DBNANO54415.a(ethernet.od)
                0x40076388                _Z10OSFifoPendP7OS_FIFOt
 *fill*         0x400763b6        0x2 
 .text._ZN12EthernetVarsC2Ev
                0x400763b8       0x20 C:\Nburn/lib/DBNANO54415.a(ethernet.od)
                0x400763b8                _ZN12EthernetVarsC2Ev
                0x400763b8                _ZN12EthernetVarsC1Ev
 .text._ZN15_InterfaceBlockC2Ev
                0x400763d8       0x6a C:\Nburn/lib/DBNANO54415.a(ethernet.od)
                0x400763d8                _ZN15_InterfaceBlockC1Ev
                0x400763d8                _ZN15_InterfaceBlockC2Ev
 *fill*         0x40076442        0x2 
 .text._ZN10i2c_master9enableBusEv
                0x40076444       0x24 C:\Nburn/lib/DBNANO54415.a(i2c_class.od)
                0x40076444                _ZN10i2c_master9enableBusEv
 .text._ZN10i2c_master10disableBusEv
                0x40076468       0x16 C:\Nburn/lib/DBNANO54415.a(i2c_class.od)
                0x40076468                _ZN10i2c_master10disableBusEv
 *fill*         0x4007647e        0x2 
 .text._ZN10i2c_master15enableInterruptEv
                0x40076480       0x24 C:\Nburn/lib/DBNANO54415.a(i2c_class.od)
                0x40076480                _ZN10i2c_master15enableInterruptEv
 .text._ZN10i2c_master16enableMasterModeEv
                0x400764a4       0x24 C:\Nburn/lib/DBNANO54415.a(i2c_class.od)
                0x400764a4                _ZN10i2c_master16enableMasterModeEv
 .text._ZN10i2c_master15enableSlaveModeEv
                0x400764c8       0x24 C:\Nburn/lib/DBNANO54415.a(i2c_class.od)
                0x400764c8                _ZN10i2c_master15enableSlaveModeEv
 .text._ZN10i2c_master8sendStopEv
                0x400764ec       0x16 C:\Nburn/lib/DBNANO54415.a(i2c_class.od)
                0x400764ec                _ZN10i2c_master8sendStopEv
 *fill*         0x40076502        0x2 
 .text._ZN10i2c_master9slaveModeEv
                0x40076504       0x20 C:\Nburn/lib/DBNANO54415.a(i2c_class.od)
                0x40076504                _ZN10i2c_master9slaveModeEv
 .text._ZN10i2c_master5setRXEv
                0x40076524       0x24 C:\Nburn/lib/DBNANO54415.a(i2c_class.od)
                0x40076524                _ZN10i2c_master5setRXEv
 .text._ZN10i2c_master12transmittingEv
                0x40076548       0x20 C:\Nburn/lib/DBNANO54415.a(i2c_class.od)
                0x40076548                _ZN10i2c_master12transmittingEv
 .text._ZN10i2c_master6setAckEv
                0x40076568       0x24 C:\Nburn/lib/DBNANO54415.a(i2c_class.od)
                0x40076568                _ZN10i2c_master6setAckEv
 .text._ZN10i2c_master9sentRXAckEv
                0x4007658c       0x20 C:\Nburn/lib/DBNANO54415.a(i2c_class.od)
                0x4007658c                _ZN10i2c_master9sentRXAckEv
 .text._ZN10i2c_master14setRepeatStartEv
                0x400765ac       0x24 C:\Nburn/lib/DBNANO54415.a(i2c_class.od)
                0x400765ac                _ZN10i2c_master14setRepeatStartEv
 .text._ZN10i2c_master16addressedAsSlaveEv
                0x400765d0       0x20 C:\Nburn/lib/DBNANO54415.a(i2c_class.od)
                0x400765d0                _ZN10i2c_master16addressedAsSlaveEv
 .text._ZN10i2c_master7busBusyEv
                0x400765f0       0x20 C:\Nburn/lib/DBNANO54415.a(i2c_class.od)
                0x400765f0                _ZN10i2c_master7busBusyEv
 .text._ZN10i2c_master7arbLostEv
                0x40076610       0x20 C:\Nburn/lib/DBNANO54415.a(i2c_class.od)
                0x40076610                _ZN10i2c_master7arbLostEv
 .text._ZN10i2c_master10clrArbLostEv
                0x40076630       0x24 C:\Nburn/lib/DBNANO54415.a(i2c_class.od)
                0x40076630                _ZN10i2c_master10clrArbLostEv
 .text._ZN10i2c_master16addressedSlaveTXEv
                0x40076654       0x20 C:\Nburn/lib/DBNANO54415.a(i2c_class.od)
                0x40076654                _ZN10i2c_master16addressedSlaveTXEv
 .text._ZN10i2c_master10clrIntFlagEv
                0x40076674       0x24 C:\Nburn/lib/DBNANO54415.a(i2c_class.od)
                0x40076674                _ZN10i2c_master10clrIntFlagEv
 .text._ZN10i2c_master13receivedRXAckEv
                0x40076698       0x20 C:\Nburn/lib/DBNANO54415.a(i2c_class.od)
                0x40076698                _ZN10i2c_master13receivedRXAckEv
 .text._ZN10i2c_master11clearStatusEv
                0x400766b8       0x16 C:\Nburn/lib/DBNANO54415.a(i2c_class.od)
                0x400766b8                _ZN10i2c_master11clearStatusEv
 *fill*         0x400766ce        0x2 
 .text._ZN10i2c_master8sendDataEh
                0x400766d0       0x1e C:\Nburn/lib/DBNANO54415.a(i2c_class.od)
                0x400766d0                _ZN10i2c_master8sendDataEh
 *fill*         0x400766ee        0x2 
 .text._ZN10i2c_master7setFreqEh
                0x400766f0       0x1e C:\Nburn/lib/DBNANO54415.a(i2c_class.od)
                0x400766f0                _ZN10i2c_master7setFreqEh
 *fill*         0x4007670e        0x2 
 .text._ZN15OS_TASK_DLY_OBJ4InitEv
                0x40076710       0x60 C:\Nburn/lib/DBNetBurner.a(ucos.od)
                0x40076710                _ZN15OS_TASK_DLY_OBJ4InitEv
 .text._ZN15OS_TASK_DLY_OBJ4WaitERV6os_tcbhm
                0x40076770      0x154 C:\Nburn/lib/DBNetBurner.a(ucos.od)
                0x40076770                _ZN15OS_TASK_DLY_OBJ4WaitERV6os_tcbhm
 .text._ZN15OS_TASK_DLY_OBJ12ClearWaitingEh
                0x400768c4       0x9a C:\Nburn/lib/DBNetBurner.a(ucos.od)
                0x400768c4                _ZN15OS_TASK_DLY_OBJ12ClearWaitingEh
 *fill*         0x4007695e        0x2 
 .text._ZN15OS_TASK_DLY_OBJ5ReadyEh
                0x40076960      0x1ba C:\Nburn/lib/DBNetBurner.a(ucos.od)
                0x40076960                _ZN15OS_TASK_DLY_OBJ5ReadyEh
 *fill*         0x40076b1a        0x2 
 .text._ZNK7IPADDR417IsGlobalBroadCastEv
                0x40076b1c       0x18 C:\Nburn/lib/DBNetBurner.a(system.od)
                0x40076b1c                _ZNK7IPADDR417IsGlobalBroadCastEv
 .text._ZN7IPADDR4C2ERKS_
                0x40076b34       0x16 C:\Nburn/lib/DBNetBurner.a(system.od)
                0x40076b34                _ZN7IPADDR4C1ERKS_
                0x40076b34                _ZN7IPADDR4C2ERKS_
 *fill*         0x40076b4a        0x2 
 .text._ZN12ConfigRecordC2Ev
                0x40076b4c       0x66 C:\Nburn/lib/DBNetBurner.a(system.od)
                0x40076b4c                _ZN12ConfigRecordC2Ev
                0x40076b4c                _ZN12ConfigRecordC1Ev
 *fill*         0x40076bb2        0x2 
 .text._Z16OSFifoPendNoWaitP7OS_FIFO
                0x40076bb4       0x1e C:\Nburn/lib/DBNetBurner.a(ip.od)
                0x40076bb4                _Z16OSFifoPendNoWaitP7OS_FIFO
 *fill*         0x40076bd2        0x2 
 .text._ZNK7IPADDR47NotNullEv
                0x40076bd4       0x1a C:\Nburn/lib/DBNetBurner.a(ip.od)
                0x40076bd4                _ZNK7IPADDR47NotNullEv
 *fill*         0x40076bee        0x2 
 .text._ZNK7IPADDR411IsMultiCastEv
                0x40076bf0       0x20 C:\Nburn/lib/DBNetBurner.a(ip.od)
                0x40076bf0                _ZNK7IPADDR411IsMultiCastEv
 .text._ZNK7IPADDR414IsBcastNetMaskES_S_
                0x40076c10       0x44 C:\Nburn/lib/DBNetBurner.a(ip.od)
                0x40076c10                _ZNK7IPADDR414IsBcastNetMaskES_S_
 .text._Zeq7IPADDR4S_
                0x40076c54       0x1c C:\Nburn/lib/DBNetBurner.a(ip.od)
                0x40076c54                _Zeq7IPADDR4S_
 .text._Zne7IPADDR4S_
                0x40076c70       0x1c C:\Nburn/lib/DBNetBurner.a(ip.od)
                0x40076c70                _Zne7IPADDR4S_
 .text._Z14OSPoolFifoPostP7OS_FIFOP11pool_buffer
                0x40076c8c       0x18 C:\Nburn/lib/DBNetBurner.a(ip.od)
                0x40076c8c                _Z14OSPoolFifoPostP7OS_FIFOP11pool_buffer
 .text._Z14OSPoolFifoPendP7OS_FIFOt
                0x40076ca4       0x24 C:\Nburn/lib/DBNetBurner.a(ip.od)
                0x40076ca4                _Z14OSPoolFifoPendP7OS_FIFOt
 .text._Z20OSPoolFifoPendNoWaitP7OS_FIFO
                0x40076cc8       0x14 C:\Nburn/lib/DBNetBurner.a(ip.od)
                0x40076cc8                _Z20OSPoolFifoPendNoWaitP7OS_FIFO
 .text._ZN11buffer_listC2Ev
                0x40076cdc       0x22 C:\Nburn/lib/DBNetBurner.a(ip.od)
                0x40076cdc                _ZN11buffer_listC1Ev
                0x40076cdc                _ZN11buffer_listC2Ev
 *fill*         0x40076cfe        0x2 
 .text._ZN11buffer_list8GetCountEv
                0x40076d00       0x10 C:\Nburn/lib/DBNetBurner.a(ip.od)
                0x40076d00                _ZN11buffer_list8GetCountEv
 .text._Z8GetIpPktP11pool_buffer
                0x40076d10       0x22 C:\Nburn/lib/DBNetBurner.a(ip.od)
                0x40076d10                _Z8GetIpPktP11pool_buffer
 *fill*         0x40076d32        0x2 
 .text._Z8GetIpPktP6EFRAME
                0x40076d34       0x12 C:\Nburn/lib/DBNetBurner.a(ip.od)
                0x40076d34                _Z8GetIpPktP6EFRAME
 *fill*         0x40076d46        0x2 
 .text._ZN15_InterfaceBlockaSERKS_
                0x40076d48      0x174 C:\Nburn/lib/DBNetBurner.a(ip.od)
                0x40076d48                _ZN15_InterfaceBlockaSERKS_
 .text._ZN18USER_CRITICAL_LOCKC2Ev
                0x40076ebc       0x16 C:\Nburn/lib/DBNetBurner.a(buffers.od)
                0x40076ebc                _ZN18USER_CRITICAL_LOCKC1Ev
                0x40076ebc                _ZN18USER_CRITICAL_LOCKC2Ev
 *fill*         0x40076ed2        0x2 
 .text._ZN18USER_CRITICAL_LOCKD2Ev
                0x40076ed4       0x2c C:\Nburn/lib/DBNetBurner.a(buffers.od)
                0x40076ed4                _ZN18USER_CRITICAL_LOCKD1Ev
                0x40076ed4                _ZN18USER_CRITICAL_LOCKD2Ev
 .text._ZN18BufferCriticalLockC2ER7OS_CRIT
                0x40076f00       0x58 C:\Nburn/lib/DBNetBurner.a(buffers.od)
                0x40076f00                _ZN18BufferCriticalLockC1ER7OS_CRIT
                0x40076f00                _ZN18BufferCriticalLockC2ER7OS_CRIT
 .text._ZN18BufferCriticalLockD2Ev
                0x40076f58       0x68 C:\Nburn/lib/DBNetBurner.a(buffers.od)
                0x40076f58                _ZN18BufferCriticalLockD1Ev
                0x40076f58                _ZN18BufferCriticalLockD2Ev
 .text._Z17OSCritEnterNoWaitP7OS_CRIT
                0x40076fc0       0x14 C:\Nburn/lib/DBNetBurner.a(arp.od)
                0x40076fc0                _Z17OSCritEnterNoWaitP7OS_CRIT
 .text._ZN6MACADR6IsNullEv
                0x40076fd4       0x30 C:\Nburn/lib/DBNetBurner.a(arp.od)
                0x40076fd4                _ZN6MACADR6IsNullEv
 .text._ZeqRK6MACADRS1_
                0x40077004       0x7e C:\Nburn/lib/DBNetBurner.a(arp.od)
                0x40077004                _ZeqRK6MACADRS1_
 *fill*         0x40077082        0x2 
 .text._ZneRK6MACADRS1_
                0x40077084       0x7e C:\Nburn/lib/DBNetBurner.a(arp.od)
                0x40077084                _ZneRK6MACADRS1_
 *fill*         0x40077102        0x2 
 .text._ZNK7IPADDR48McastMacEv
                0x40077104       0x48 C:\Nburn/lib/DBNetBurner.a(arp.od)
                0x40077104                _ZNK7IPADDR48McastMacEv
 .text._Zgt7IPADDR4S_
                0x4007714c       0x1c C:\Nburn/lib/DBNetBurner.a(arp.od)
                0x4007714c                _Zgt7IPADDR4S_
 .text._Zlt7IPADDR4S_
                0x40077168       0x1c C:\Nburn/lib/DBNetBurner.a(arp.od)
                0x40077168                _Zlt7IPADDR4S_
 .text._ZN9ArpRecord7SetLifeEm
                0x40077184       0x28 C:\Nburn/lib/DBNetBurner.a(arp.od)
                0x40077184                _ZN9ArpRecord7SetLifeEm
 .text._ZN9ArpRecordC2Ev
                0x400771ac       0x1a C:\Nburn/lib/DBNetBurner.a(arp.od)
                0x400771ac                _ZN9ArpRecordC2Ev
                0x400771ac                _ZN9ArpRecordC1Ev
 *fill*         0x400771c6        0x2 
 .text._ZN9ArpHolderC2Ev
                0x400771c8       0x1a C:\Nburn/lib/DBNetBurner.a(arp.od)
                0x400771c8                _ZN9ArpHolderC1Ev
                0x400771c8                _ZN9ArpHolderC2Ev
 *fill*         0x400771e2        0x2 
 .text._ZN7IPADDR6aSERKS_
                0x400771e4       0x48 C:\Nburn/lib/DBNetBurner.a(udp.od)
                0x400771e4                _ZN7IPADDR6aSERKS_
 .text._ZN7IPADDR6C2ERKS_
                0x4007722c       0x1a C:\Nburn/lib/DBNetBurner.a(udp.od)
                0x4007722c                _ZN7IPADDR6C2ERKS_
                0x4007722c                _ZN7IPADDR6C1ERKS_
 *fill*         0x40077246        0x2 
 .text._ZN9UDPPacket16GetSourceAddressEv
                0x40077248       0x22 C:\Nburn/lib/DBNetBurner.a(udp.od)
                0x40077248                _ZN9UDPPacket16GetSourceAddressEv
 *fill*         0x4007726a        0x2 
 .text._ZN9UDPPacket7bIsIPV6Ev
                0x4007726c       0x18 C:\Nburn/lib/DBNetBurner.a(udp.od)
                0x4007726c                _ZN9UDPPacket7bIsIPV6Ev
 .text._ZN9UDPPacket4SendERK7IPADDR6h
                0x40077284       0x2c C:\Nburn/lib/DBNetBurner.a(udp.od)
                0x40077284                _ZN9UDPPacket4SendERK7IPADDR6h
 .text._ZN9UDPPacket19SendViaInterfaceNumERK7IPADDR6ih
                0x400772b0       0x30 C:\Nburn/lib/DBNetBurner.a(udp.od)
                0x400772b0                _ZN9UDPPacket19SendViaInterfaceNumERK7IPADDR6ih
 .text._ZN9UDPPacket13ReleaseBufferEv
                0x400772e0       0x20 C:\Nburn/lib/DBNetBurner.a(udp.od)
                0x400772e0                _ZN9UDPPacket13ReleaseBufferEv
 .text._ZN12FTPd_SessionC2Ev
                0x40077300       0x1e C:\Nburn/lib/DBNetBurner.a(ftpd.od)
                0x40077300                _ZN12FTPd_SessionC2Ev
                0x40077300                _ZN12FTPd_SessionC1Ev
 *fill*         0x4007731e        0x2 
 .text._Z15OSSemPendNoWaitP6OS_SEM
                0x40077320       0x14 C:\Nburn/lib/DBNetBurner.a(tcp.od)
                0x40077320                _Z15OSSemPendNoWaitP6OS_SEM
 .text._ZN7IPADDR4C2Em
                0x40077334       0x12 C:\Nburn/lib/DBNetBurner.a(tcp.od)
                0x40077334                _ZN7IPADDR4C1Em
                0x40077334                _ZN7IPADDR4C2Em
 *fill*         0x40077346        0x2 
 .text._ZNK7IPADDR614IsEmbeddedIPV4Ev
                0x40077348       0x34 C:\Nburn/lib/DBNetBurner.a(tcp.od)
                0x40077348                _ZNK7IPADDR614IsEmbeddedIPV4Ev
 .text._ZNK7IPADDR68Extract4Ev
                0x4007737c       0x34 C:\Nburn/lib/DBNetBurner.a(tcp.od)
                0x4007737c                _ZNK7IPADDR68Extract4Ev
 .text._ZN7IPADDR6aSE7IPADDR4
                0x400773b0       0x3c C:\Nburn/lib/DBNetBurner.a(tcp.od)
                0x400773b0                _ZN7IPADDR6aSE7IPADDR4
 .text._ZNK7IPADDR66IsNullEv
                0x400773ec       0x34 C:\Nburn/lib/DBNetBurner.a(tcp.od)
                0x400773ec                _ZNK7IPADDR66IsNullEv
 .text._ZNK7IPADDR610IsLoopBackEv
                0x40077420       0x3e C:\Nburn/lib/DBNetBurner.a(tcp.od)
                0x40077420                _ZNK7IPADDR610IsLoopBackEv
 *fill*         0x4007745e        0x2 
 .text._ZN7IPADDR621SetFromUint32ShortcutEmmmm
                0x40077460       0x30 C:\Nburn/lib/DBNetBurner.a(tcp.od)
                0x40077460                _ZN7IPADDR621SetFromUint32ShortcutEmmmm
 .text._ZN7IPADDR67SetNullEv
                0x40077490       0x28 C:\Nburn/lib/DBNetBurner.a(tcp.od)
                0x40077490                _ZN7IPADDR67SetNullEv
 .text._ZN7IPADDR6C2Ev
                0x400774b8       0x16 C:\Nburn/lib/DBNetBurner.a(tcp.od)
                0x400774b8                _ZN7IPADDR6C1Ev
                0x400774b8                _ZN7IPADDR6C2Ev
 *fill*         0x400774ce        0x2 
 .text._ZN7IPADDR6C2E7IPADDR4
                0x400774d0       0x2e C:\Nburn/lib/DBNetBurner.a(tcp.od)
                0x400774d0                _ZN7IPADDR6C2E7IPADDR4
                0x400774d0                _ZN7IPADDR6C1E7IPADDR4
 *fill*         0x400774fe        0x2 
 .text._ZNK7IPADDR616GetInternalValueEi
                0x40077500       0x14 C:\Nburn/lib/DBNetBurner.a(tcp.od)
                0x40077500                _ZNK7IPADDR616GetInternalValueEi
 .text._Zeq7IPADDR6S_
                0x40077514       0x5a C:\Nburn/lib/DBNetBurner.a(tcp.od)
                0x40077514                _Zeq7IPADDR6S_
 *fill*         0x4007756e        0x2 
 .text._Z6IsMyIpRK7IPADDR6
                0x40077570       0x14 C:\Nburn/lib/DBNetBurner.a(tcp.od)
                0x40077570                _Z6IsMyIpRK7IPADDR6
 .text._Z8GetSrcIpRK7IPADDR6
                0x40077584       0x22 C:\Nburn/lib/DBNetBurner.a(tcp.od)
                0x40077584                _Z8GetSrcIpRK7IPADDR6
 *fill*         0x400775a6        0x2 
 .text._Z9GetTcpPktP5IPPKT
                0x400775a8       0x58 C:\Nburn/lib/DBNetBurner.a(tcp.od)
                0x400775a8                _Z9GetTcpPktP5IPPKT
 .text._ZN13IPv6Interface18GetInterfaceNumberEv
                0x40077600        0xe C:\Nburn/lib/DBNetBurner.a(tcp.od)
                0x40077600                _ZN13IPv6Interface18GetInterfaceNumberEv
 *fill*         0x4007760e        0x2 
 .text._ZN16TcpCarrierPacket4FreeEv
                0x40077610       0x46 C:\Nburn/lib/DBNetBurner.a(tcp.od)
                0x40077610                _ZN16TcpCarrierPacket4FreeEv
 *fill*         0x40077656        0x2 
 .text._ZN16TcpCarrierPacket6DetachEv
                0x40077658       0x2a C:\Nburn/lib/DBNetBurner.a(tcp.od)
                0x40077658                _ZN16TcpCarrierPacket6DetachEv
 *fill*         0x40077682        0x2 
 .text._ZN16TcpCarrierPacket11Get_pp_flagEv
                0x40077684       0x20 C:\Nburn/lib/DBNetBurner.a(tcp.od)
                0x40077684                _ZN16TcpCarrierPacket11Get_pp_flagEv
 .text._ZN16TcpCarrierPacket12GetInterfaceEv
                0x400776a4       0x20 C:\Nburn/lib/DBNetBurner.a(tcp.od)
                0x400776a4                _ZN16TcpCarrierPacket12GetInterfaceEv
 .text._ZN16TcpCarrierPacket12GetMacSourceEv
                0x400776c4       0x2e C:\Nburn/lib/DBNetBurner.a(tcp.od)
                0x400776c4                _ZN16TcpCarrierPacket12GetMacSourceEv
 *fill*         0x400776f2        0x2 
 .text._ZN16TcpCarrierPacket8GetFlagsEv
                0x400776f4       0x14 C:\Nburn/lib/DBNetBurner.a(tcp.od)
                0x400776f4                _ZN16TcpCarrierPacket8GetFlagsEv
 .text._ZN16TcpCarrierPacket11GetDestPortEv
                0x40077708       0x24 C:\Nburn/lib/DBNetBurner.a(tcp.od)
                0x40077708                _ZN16TcpCarrierPacket11GetDestPortEv
 .text._ZN16TcpCarrierPacket13GetSourcePortEv
                0x4007772c       0x22 C:\Nburn/lib/DBNetBurner.a(tcp.od)
                0x4007772c                _ZN16TcpCarrierPacket13GetSourcePortEv
 *fill*         0x4007774e        0x2 
 .text._ZN16TcpCarrierPacket9GetWindowEv
                0x40077750       0x24 C:\Nburn/lib/DBNetBurner.a(tcp.od)
                0x40077750                _ZN16TcpCarrierPacket9GetWindowEv
 .text._ZN16TcpCarrierPacket6GetSeqEv
                0x40077774       0x24 C:\Nburn/lib/DBNetBurner.a(tcp.od)
                0x40077774                _ZN16TcpCarrierPacket6GetSeqEv
 .text._ZN16TcpCarrierPacket6GetAckEv
                0x40077798       0x24 C:\Nburn/lib/DBNetBurner.a(tcp.od)
                0x40077798                _ZN16TcpCarrierPacket6GetAckEv
 .text._ZN16TcpCarrierPacket12GetHeaderLenEv
                0x400777bc       0x24 C:\Nburn/lib/DBNetBurner.a(tcp.od)
                0x400777bc                _ZN16TcpCarrierPacket12GetHeaderLenEv
 .text._ZN16TcpCarrierPacket7GetpTcpEv
                0x400777e0       0x10 C:\Nburn/lib/DBNetBurner.a(tcp.od)
                0x400777e0                _ZN16TcpCarrierPacket7GetpTcpEv
 .text._ZN16TcpCarrierPacket5GetPPEv
                0x400777f0        0xe C:\Nburn/lib/DBNetBurner.a(tcp.od)
                0x400777f0                _ZN16TcpCarrierPacket5GetPPEv
 *fill*         0x400777fe        0x2 
 .text._ZN16TcpCarrierPacket13GetTcpDataLenEv
                0x40077800       0x10 C:\Nburn/lib/DBNetBurner.a(tcp.od)
                0x40077800                _ZN16TcpCarrierPacket13GetTcpDataLenEv
 .text._ZN16TcpCarrierPacket10GetTcpDataEv
                0x40077810       0x10 C:\Nburn/lib/DBNetBurner.a(tcp.od)
                0x40077810                _ZN16TcpCarrierPacket10GetTcpDataEv
 .text._ZN16TcpCarrierPacket10SetDataLenEt
                0x40077820       0x1c C:\Nburn/lib/DBNetBurner.a(tcp.od)
                0x40077820                _ZN16TcpCarrierPacket10SetDataLenEt
 .text._ZN16TcpCarrierPacket5ValidEv
                0x4007783c       0x18 C:\Nburn/lib/DBNetBurner.a(tcp.od)
                0x4007783c                _ZN16TcpCarrierPacket5ValidEv
 .text._ZN13socket_struct7GetMyFdEv
                0x40077854       0x2a C:\Nburn/lib/DBNetBurner.a(tcp.od)
                0x40077854                _ZN13socket_struct7GetMyFdEv
 *fill*         0x4007787e        0x2 
 .text._ZN13socket_struct4initEt
                0x40077880       0xfa C:\Nburn/lib/DBNetBurner.a(tcp.od)
                0x40077880                _ZN13socket_struct4initEt
 *fill*         0x4007797a        0x2 
 .text._ZN13socket_structC2Ev
                0x4007797c       0x80 C:\Nburn/lib/DBNetBurner.a(tcp.od)
                0x4007797c                _ZN13socket_structC1Ev
                0x4007797c                _ZN13socket_structC2Ev
 .text._Z10modulodiffmm
                0x400779fc       0x18 C:\Nburn/lib/DBNetBurner.a(tcp.od)
                0x400779fc                _Z10modulodiffmm
 .text._ZN11ShortSocketC2Ev
                0x40077a14       0x2c C:\Nburn/lib/DBNetBurner.a(tcp.od)
                0x40077a14                _ZN11ShortSocketC2Ev
                0x40077a14                _ZN11ShortSocketC1Ev
 .text._Z14GetTcpDataLen4P5IPPKTP6TCPPKT
                0x40077a40       0x88 C:\Nburn/lib/DBNetBurner.a(tcp.od)
                0x40077a40                _Z14GetTcpDataLen4P5IPPKTP6TCPPKT
 .text._Z11GetTcpData4P6TCPPKT
                0x40077ac8       0x28 C:\Nburn/lib/DBNetBurner.a(tcp.od)
                0x40077ac8                _Z11GetTcpData4P6TCPPKT
 .text._ZN13socket_structD2Ev
                0x40077af0       0x32 C:\Nburn/lib/DBNetBurner.a(tcp.od)
                0x40077af0                _ZN13socket_structD2Ev
                0x40077af0                _ZN13socket_structD1Ev
 *fill*         0x40077b22        0x2 
 .text._Z6listenRK7IPADDR6th
                0x40077b24       0x36 C:\Nburn/lib/DBNetBurner.a(http.od)
                0x40077b24                _Z6listenRK7IPADDR6th
 *fill*         0x40077b5a        0x2 
 .text._Z6acceptiP7IPADDR6Ptt
                0x40077b5c       0x2e C:\Nburn/lib/DBNetBurner.a(http.od)
                0x40077b5c                _Z6acceptiP7IPADDR6Ptt
 *fill*         0x40077b8a        0x2 
 .text._ZN11HTTP_SocketC2Ev
                0x40077b8c       0x1a C:\Nburn/lib/DBNetBurner.a(http.od)
                0x40077b8c                _ZN11HTTP_SocketC2Ev
                0x40077b8c                _ZN11HTTP_SocketC1Ev
 *fill*         0x40077ba6        0x2 
 .text._ZN12HTTP_RequestC2Ev
                0x40077ba8       0x1e C:\Nburn/lib/DBNetBurner.a(http.od)
                0x40077ba8                _ZN12HTTP_RequestC1Ev
                0x40077ba8                _ZN12HTTP_RequestC2Ev
 *fill*         0x40077bc6        0x2 
 .text._Z19GetSocketRemoteAddri
                0x40077bc8       0x22 C:\Nburn/lib/DBNetBurner.a(httpinternal.od)
                0x40077bc8                _Z19GetSocketRemoteAddri
 *fill*         0x40077bea        0x2 
 .text._Z18GetSocketLocalAddri
                0x40077bec       0x22 C:\Nburn/lib/DBNetBurner.a(httpinternal.od)
                0x40077bec                _Z18GetSocketLocalAddri
 *fill*         0x40077c0e        0x2 
 .text._ZN9SMPoolPtrC2Ev
                0x40077c10       0x22 C:\Nburn/lib/DBNetBurner.a(htmldecomp.od)
                0x40077c10                _ZN9SMPoolPtrC2Ev
                0x40077c10                _ZN9SMPoolPtrC1Ev
 *fill*         0x40077c32        0x2 
 .text._ZN9SMPoolPtrD2Ev
                0x40077c34       0x30 C:\Nburn/lib/DBNetBurner.a(htmldecomp.od)
                0x40077c34                _ZN9SMPoolPtrD1Ev
                0x40077c34                _ZN9SMPoolPtrD2Ev
 .text._ZN9SMPoolPtrptEv
                0x40077c64        0xc C:\Nburn/lib/DBNetBurner.a(htmldecomp.od)
                0x40077c64                _ZN9SMPoolPtrptEv
 .text._ZN9OSLockObjC2Ev
                0x40077c70       0x10 C:\Nburn/lib/DBNetBurner.a(iosys.od)
                0x40077c70                _ZN9OSLockObjC1Ev
                0x40077c70                _ZN9OSLockObjC2Ev
 .text._ZN9OSLockObjD2Ev
                0x40077c80       0x10 C:\Nburn/lib/DBNetBurner.a(iosys.od)
                0x40077c80                _ZN9OSLockObjD2Ev
                0x40077c80                _ZN9OSLockObjD1Ev
 .text._ZN13PendingSelectC2Ev
                0x40077c90       0x20 C:\Nburn/lib/DBNetBurner.a(iosys.od)
                0x40077c90                _ZN13PendingSelectC1Ev
                0x40077c90                _ZN13PendingSelectC2Ev
 .text._ZN7IPADDR415GlobalBroadCastEv
                0x40077cb0       0x26 C:\Nburn/lib/DBNetBurner.a(dhcpc.od)
                0x40077cb0                _ZN7IPADDR415GlobalBroadCastEv
 *fill*         0x40077cd6        0x2 
 .text._ZN11DHCPMessage5SetOpEh
                0x40077cd8       0x1a C:\Nburn/lib/DBNetBurner.a(dhcpc.od)
                0x40077cd8                _ZN11DHCPMessage5SetOpEh
 *fill*         0x40077cf2        0x2 
 .text._ZN11DHCPMessage10GetMsgTypeEv
                0x40077cf4       0x10 C:\Nburn/lib/DBNetBurner.a(dhcpc.od)
                0x40077cf4                _ZN11DHCPMessage10GetMsgTypeEv
 .text._ZN11DHCPMessage8SetHtypeEh
                0x40077d04       0x1c C:\Nburn/lib/DBNetBurner.a(dhcpc.od)
                0x40077d04                _ZN11DHCPMessage8SetHtypeEh
 .text._ZN11DHCPMessage7SetHlenEh
                0x40077d20       0x1c C:\Nburn/lib/DBNetBurner.a(dhcpc.od)
                0x40077d20                _ZN11DHCPMessage7SetHlenEh
 .text._ZN11DHCPMessage7SetHopsEh
                0x40077d3c       0x1c C:\Nburn/lib/DBNetBurner.a(dhcpc.od)
                0x40077d3c                _ZN11DHCPMessage7SetHopsEh
 .text._ZN11DHCPMessage6SetXidEm
                0x40077d58       0x14 C:\Nburn/lib/DBNetBurner.a(dhcpc.od)
                0x40077d58                _ZN11DHCPMessage6SetXidEm
 .text._ZN11DHCPMessage7SetSecsEt
                0x40077d6c       0x1c C:\Nburn/lib/DBNetBurner.a(dhcpc.od)
                0x40077d6c                _ZN11DHCPMessage7SetSecsEt
 .text._ZN11DHCPMessage8SetFlagsEt
                0x40077d88       0x1c C:\Nburn/lib/DBNetBurner.a(dhcpc.od)
                0x40077d88                _ZN11DHCPMessage8SetFlagsEt
 .text._ZN11DHCPMessage9SetCiaddrEm
                0x40077da4       0x14 C:\Nburn/lib/DBNetBurner.a(dhcpc.od)
                0x40077da4                _ZN11DHCPMessage9SetCiaddrEm
 .text._ZN11DHCPMessage9SetYiaddrEm
                0x40077db8       0x14 C:\Nburn/lib/DBNetBurner.a(dhcpc.od)
                0x40077db8                _ZN11DHCPMessage9SetYiaddrEm
 .text._ZN11DHCPMessage9SetSiaddrEm
                0x40077dcc       0x14 C:\Nburn/lib/DBNetBurner.a(dhcpc.od)
                0x40077dcc                _ZN11DHCPMessage9SetSiaddrEm
 .text._ZN11DHCPMessage9SetGiaddrEm
                0x40077de0       0x14 C:\Nburn/lib/DBNetBurner.a(dhcpc.od)
                0x40077de0                _ZN11DHCPMessage9SetGiaddrEm
 .text._ZN11DHCPMessage9SetChaddrE6MACADR
                0x40077df4       0x46 C:\Nburn/lib/DBNetBurner.a(dhcpc.od)
                0x40077df4                _ZN11DHCPMessage9SetChaddrE6MACADR
 *fill*         0x40077e3a        0x2 
 .text._ZN11DHCPMessage10SetOptionsEic
                0x40077e3c       0x26 C:\Nburn/lib/DBNetBurner.a(dhcpc.od)
                0x40077e3c                _ZN11DHCPMessage10SetOptionsEic
 *fill*         0x40077e62        0x2 
 .text._ZN11DHCPMessage6GetXidEv
                0x40077e64       0x10 C:\Nburn/lib/DBNetBurner.a(dhcpc.od)
                0x40077e64                _ZN11DHCPMessage6GetXidEv
 .text._ZN11DHCPMessage7GetSecsEv
                0x40077e74       0x10 C:\Nburn/lib/DBNetBurner.a(dhcpc.od)
                0x40077e74                _ZN11DHCPMessage7GetSecsEv
 .text._ZN11DHCPMessage8GetFlagsEv
                0x40077e84       0x10 C:\Nburn/lib/DBNetBurner.a(dhcpc.od)
                0x40077e84                _ZN11DHCPMessage8GetFlagsEv
 .text._ZN11DHCPMessage9GetYiaddrEv
                0x40077e94       0x10 C:\Nburn/lib/DBNetBurner.a(dhcpc.od)
                0x40077e94                _ZN11DHCPMessage9GetYiaddrEv
 .text._ZN11DHCPMessage9GetGiaddrEv
                0x40077ea4       0x10 C:\Nburn/lib/DBNetBurner.a(dhcpc.od)
                0x40077ea4                _ZN11DHCPMessage9GetGiaddrEv
 .text._ZN11DHCPMessage10GetDataPtrEv
                0x40077eb4        0xc C:\Nburn/lib/DBNetBurner.a(dhcpc.od)
                0x40077eb4                _ZN11DHCPMessage10GetDataPtrEv
 .text._ZN12ConfigRecordaSERKS_
                0x40077ec0      0x210 C:\Nburn/lib/DBNetBurner.a(multiconfig.od)
                0x40077ec0                _ZN12ConfigRecordaSERKS_
 .text._ZN9UDPPacket10GetPoolPtrEv
                0x400780d0        0xe C:\Nburn/lib/DBNetBurner.a(autoupdate.od)
                0x400780d0                _ZN9UDPPacket10GetPoolPtrEv
 *fill*         0x400780de        0x2 
 .text._ZN7IPADDR6C2Emmmm
                0x400780e0       0x28 C:\Nburn/lib/DBNetBurner.a(nbiprintf.od)
                0x400780e0                _ZN7IPADDR6C1Emmmm
                0x400780e0                _ZN7IPADDR6C2Emmmm
 .text._Z13IPV4FromConstm
                0x40078108       0x24 C:\Nburn/lib/DBNetBurner.a(ipv6_addr.od)
                0x40078108                _Z13IPV4FromConstm
 .text._ZNK7IPADDR611IsMultiCastEv
                0x4007812c       0x20 C:\Nburn/lib/DBNetBurner.a(ipv6_addr.od)
                0x4007812c                _ZNK7IPADDR611IsMultiCastEv
 .text._Z11GetBE32Maski
                0x4007814c       0x1a C:\Nburn/lib/DBNetBurner.a(ipv6_addr.od)
                0x4007814c                _Z11GetBE32Maski
 *fill*         0x40078166        0x2 
 .text._ZN25IPv6FrameProcessingStructC2Ev
                0x40078168       0x32 C:\Nburn/lib/DBNetBurner.a(ipv6_tcp.od)
                0x40078168                _ZN25IPv6FrameProcessingStructC1Ev
                0x40078168                _ZN25IPv6FrameProcessingStructC2Ev
 *fill*         0x4007819a        0x2 
 .text._ZN25IPv6FrameProcessingStruct9GetEframeEv
                0x4007819c       0x38 C:\Nburn/lib/DBNetBurner.a(ipv6_tcp.od)
                0x4007819c                _ZN25IPv6FrameProcessingStruct9GetEframeEv
 .text._ZN13IPv6Interface8FindDestERK7IPADDR6b
                0x400781d4       0x32 C:\Nburn/lib/DBNetBurner.a(ipv6_tcp.od)
                0x400781d4                _ZN13IPv6Interface8FindDestERK7IPADDR6b
 *fill*         0x40078206        0x2 
 .text._ZN6MACADR11IsMultiCastEv
                0x40078208       0x24 C:\Nburn/lib/DBNetBurner.a(ipv6_ip.od)
                0x40078208                _ZN6MACADR11IsMultiCastEv
 .text._ZN6MACADR11IsBroadCastEv
                0x4007822c       0x54 C:\Nburn/lib/DBNetBurner.a(ipv6_ip.od)
                0x4007822c                _ZN6MACADR11IsBroadCastEv
 .text._ZNK7IPADDR67NotNullEv
                0x40078280       0x1a C:\Nburn/lib/DBNetBurner.a(ipv6_ip.od)
                0x40078280                _ZNK7IPADDR67NotNullEv
 *fill*         0x4007829a        0x2 
 .text._ZNK7IPADDR611IsLinkLocalEv
                0x4007829c       0x20 C:\Nburn/lib/DBNetBurner.a(ipv6_ip.od)
                0x4007829c                _ZNK7IPADDR611IsLinkLocalEv
 .text._Zne7IPADDR6S_
                0x400782bc       0x5a C:\Nburn/lib/DBNetBurner.a(ipv6_ip.od)
                0x400782bc                _Zne7IPADDR6S_
 *fill*         0x40078316        0x2 
 .text._Zgt7IPADDR6S_
                0x40078318       0xa0 C:\Nburn/lib/DBNetBurner.a(ipv6_ip.od)
                0x40078318                _Zgt7IPADDR6S_
 .text._Zlt7IPADDR6S_
                0x400783b8       0xa0 C:\Nburn/lib/DBNetBurner.a(ipv6_ip.od)
                0x400783b8                _Zlt7IPADDR6S_
 .text._ZN25IPv6FrameProcessingStruct14GetDataPointerEv
                0x40078458       0x38 C:\Nburn/lib/DBNetBurner.a(ipv6_ip.od)
                0x40078458                _ZN25IPv6FrameProcessingStruct14GetDataPointerEv
 .text._ZN11IPV6_PREFIX7GetNextEv
                0x40078490       0x1a C:\Nburn/lib/DBNetBurner.a(ipv6_ip.od)
                0x40078490                _ZN11IPV6_PREFIX7GetNextEv
 *fill*         0x400784aa        0x2 
 .text._ZN11IPV6_PREFIX18RemainingValidTimeEv
                0x400784ac       0x5a C:\Nburn/lib/DBNetBurner.a(ipv6_ip.od)
                0x400784ac                _ZN11IPV6_PREFIX18RemainingValidTimeEv
 *fill*         0x40078506        0x2 
 .text._ZN13IPV6_NEIGHBOR7GetNextEv
                0x40078508       0x1a C:\Nburn/lib/DBNetBurner.a(ipv6_ip.od)
                0x40078508                _ZN13IPV6_NEIGHBOR7GetNextEv
 *fill*         0x40078522        0x2 
 .text._ZN13IPV6_NEIGHBOR8GetStateEv
                0x40078524       0x10 C:\Nburn/lib/DBNetBurner.a(ipv6_ip.od)
                0x40078524                _ZN13IPV6_NEIGHBOR8GetStateEv
 .text._ZN9IPV6_DEST7GetNextEv
                0x40078534       0x1a C:\Nburn/lib/DBNetBurner.a(ipv6_ip.od)
                0x40078534                _ZN9IPV6_DEST7GetNextEv
 *fill*         0x4007854e        0x2 
 .text._ZN13IPv6Interface10FindPrefixERK7IPADDR6b
                0x40078550       0x32 C:\Nburn/lib/DBNetBurner.a(ipv6_ip.od)
                0x40078550                _ZN13IPv6Interface10FindPrefixERK7IPADDR6b
 *fill*         0x40078582        0x2 
 .text._ZN13IPv6Interface10FindRouterERK7IPADDR6b
                0x40078584       0x32 C:\Nburn/lib/DBNetBurner.a(ipv6_ip.od)
                0x40078584                _ZN13IPv6Interface10FindRouterERK7IPADDR6b
 *fill*         0x400785b6        0x2 
 .text._ZN13IPv6Interface12FindNeighborERK7IPADDR6b
                0x400785b8       0x32 C:\Nburn/lib/DBNetBurner.a(ipv6_ip.od)
                0x400785b8                _ZN13IPv6Interface12FindNeighborERK7IPADDR6b
 *fill*         0x400785ea        0x2 
 .text._ZN13IPv6Interface18MyLinkLocalAddressEv
                0x400785ec       0x44 C:\Nburn/lib/DBNetBurner.a(ipv6_ip.od)
                0x400785ec                _ZN13IPv6Interface18MyLinkLocalAddressEv
 .text._ZN13IPv6Interface11FirstPrefixEv
                0x40078630       0x1c C:\Nburn/lib/DBNetBurner.a(ipv6_ip.od)
                0x40078630                _ZN13IPv6Interface11FirstPrefixEv
 .text._ZN13IPv6Interface9FirstDestEv
                0x4007864c       0x1c C:\Nburn/lib/DBNetBurner.a(ipv6_ip.od)
                0x4007864c                _ZN13IPv6Interface9FirstDestEv
 .text._ZN13IPv6Interface11FirstRouterEv
                0x40078668       0x1c C:\Nburn/lib/DBNetBurner.a(ipv6_ip.od)
                0x40078668                _ZN13IPv6Interface11FirstRouterEv
 .text._ZN13IPv6Interface13FirstNeighborEv
                0x40078684       0x1c C:\Nburn/lib/DBNetBurner.a(ipv6_ip.od)
                0x40078684                _ZN13IPv6Interface13FirstNeighborEv
 .text._ZN13IPv6Interface8FirstDNSEv
                0x400786a0       0x1c C:\Nburn/lib/DBNetBurner.a(ipv6_ip.od)
                0x400786a0                _ZN13IPv6Interface8FirstDNSEv
 .text._ZN12IPV6_ROOT_ELC2Ev
                0x400786bc       0x2a C:\Nburn/lib/DBNetBurner.a(ipv6_ip.od)
                0x400786bc                _ZN12IPV6_ROOT_ELC1Ev
                0x400786bc                _ZN12IPV6_ROOT_ELC2Ev
 *fill*         0x400786e6        0x2 
 .text._ZN9IPV6_DESTC2Ev
                0x400786e8       0x24 C:\Nburn/lib/DBNetBurner.a(ipv6_ip.od)
                0x400786e8                _ZN9IPV6_DESTC2Ev
                0x400786e8                _ZN9IPV6_DESTC1Ev
 .text._ZN11IPV6_ROUTERC2Ev
                0x4007870c       0x24 C:\Nburn/lib/DBNetBurner.a(ipv6_ip.od)
                0x4007870c                _ZN11IPV6_ROUTERC1Ev
                0x4007870c                _ZN11IPV6_ROUTERC2Ev
 .text._ZN8IPV6_DNSC2Ev
                0x40078730       0x24 C:\Nburn/lib/DBNetBurner.a(ipv6_ip.od)
                0x40078730                _ZN8IPV6_DNSC2Ev
                0x40078730                _ZN8IPV6_DNSC1Ev
 .text._ZN10IPV6_DHCPDC2Ev
                0x40078754       0x24 C:\Nburn/lib/DBNetBurner.a(ipv6_ip.od)
                0x40078754                _ZN10IPV6_DHCPDC1Ev
                0x40078754                _ZN10IPV6_DHCPDC2Ev
 .text._ZN8IPV6_DNSD2Ev
                0x40078778       0x38 C:\Nburn/lib/DBNetBurner.a(ipv6_ip.od)
                0x40078778                _ZN8IPV6_DNSD2Ev
                0x40078778                _ZN8IPV6_DNSD1Ev
 .text._ZN8IPV6_DNSD0Ev
                0x400787b0       0x24 C:\Nburn/lib/DBNetBurner.a(ipv6_ip.od)
                0x400787b0                _ZN8IPV6_DNSD0Ev
 .text._ZN10IPV6_DHCPDD2Ev
                0x400787d4       0x38 C:\Nburn/lib/DBNetBurner.a(ipv6_ip.od)
                0x400787d4                _ZN10IPV6_DHCPDD1Ev
                0x400787d4                _ZN10IPV6_DHCPDD2Ev
 .text._ZN10IPV6_DHCPDD0Ev
                0x4007880c       0x24 C:\Nburn/lib/DBNetBurner.a(ipv6_ip.od)
                0x4007880c                _ZN10IPV6_DHCPDD0Ev
 .text._ZN13IPV6_NEIGHBORD2Ev
                0x40078830       0x38 C:\Nburn/lib/DBNetBurner.a(ipv6_ip.od)
                0x40078830                _ZN13IPV6_NEIGHBORD1Ev
                0x40078830                _ZN13IPV6_NEIGHBORD2Ev
 .text._ZN13IPV6_NEIGHBORD0Ev
                0x40078868       0x24 C:\Nburn/lib/DBNetBurner.a(ipv6_ip.od)
                0x40078868                _ZN13IPV6_NEIGHBORD0Ev
 .text._ZN11IPV6_ROUTERD2Ev
                0x4007888c       0x38 C:\Nburn/lib/DBNetBurner.a(ipv6_ip.od)
                0x4007888c                _ZN11IPV6_ROUTERD1Ev
                0x4007888c                _ZN11IPV6_ROUTERD2Ev
 .text._ZN11IPV6_ROUTERD0Ev
                0x400788c4       0x24 C:\Nburn/lib/DBNetBurner.a(ipv6_ip.od)
                0x400788c4                _ZN11IPV6_ROUTERD0Ev
 .text._ZN9IPV6_DESTD2Ev
                0x400788e8       0x38 C:\Nburn/lib/DBNetBurner.a(ipv6_ip.od)
                0x400788e8                _ZN9IPV6_DESTD1Ev
                0x400788e8                _ZN9IPV6_DESTD2Ev
 .text._ZN9IPV6_DESTD0Ev
                0x40078920       0x24 C:\Nburn/lib/DBNetBurner.a(ipv6_ip.od)
                0x40078920                _ZN9IPV6_DESTD0Ev
 .text._ZN11IPV6_PREFIXD2Ev
                0x40078944       0x38 C:\Nburn/lib/DBNetBurner.a(ipv6_ip.od)
                0x40078944                _ZN11IPV6_PREFIXD2Ev
                0x40078944                _ZN11IPV6_PREFIXD1Ev
 .text._ZN11IPV6_PREFIXD0Ev
                0x4007897c       0x24 C:\Nburn/lib/DBNetBurner.a(ipv6_ip.od)
                0x4007897c                _ZN11IPV6_PREFIXD0Ev
 .text._Z9GetUdpPktP5IPPKT
                0x400789a0       0x58 C:\Nburn/lib/DBNetBurner.a(ipv6_udp.od)
                0x400789a0                _Z9GetUdpPktP5IPPKT
 .text._ZN11IPV6_PREFIX8GetStateEv
                0x400789f8       0x10 C:\Nburn/lib/DBNetBurner.a(ipv6_show.od)
                0x400789f8                _ZN11IPV6_PREFIX8GetStateEv
 .text._ZN9UDPPacket21GetDestinationAddressEv
                0x40078a08       0x22 C:\Nburn/lib/DBNetBurner.a(ipv6_dhcp.od)
                0x40078a08                _ZN9UDPPacket21GetDestinationAddressEv
 *fill*         0x40078a2a        0x2 
 .text._ZN2NB2V66DHCPv66Option7GetNextEv
                0x40078a2c       0x1e C:\Nburn/lib/DBNetBurner.a(ipv6_dhcp.od)
                0x40078a2c                _ZN2NB2V66DHCPv66Option7GetNextEv
 *fill*         0x40078a4a        0x2 
 .text._ZN2NB2V66DHCPv66OptionC2Ev
                0x40078a4c        0xa C:\Nburn/lib/DBNetBurner.a(ipv6_dhcp.od)
                0x40078a4c                _ZN2NB2V66DHCPv66OptionC2Ev
                0x40078a4c                _ZN2NB2V66DHCPv66OptionC1Ev
 *fill*         0x40078a56        0x2 
 .text._ZN2NB2V66DHCPv63Opt7IA_ADDRC2E7IPADDR6mm
                0x40078a58       0x62 C:\Nburn/lib/DBNetBurner.a(ipv6_dhcp.od)
                0x40078a58                _ZN2NB2V66DHCPv63Opt7IA_ADDRC1E7IPADDR6mm
                0x40078a58                _ZN2NB2V66DHCPv63Opt7IA_ADDRC2E7IPADDR6mm
 *fill*         0x40078aba        0x2 
 .text._ZN2NB2V66DHCPv63Opt7IA_ADDR20ServerIsInvalidatingEv
                0x40078abc       0x26 C:\Nburn/lib/DBNetBurner.a(ipv6_dhcp.od)
                0x40078abc                _ZN2NB2V66DHCPv63Opt7IA_ADDR20ServerIsInvalidatingEv
 *fill*         0x40078ae2        0x2 
 .text._ZN2NB2V66DHCPv613DHCPv6Message6ClrMsgEv
                0x40078ae4       0x3a C:\Nburn/lib/DBNetBurner.a(ipv6_dhcp.od)
                0x40078ae4                _ZN2NB2V66DHCPv613DHCPv6Message6ClrMsgEv
 *fill*         0x40078b1e        0x2 
 .text._ZN2NB2V66DHCPv613DHCPv6Message13SetTypeAndXidENS1_11MessageTypeEm
                0x40078b20       0x6a C:\Nburn/lib/DBNetBurner.a(ipv6_dhcp.od)
                0x40078b20                _ZN2NB2V66DHCPv613DHCPv6Message13SetTypeAndXidENS1_11MessageTypeEm
 *fill*         0x40078b8a        0x2 
 .text._ZN2NB2V66DHCPv613DHCPv6Message7GetTypeEv
                0x40078b8c       0x16 C:\Nburn/lib/DBNetBurner.a(ipv6_dhcp.od)
                0x40078b8c                _ZN2NB2V66DHCPv613DHCPv6Message7GetTypeEv
 *fill*         0x40078ba2        0x2 
 .text._ZN2NB2V66DHCPv613DHCPv6Message6GetXidEv
                0x40078ba4       0x18 C:\Nburn/lib/DBNetBurner.a(ipv6_dhcp.od)
                0x40078ba4                _ZN2NB2V66DHCPv613DHCPv6Message6GetXidEv
 .text._ZN2NB2V66DHCPv613DHCPv6Message16GetSourceAddressEv
                0x40078bbc       0x24 C:\Nburn/lib/DBNetBurner.a(ipv6_dhcp.od)
                0x40078bbc                _ZN2NB2V66DHCPv613DHCPv6Message16GetSourceAddressEv
 .text._ZN2NB2V66DHCPv610DHCPClient8SetStateENS2_11ClientStateE
                0x40078be0       0x12 C:\Nburn/lib/DBNetBurner.a(ipv6_dhcp.od)
                0x40078be0                _ZN2NB2V66DHCPv610DHCPClient8SetStateENS2_11ClientStateE
 *fill*         0x40078bf2        0x2 
 .text._ZN13IPv6Interface9FindDHCPDERK7IPADDR6b
                0x40078bf4       0x32 C:\Nburn/lib/DBNetBurner.a(ipv6_dhcp.od)
                0x40078bf4                _ZN13IPv6Interface9FindDHCPDERK7IPADDR6b
 *fill*         0x40078c26        0x2 
 .text._ZN13IPv6Interface11FindIA_AddrEP10IPV6_DHCPDP11IPV6_PREFIX
                0x40078c28       0x2e C:\Nburn/lib/DBNetBurner.a(ipv6_dhcp.od)
                0x40078c28                _ZN13IPv6Interface11FindIA_AddrEP10IPV6_DHCPDP11IPV6_PREFIX
 *fill*         0x40078c56        0x2 
 .text._ZN15MultiCastRecordC2Ev
                0x40078c58       0x1a C:\Nburn/lib/DBNetBurner.a(multicast.od)
                0x40078c58                _ZN15MultiCastRecordC1Ev
                0x40078c58                _ZN15MultiCastRecordC2Ev
 *fill*         0x40078c72        0x2 
 .text._Z7MD5InitP7MD5_CTX
                0x40078c74       0x16 C:\Nburn/lib/DBNetBurner.a(random.od)
                0x40078c74                _Z7MD5InitP7MD5_CTX
 *fill*         0x40078c8a        0x2 
 .text._Z9MD5UpdateP7MD5_CTXPKhj
                0x40078c8c       0x20 C:\Nburn/lib/DBNetBurner.a(random.od)
                0x40078c8c                _Z9MD5UpdateP7MD5_CTXPKhj
 .text._Z8MD5FinalPhP7MD5_CTX
                0x40078cac       0x1a C:\Nburn/lib/DBNetBurner.a(random.od)
                0x40078cac                _Z8MD5FinalPhP7MD5_CTX
 *fill*         0x40078cc6        0x2 
 .text._ZN8HASH_CTXC2Ev
                0x40078cc8        0xa C:\Nburn/lib/DBNetBurner.a(random.od)
                0x40078cc8                _ZN8HASH_CTXC2Ev
                0x40078cc8                _ZN8HASH_CTXC1Ev
 *fill*         0x40078cd2        0x2 
 .text._ZN7MD5_CTXC2Ev
                0x40078cd4       0x18 C:\Nburn/lib/DBNetBurner.a(random.od)
                0x40078cd4                _ZN7MD5_CTXC2Ev
                0x40078cd4                _ZN7MD5_CTXC1Ev
 .text._ZN8HASH_CTX6UpdateEPKhj
                0x40078cec       0x6a C:\Nburn/lib/DBNetBurner.a(md5c.od)
                0x40078cec                _ZN8HASH_CTX6UpdateEPKhj
 .text.__cxa_pure_virtual
                0x40078d56       0x1e c:/nburn/gcc-m68k/bin/../m68k-unknown-elf/sysroot/lib/m54455\libstdc++.a(pure.o)
                0x40078d56                __cxa_pure_virtual
 .text._ZN10__cxxabiv111__terminateEPFvvE
                0x40078d74       0x42 c:/nburn/gcc-m68k/bin/../m68k-unknown-elf/sysroot/lib/m54455\libstdc++.a(eh_terminate.o)
                0x40078d74                _ZN10__cxxabiv111__terminateEPFvvE
 .text._ZSt9terminatev
                0x40078db6       0x10 c:/nburn/gcc-m68k/bin/../m68k-unknown-elf/sysroot/lib/m54455\libstdc++.a(eh_terminate.o)
                0x40078db6                _ZSt9terminatev
 .text._ZN10__cxxabiv112__unexpectedEPFvvE
                0x40078dc6       0x10 c:/nburn/gcc-m68k/bin/../m68k-unknown-elf/sysroot/lib/m54455\libstdc++.a(eh_terminate.o)
                0x40078dc6                _ZN10__cxxabiv112__unexpectedEPFvvE
 .text._ZSt10unexpectedv
                0x40078dd6       0x10 c:/nburn/gcc-m68k/bin/../m68k-unknown-elf/sysroot/lib/m54455\libstdc++.a(eh_terminate.o)
                0x40078dd6                _ZSt10unexpectedv
 .text._ZSt13get_terminatev
                0x40078de6        0xe c:/nburn/gcc-m68k/bin/../m68k-unknown-elf/sysroot/lib/m54455\libstdc++.a(eh_terminate.o)
                0x40078de6                _ZSt13get_terminatev
 .text._ZSt14get_unexpectedv
                0x40078df4        0xe c:/nburn/gcc-m68k/bin/../m68k-unknown-elf/sysroot/lib/m54455\libstdc++.a(eh_terminate.o)
                0x40078df4                _ZSt14get_unexpectedv
 .text._ZdlPv   0x40078e02        0xc c:/nburn/gcc-m68k/bin/../m68k-unknown-elf/sysroot/lib/m54455\libstdc++.a(del_op.o)
                0x40078e02                _ZdlPv
 .text._ZdlPvm  0x40078e0e        0xc c:/nburn/gcc-m68k/bin/../m68k-unknown-elf/sysroot/lib/m54455\libstdc++.a(del_ops.o)
                0x40078e0e                _ZdlPvm
 .text.__cxa_begin_catch
                0x40078e1a       0x7c c:/nburn/gcc-m68k/bin/../m68k-unknown-elf/sysroot/lib/m54455\libstdc++.a(eh_catch.o)
                0x40078e1a                __cxa_begin_catch
 .text.__cxa_end_catch
                0x40078e96       0x7c c:/nburn/gcc-m68k/bin/../m68k-unknown-elf/sysroot/lib/m54455\libstdc++.a(eh_catch.o)
                0x40078e96                __cxa_end_catch
 .text._ZL12read_uleb128PKhPm
                0x40078f12       0x32 c:/nburn/gcc-m68k/bin/../m68k-unknown-elf/sysroot/lib/m54455\libstdc++.a(eh_personality.o)
 .text._ZL12read_sleb128PKhPl
                0x40078f44       0x46 c:/nburn/gcc-m68k/bin/../m68k-unknown-elf/sysroot/lib/m54455\libstdc++.a(eh_personality.o)
 .text._ZL28read_encoded_value_with_basehjPKhPj
                0x40078f8a       0xd2 c:/nburn/gcc-m68k/bin/../m68k-unknown-elf/sysroot/lib/m54455\libstdc++.a(eh_personality.o)
 .text._ZL15get_ttype_entryP16lsda_header_infom
                0x4007905c       0x7e c:/nburn/gcc-m68k/bin/../m68k-unknown-elf/sysroot/lib/m54455\libstdc++.a(eh_personality.o)
 .text._ZL21base_of_encoded_valuehP15_Unwind_Context
                0x400790da       0x84 c:/nburn/gcc-m68k/bin/../m68k-unknown-elf/sysroot/lib/m54455\libstdc++.a(eh_personality.o)
 .text._ZL18read_encoded_valueP15_Unwind_ContexthPKhPj
                0x4007915e       0x40 c:/nburn/gcc-m68k/bin/../m68k-unknown-elf/sysroot/lib/m54455\libstdc++.a(eh_personality.o)
 .text._ZL17parse_lsda_headerP15_Unwind_ContextPKhP16lsda_header_info
                0x4007919e       0xa6 c:/nburn/gcc-m68k/bin/../m68k-unknown-elf/sysroot/lib/m54455\libstdc++.a(eh_personality.o)
 .text._ZL16get_adjusted_ptrPKSt9type_infoS1_PPv.constprop.3
                0x40079244       0x5a c:/nburn/gcc-m68k/bin/../m68k-unknown-elf/sysroot/lib/m54455\libstdc++.a(eh_personality.o)
 .text._ZL20check_exception_specP16lsda_header_infoPKSt9type_infoPvl
                0x4007929e       0x6c c:/nburn/gcc-m68k/bin/../m68k-unknown-elf/sysroot/lib/m54455\libstdc++.a(eh_personality.o)
 .text.__gxx_personality_v0
                0x4007930a      0x3c6 c:/nburn/gcc-m68k/bin/../m68k-unknown-elf/sysroot/lib/m54455\libstdc++.a(eh_personality.o)
                0x4007930a                __gxx_personality_v0
 .text.__cxa_call_unexpected
                0x400796d0       0xe8 c:/nburn/gcc-m68k/bin/../m68k-unknown-elf/sysroot/lib/m54455\libstdc++.a(eh_personality.o)
                0x400796d0                __cxa_call_unexpected
 .text._ZNSt13bad_exceptionD2Ev
                0x400797b8        0x8 c:/nburn/gcc-m68k/bin/../m68k-unknown-elf/sysroot/lib/m54455\libstdc++.a(eh_exception.o)
                0x400797b8                _ZNSt13bad_exceptionD1Ev
                0x400797b8                _ZNSt13bad_exceptionD2Ev
 .text._ZNKSt13bad_exception4whatEv
                0x400797c0        0xe c:/nburn/gcc-m68k/bin/../m68k-unknown-elf/sysroot/lib/m54455\libstdc++.a(eh_exception.o)
                0x400797c0                _ZNKSt13bad_exception4whatEv
 .text._ZNSt13bad_exceptionD0Ev
                0x400797ce        0xc c:/nburn/gcc-m68k/bin/../m68k-unknown-elf/sysroot/lib/m54455\libstdc++.a(eh_exception.o)
                0x400797ce                _ZNSt13bad_exceptionD0Ev
 .text.__cxa_get_globals_fast
                0x400797da        0xe c:/nburn/gcc-m68k/bin/../m68k-unknown-elf/sysroot/lib/m54455\libstdc++.a(eh_globals.o)
                0x400797da                __cxa_get_globals_fast
 .text.__cxa_get_globals
                0x400797e8        0xe c:/nburn/gcc-m68k/bin/../m68k-unknown-elf/sysroot/lib/m54455\libstdc++.a(eh_globals.o)
                0x400797e8                __cxa_get_globals
 .text._ZN9__gnu_cxx27__verbose_terminate_handlerEv
                0x400797f6      0x162 c:/nburn/gcc-m68k/bin/../m68k-unknown-elf/sysroot/lib/m54455\libstdc++.a(vterminate.o)
                0x400797f6                _ZN9__gnu_cxx27__verbose_terminate_handlerEv
 .text._ZN12_GLOBAL__N_14pool4freeEPv.constprop.4
                0x40079958       0x72 c:/nburn/gcc-m68k/bin/../m68k-unknown-elf/sysroot/lib/m54455\libstdc++.a(eh_alloc.o)
 .text._ZN12_GLOBAL__N_14pool8allocateEm.constprop.5
                0x400799ca       0x6c c:/nburn/gcc-m68k/bin/../m68k-unknown-elf/sysroot/lib/m54455\libstdc++.a(eh_alloc.o)
 .text.__cxa_allocate_exception
                0x40079a36       0x56 c:/nburn/gcc-m68k/bin/../m68k-unknown-elf/sysroot/lib/m54455\libstdc++.a(eh_alloc.o)
                0x40079a36                __cxa_allocate_exception
 .text.__cxa_free_exception
                0x40079a8c       0x3a c:/nburn/gcc-m68k/bin/../m68k-unknown-elf/sysroot/lib/m54455\libstdc++.a(eh_alloc.o)
                0x40079a8c                __cxa_free_exception
 .text.startup._GLOBAL__sub_I___cxa_allocate_exception
                0x40079ac6       0x48 c:/nburn/gcc-m68k/bin/../m68k-unknown-elf/sysroot/lib/m54455\libstdc++.a(eh_alloc.o)
 .text._ZL23__gxx_exception_cleanup19_Unwind_Reason_CodeP17_Unwind_Exception
                0x40079b0e       0x42 c:/nburn/gcc-m68k/bin/../m68k-unknown-elf/sysroot/lib/m54455\libstdc++.a(eh_throw.o)
 .text.__cxa_throw
                0x40079b50       0x72 c:/nburn/gcc-m68k/bin/../m68k-unknown-elf/sysroot/lib/m54455\libstdc++.a(eh_throw.o)
                0x40079b50                __cxa_throw
 .text.__cxa_rethrow
                0x40079bc2       0x68 c:/nburn/gcc-m68k/bin/../m68k-unknown-elf/sysroot/lib/m54455\libstdc++.a(eh_throw.o)
                0x40079bc2                __cxa_rethrow
 .text.__cxa_current_exception_type
                0x40079c2a       0x38 c:/nburn/gcc-m68k/bin/../m68k-unknown-elf/sysroot/lib/m54455\libstdc++.a(eh_type.o)
                0x40079c2a                __cxa_current_exception_type
 .text._ZN10__cxxabiv120__si_class_type_infoD2Ev
                0x40079c62       0x16 c:/nburn/gcc-m68k/bin/../m68k-unknown-elf/sysroot/lib/m54455\libstdc++.a(si_class_type_info.o)
                0x40079c62                _ZN10__cxxabiv120__si_class_type_infoD1Ev
                0x40079c62                _ZN10__cxxabiv120__si_class_type_infoD2Ev
 .text._ZN10__cxxabiv120__si_class_type_infoD0Ev
                0x40079c78       0x24 c:/nburn/gcc-m68k/bin/../m68k-unknown-elf/sysroot/lib/m54455\libstdc++.a(si_class_type_info.o)
                0x40079c78                _ZN10__cxxabiv120__si_class_type_infoD0Ev
 .text._ZNKSt9type_infoeqERKS_.isra.0
                0x40079c9c       0x3c c:/nburn/gcc-m68k/bin/../m68k-unknown-elf/sysroot/lib/m54455\libstdc++.a(si_class_type_info.o)
 .text._ZNK10__cxxabiv120__si_class_type_info12__do_dyncastElNS_17__class_type_info10__sub_kindEPKS1_PKvS4_S6_RNS1_16__dyncast_resultE
                0x40079cd8       0xbc c:/nburn/gcc-m68k/bin/../m68k-unknown-elf/sysroot/lib/m54455\libstdc++.a(si_class_type_info.o)
                0x40079cd8                _ZNK10__cxxabiv120__si_class_type_info12__do_dyncastElNS_17__class_type_info10__sub_kindEPKS1_PKvS4_S6_RNS1_16__dyncast_resultE
 .text._ZNK10__cxxabiv120__si_class_type_info20__do_find_public_srcElPKvPKNS_17__class_type_infoES2_
                0x40079d94       0x68 c:/nburn/gcc-m68k/bin/../m68k-unknown-elf/sysroot/lib/m54455\libstdc++.a(si_class_type_info.o)
                0x40079d94                _ZNK10__cxxabiv120__si_class_type_info20__do_find_public_srcElPKvPKNS_17__class_type_infoES2_
 .text._ZNK10__cxxabiv120__si_class_type_info11__do_upcastEPKNS_17__class_type_infoEPKvRNS1_15__upcast_resultE
                0x40079dfc       0x5c c:/nburn/gcc-m68k/bin/../m68k-unknown-elf/sysroot/lib/m54455\libstdc++.a(si_class_type_info.o)
                0x40079dfc                _ZNK10__cxxabiv120__si_class_type_info11__do_upcastEPKNS_17__class_type_infoEPKvRNS1_15__upcast_resultE
 .text.__cxa_call_terminate
                0x40079e58       0x48 c:/nburn/gcc-m68k/bin/../m68k-unknown-elf/sysroot/lib/m54455\libstdc++.a(eh_call.o)
                0x40079e58                __cxa_call_terminate
 .text._ZNK10__cxxabiv117__class_type_info11__do_upcastEPKS0_PPv
                0x40079ea0       0x56 c:/nburn/gcc-m68k/bin/../m68k-unknown-elf/sysroot/lib/m54455\libstdc++.a(class_type_info.o)
                0x40079ea0                _ZNK10__cxxabiv117__class_type_info11__do_upcastEPKS0_PPv
 .text._ZNK10__cxxabiv117__class_type_info20__do_find_public_srcElPKvPKS0_S2_
                0x40079ef6       0x18 c:/nburn/gcc-m68k/bin/../m68k-unknown-elf/sysroot/lib/m54455\libstdc++.a(class_type_info.o)
                0x40079ef6                _ZNK10__cxxabiv117__class_type_info20__do_find_public_srcElPKvPKS0_S2_
 .text._ZN10__cxxabiv117__class_type_infoD2Ev
                0x40079f0e       0x16 c:/nburn/gcc-m68k/bin/../m68k-unknown-elf/sysroot/lib/m54455\libstdc++.a(class_type_info.o)
                0x40079f0e                _ZN10__cxxabiv117__class_type_infoD2Ev
                0x40079f0e                _ZN10__cxxabiv117__class_type_infoD1Ev
 .text._ZN10__cxxabiv117__class_type_infoD0Ev
                0x40079f24       0x24 c:/nburn/gcc-m68k/bin/../m68k-unknown-elf/sysroot/lib/m54455\libstdc++.a(class_type_info.o)
                0x40079f24                _ZN10__cxxabiv117__class_type_infoD0Ev
 .text._ZNKSt9type_infoeqERKS_.isra.0
                0x40079f48       0x3c c:/nburn/gcc-m68k/bin/../m68k-unknown-elf/sysroot/lib/m54455\libstdc++.a(class_type_info.o)
 .text._ZNK10__cxxabiv117__class_type_info11__do_upcastEPKS0_PKvRNS0_15__upcast_resultE
                0x40079f84       0x3e c:/nburn/gcc-m68k/bin/../m68k-unknown-elf/sysroot/lib/m54455\libstdc++.a(class_type_info.o)
                0x40079f84                _ZNK10__cxxabiv117__class_type_info11__do_upcastEPKS0_PKvRNS0_15__upcast_resultE
 .text._ZNK10__cxxabiv117__class_type_info12__do_dyncastElNS0_10__sub_kindEPKS0_PKvS3_S5_RNS0_16__dyncast_resultE
                0x40079fc2       0x6a c:/nburn/gcc-m68k/bin/../m68k-unknown-elf/sysroot/lib/m54455\libstdc++.a(class_type_info.o)
                0x40079fc2                _ZNK10__cxxabiv117__class_type_info12__do_dyncastElNS0_10__sub_kindEPKS0_PKvS3_S5_RNS0_16__dyncast_resultE
 .text._ZNK10__cxxabiv117__class_type_info10__do_catchEPKSt9type_infoPPvj
                0x4007a02c       0x50 c:/nburn/gcc-m68k/bin/../m68k-unknown-elf/sysroot/lib/m54455\libstdc++.a(class_type_info.o)
                0x4007a02c                _ZNK10__cxxabiv117__class_type_info10__do_catchEPKSt9type_infoPPvj
 .text._ZNSt9type_infoD2Ev
                0x4007a07c        0x8 c:/nburn/gcc-m68k/bin/../m68k-unknown-elf/sysroot/lib/m54455\libstdc++.a(tinfo.o)
                0x4007a07c                _ZNSt9type_infoD2Ev
                0x4007a07c                _ZNSt9type_infoD1Ev
 .text._ZNKSt9type_info15__is_function_pEv
                0x4007a084        0xa c:/nburn/gcc-m68k/bin/../m68k-unknown-elf/sysroot/lib/m54455\libstdc++.a(tinfo.o)
                0x4007a084                _ZNKSt9type_info14__is_pointer_pEv
                0x4007a084                _ZNKSt9type_info15__is_function_pEv
                0x4007a090                . = ALIGN (0x10)
 *fill*         0x4007a08e        0x2 
 *(.eh_frame)
 .eh_frame      0x4007a090        0x0 c:/nburn/gcc-m68k/bin/../lib/gcc/m68k-unknown-elf/5.2.0/m54455/crtbegin.o
 .eh_frame      0x4007a090       0x48 c:/nburn/gcc-m68k/bin/../m68k-unknown-elf/sysroot/lib/m54455\libstdc++.a(pure.o)
 .eh_frame      0x4007a0d8      0x100 c:/nburn/gcc-m68k/bin/../m68k-unknown-elf/sysroot/lib/m54455\libstdc++.a(eh_terminate.o)
 .eh_frame      0x4007a1d8       0x30 c:/nburn/gcc-m68k/bin/../m68k-unknown-elf/sysroot/lib/m54455\libstdc++.a(del_op.o)
 .eh_frame      0x4007a208       0x30 c:/nburn/gcc-m68k/bin/../m68k-unknown-elf/sysroot/lib/m54455\libstdc++.a(del_ops.o)
 .eh_frame      0x4007a238       0x88 c:/nburn/gcc-m68k/bin/../m68k-unknown-elf/sysroot/lib/m54455\libstdc++.a(eh_catch.o)
 .eh_frame      0x4007a2c0      0x1c4 c:/nburn/gcc-m68k/bin/../m68k-unknown-elf/sysroot/lib/m54455\libstdc++.a(eh_personality.o)
 .eh_frame      0x4007a484      0x108 c:/nburn/gcc-m68k/bin/../m68k-unknown-elf/sysroot/lib/m54455\libstdc++.a(eh_exception.o)
 .eh_frame      0x4007a58c       0x48 c:/nburn/gcc-m68k/bin/../m68k-unknown-elf/sysroot/lib/m54455\libstdc++.a(eh_globals.o)
 .eh_frame      0x4007a5d4       0x48 c:/nburn/gcc-m68k/bin/../m68k-unknown-elf/sysroot/lib/m54455\libstdc++.a(vterminate.o)
 .eh_frame      0x4007a61c       0xd8 c:/nburn/gcc-m68k/bin/../m68k-unknown-elf/sysroot/lib/m54455\libstdc++.a(eh_alloc.o)
 .eh_frame      0x4007a6f4       0x6c c:/nburn/gcc-m68k/bin/../m68k-unknown-elf/sysroot/lib/m54455\libstdc++.a(eh_throw.o)
 .eh_frame      0x4007a760       0x34 c:/nburn/gcc-m68k/bin/../m68k-unknown-elf/sysroot/lib/m54455\libstdc++.a(eh_type.o)
 .eh_frame      0x4007a794       0xd8 c:/nburn/gcc-m68k/bin/../m68k-unknown-elf/sysroot/lib/m54455\libstdc++.a(si_class_type_info.o)
 .eh_frame      0x4007a86c       0x38 c:/nburn/gcc-m68k/bin/../m68k-unknown-elf/sysroot/lib/m54455\libstdc++.a(eh_call.o)
 .eh_frame      0x4007a8a4       0xfc c:/nburn/gcc-m68k/bin/../m68k-unknown-elf/sysroot/lib/m54455\libstdc++.a(class_type_info.o)
 .eh_frame      0x4007a9a0       0x94 c:/nburn/gcc-m68k/bin/../m68k-unknown-elf/sysroot/lib/m54455\libstdc++.a(tinfo.o)
 .eh_frame      0x4007aa34       0x44 c:/nburn/gcc-m68k/bin/../lib/gcc/m68k-unknown-elf/5.2.0/m54455\libgcc.a(_udivdi3.o)
 .eh_frame      0x4007aa78       0x44 c:/nburn/gcc-m68k/bin/../lib/gcc/m68k-unknown-elf/5.2.0/m54455\libgcc.a(_umoddi3.o)
 .eh_frame      0x4007aabc      0x410 c:/nburn/gcc-m68k/bin/../lib/gcc/m68k-unknown-elf/5.2.0/m54455\libgcc.a(unwind-dw2.o)
 .eh_frame      0x4007aecc      0x2f8 c:/nburn/gcc-m68k/bin/../lib/gcc/m68k-unknown-elf/5.2.0/m54455\libgcc.a(unwind-dw2-fde.o)
 .eh_frame      0x4007b1c4        0x4 c:/nburn/gcc-m68k/bin/../lib/gcc/m68k-unknown-elf/5.2.0/m54455/crtend.o
                0x4007b1d0                . = ALIGN (0x10)
 *fill*         0x4007b1c8        0x8 
 *(.gnu.linkonce.t.*)
                0x4007b1d0                . = ALIGN (0x4)
                0x4007b1d0                __CTOR_LIST__ = .
 *(.ctors)
 .ctors         0x4007b1d0        0x4 c:/nburn/gcc-m68k/bin/../lib/gcc/m68k-unknown-elf/5.2.0/m54455/crtbegin.o
 .ctors         0x4007b1d4        0x4 main.od
 .ctors         0x4007b1d8        0x4 Logger.od
 .ctors         0x4007b1dc        0x4 Drivers\introspec.od
 .ctors         0x4007b1e0        0x4 Drivers\IMUSetupAndSample.od
 .ctors         0x4007b1e4        0x4 C:\Nburn/lib/DBNANO54415.a(serial.od)
 .ctors         0x4007b1e8        0x4 C:\Nburn/lib/DBNANO54415.a(FlashOps.od)
 .ctors         0x4007b1ec        0x4 C:\Nburn/lib/DBNANO54415.a(HiResTimer.od)
 .ctors         0x4007b1f0        0x4 C:\Nburn/lib/DBNANO54415.a(dbethernet.od)
 .ctors         0x4007b1f4        0x4 C:\Nburn/lib/DBNANO54415.a(multichanneli2c.od)
 .ctors         0x4007b1f8        0x4 C:\Nburn/lib/DBNANO54415.a(ethernet.od)
 .ctors         0x4007b1fc        0x4 C:\Nburn/lib/DBNANO54415.a(ether2nd.od)
 .ctors         0x4007b200        0x4 C:\Nburn/lib/DBNANO54415.a(i2c_class.od)
 .ctors         0x4007b204        0x4 C:\Nburn/lib/DBNetBurner.a(ucosmain.od)
 .ctors         0x4007b208        0x4 C:\Nburn/lib/DBNetBurner.a(ip.od)
 .ctors         0x4007b20c        0x4 C:\Nburn/lib/DBNetBurner.a(buffers.od)
 .ctors         0x4007b210        0x4 C:\Nburn/lib/DBNetBurner.a(arp.od)
 .ctors         0x4007b214        0x4 C:\Nburn/lib/DBNetBurner.a(ftpd.od)
 .ctors         0x4007b218        0x4 C:\Nburn/lib/DBNetBurner.a(tcp.od)
 .ctors         0x4007b21c        0x4 C:\Nburn/lib/DBNetBurner.a(http.od)
 .ctors         0x4007b220        0x4 C:\Nburn/lib/DBNetBurner.a(device.od)
 .ctors         0x4007b224        0x4 C:\Nburn/lib/DBNetBurner.a(ipv6_ip.od)
 .ctors         0x4007b228        0x4 C:\Nburn/lib/DBNetBurner.a(ipv6_dhcp.od)
 .ctors         0x4007b22c        0x4 C:\Nburn/lib/DBNetBurner.a(multicast.od)
 .ctors         0x4007b230        0x4 c:/nburn/gcc-m68k/bin/../m68k-unknown-elf/sysroot/lib/m54455\libstdc++.a(eh_alloc.o)
 .ctors         0x4007b234        0x4 c:/nburn/gcc-m68k/bin/../lib/gcc/m68k-unknown-elf/5.2.0/m54455/crtend.o
                0x4007b238                __CTOR_END__ = .
                0x4007b238        0x4 LONG 0x0
                0x4007b23c                __CTOR_END__ = .
                0x4007b23c                __DTOR_LIST__ = .
                0x4007b23c                ___DTOR_LIST__ = .
                0x4007b23c        0x4 LONG 0x2 (((__DTOR_END__ - __DTOR_LIST__) / 0x4) - 0x2)
 *(.dtors)
 .dtors         0x4007b240        0x4 c:/nburn/gcc-m68k/bin/../lib/gcc/m68k-unknown-elf/5.2.0/m54455/crtbegin.o
 .dtors         0x4007b244        0x4 c:/nburn/gcc-m68k/bin/../lib/gcc/m68k-unknown-elf/5.2.0/m54455/crtend.o
                0x4007b248        0x4 LONG 0x0
                0x4007b24c                __DTOR_END__ = .
 *(.rodata)
 .rodata        0x4007b24c      0x1db main.od
 .rodata        0x4007b427     0x17c0 Logger.od
 .rodata        0x4007cbe7       0x18 Drivers\pwm.od
 .rodata        0x4007cbff       0x84 Drivers\introspec.od
 .rodata        0x4007cc83        0xc Drivers\dsm2.od
 .rodata        0x4007cc8f       0xf7 Drivers\SpinningLidar.od
 .rodata        0x4007cd86       0x33 Drivers\Odometer.od
 .rodata        0x4007cdb9       0x6c Drivers\MPU9250.od
 .rodata        0x4007ce25       0x1d Drivers\LidarPWM.od
 .rodata        0x4007ce42       0x15 Drivers\LCD.od
 .rodata        0x4007ce57      0x2c1 Drivers\IMUSetupAndSample.od
 .rodata        0x4007d118      0x158 htmldata.od
 .rodata        0x4007d270      0x1aa C:\Nburn/lib/DBNANO54415.a(serial.od)
 .rodata        0x4007d41a       0xcf C:\Nburn/lib/DBNANO54415.a(HiResTimer.od)
 *fill*         0x4007d4e9        0x1 
 .rodata        0x4007d4ea      0x162 C:\Nburn/lib/DBNANO54415.a(dbethernet.od)
 .rodata        0x4007d64c        0xa C:\Nburn/lib/DBNANO54415.a(bsp.od)
 .rodata        0x4007d656       0x1b C:\Nburn/lib/DBNANO54415.a(ethernet.od)
 .rodata        0x4007d671      0x422 C:\Nburn/lib/DBNANO54415.a(etherprint.od)
 .rodata        0x4007da93       0x3f C:\Nburn/lib/DBNANO54415.a(SPIFlash.od)
 .rodata        0x4007dad2       0x12 C:\Nburn/lib/DBNANO54415.a(ethernetauxdb.od)
 .rodata        0x4007dae4       0x17 C:\Nburn/lib/DBNANO54415.a(ether2nd.od)
 .rodata        0x4007dafb        0x1 C:\Nburn/lib/DBNANO54415.a(weak_autoenet_var.od)
                0x4007dafb                bAutomatic2ndEther
 .rodata        0x4007dafc      0x10d C:\Nburn/lib/DBNetBurner.a(ucos.od)
                0x4007dafc                OSMapTbl
 .rodata        0x4007dc09        0x5 C:\Nburn/lib/DBNetBurner.a(cppmain.od)
 .rodata        0x4007dc0e       0x7b C:\Nburn/lib/DBNetBurner.a(ucosmain.od)
 .rodata        0x4007dc89        0x6 C:\Nburn/lib/DBNetBurner.a(fileio.od)
 .rodata        0x4007dc8f       0xd4 C:\Nburn/lib/DBNetBurner.a(system.od)
 *fill*         0x4007dd63        0x1 
 .rodata        0x4007dd64      0x30a C:\Nburn/lib/DBNetBurner.a(utils.od)
 .rodata        0x4007e06e       0x65 C:\Nburn/lib/DBNetBurner.a(ip.od)
 .rodata        0x4007e0d3      0x38a C:\Nburn/lib/DBNetBurner.a(buffers.od)
 .rodata        0x4007e45d       0x59 C:\Nburn/lib/DBNetBurner.a(arp.od)
 .rodata        0x4007e4b6       0x3d C:\Nburn/lib/DBNetBurner.a(udp.od)
 *fill*         0x4007e4f3        0x1 
 .rodata        0x4007e4f4      0x6da C:\Nburn/lib/DBNetBurner.a(ftpd.od)
 .rodata        0x4007ebce      0xaad C:\Nburn/lib/DBNetBurner.a(tcp.od)
 .rodata        0x4007f67b       0xf8 C:\Nburn/lib/DBNetBurner.a(http.od)
 .rodata        0x4007f773      0x55a C:\Nburn/lib/DBNetBurner.a(httpinternal.od)
 .rodata        0x4007fccd      0x1f8 C:\Nburn/lib/DBNetBurner.a(htmldecomp.od)
 .rodata        0x4007fec5        0xa C:\Nburn/lib/DBNetBurner.a(dhcpc.od)
 .rodata        0x4007fecf        0xe C:\Nburn/lib/DBNetBurner.a(netrx.od)
 .rodata        0x4007fedd       0x11 C:\Nburn/lib/DBNetBurner.a(netinterface.od)
 .rodata        0x4007feee       0xb0 C:\Nburn/lib/DBNetBurner.a(taskmon.od)
 .rodata        0x4007ff9e      0x54f C:\Nburn/lib/DBNetBurner.a(smarttrap.od)
 .rodata        0x400804ed       0xed C:\Nburn/lib/DBNetBurner.a(autoupdate.od)
 .rodata        0x400805da       0x41 C:\Nburn/lib/DBNetBurner.a(base64.od)
 .rodata        0x4008061b       0x41 C:\Nburn/lib/DBNetBurner.a(nbiprintf.od)
 .rodata        0x4008065c       0x94 C:\Nburn/lib/DBNetBurner.a(ipv6_addr.od)
 .rodata        0x400806f0       0x31 C:\Nburn/lib/DBNetBurner.a(ipv6_tcp.od)
 .rodata        0x40080721      0xaef C:\Nburn/lib/DBNetBurner.a(ipv6_ip.od)
 .rodata        0x40081210       0x12 C:\Nburn/lib/DBNetBurner.a(ipv6_udp.od)
 .rodata        0x40081222       0x58 C:\Nburn/lib/DBNetBurner.a(ipv6_extensions.od)
 .rodata        0x4008127a      0x2f5 C:\Nburn/lib/DBNetBurner.a(ipv6_show.od)
 .rodata        0x4008156f      0x116 C:\Nburn/lib/DBNetBurner.a(ipv6_dhcp.od)
 .rodata        0x40081685       0x22 C:\Nburn/lib/DBNetBurner.a(multicast.od)
 .rodata        0x400816a7        0xa C:\Nburn/lib/DBNetBurner.a(nbfloatprint.od)
 .rodata        0x400816b1        0xa C:\Nburn/lib/DBNetBurner.a(md5c.od)
 *fill*         0x400816bb        0x1 
 .rodata        0x400816bc      0x72a c:/nburn/gcc-m68k/bin/../m68k-unknown-elf/sysroot/lib/m54455\libstdc++.a(cp-demangle.o)
 .rodata        0x40081de6       0x30 c:/nburn/gcc-m68k/bin/../m68k-unknown-elf/sysroot/lib/m54455\libm.a(lib_a-e_pow.o)
 .rodata        0x40081e16      0x188 c:/nburn/gcc-m68k/bin/../m68k-unknown-elf/sysroot/lib/m54455\libm.a(lib_a-e_rem_pio2.o)
 .rodata        0x40081f9e       0x50 c:/nburn/gcc-m68k/bin/../m68k-unknown-elf/sysroot/lib/m54455\libm.a(lib_a-k_rem_pio2.o)
 .rodata        0x40081fee       0x40 c:/nburn/gcc-m68k/bin/../m68k-unknown-elf/sysroot/lib/m54455\libm.a(lib_a-s_atan.o)
 .rodata        0x4008202e       0x10 c:/nburn/gcc-m68k/bin/../m68k-unknown-elf/sysroot/lib/m54455\libm.a(lib_a-s_rint.o)
 .rodata        0x4008203e       0x20 c:/nburn/gcc-m68k/bin/../m68k-unknown-elf/sysroot/lib/m54455\libm.a(lib_a-sf_atan.o)
 .rodata        0x4008205e        0x4 c:/nburn/gcc-m68k/bin/../m68k-unknown-elf/sysroot/lib/m54455\libc.a(lib_a-impure.o)
                0x4008205e                _global_impure_ptr
 .rodata        0x40082062      0x101 c:/nburn/gcc-m68k/bin/../m68k-unknown-elf/sysroot/lib/m54455\libc.a(lib_a-ctype_.o)
                0x40082062                _ctype_
 *(.rodata.*)
 *fill*         0x40082163        0x1 
 .rodata._ZTV3Nav
                0x40082164       0x10 Nav.od
                0x40082164                _ZTV3Nav
 .rodata._ZTV13MainLogObject
                0x40082174       0x10 Logger.od
                0x40082174                _ZTV13MainLogObject
 .rodata._ZTV15IntrospecObject
                0x40082184       0x10 Drivers\introspec.od
                0x40082184                _ZTV15IntrospecObject
 .rodata._ZTV8Odometer
                0x40082194       0x10 Drivers\Odometer.od
                0x40082194                _ZTV8Odometer
 .rodata._ZTV3LCD
                0x400821a4       0x10 Drivers\LCD.od
                0x400821a4                _ZTV3LCD
 .rodata._ZL12FilePointer0
                0x400821b4       0x4c htmldata.od
 .rodata.n_file_record
                0x40082200        0x4 htmldata.od
                0x40082200                n_file_record
 .rodata.file_record
                0x40082204       0x18 htmldata.od
                0x40082204                file_record
 .rodata._ZTV8IPV6_DNS
                0x4008221c       0x1c C:\Nburn/lib/DBNetBurner.a(ipv6_ip.od)
                0x4008221c                _ZTV8IPV6_DNS
 .rodata._ZTV10IPV6_DHCPD
                0x40082238       0x1c C:\Nburn/lib/DBNetBurner.a(ipv6_ip.od)
                0x40082238                _ZTV10IPV6_DHCPD
 .rodata._ZTV13IPV6_NEIGHBOR
                0x40082254       0x1c C:\Nburn/lib/DBNetBurner.a(ipv6_ip.od)
                0x40082254                _ZTV13IPV6_NEIGHBOR
 .rodata._ZTV11IPV6_ROUTER
                0x40082270       0x1c C:\Nburn/lib/DBNetBurner.a(ipv6_ip.od)
                0x40082270                _ZTV11IPV6_ROUTER
 .rodata._ZTV9IPV6_DEST
                0x4008228c       0x1c C:\Nburn/lib/DBNetBurner.a(ipv6_ip.od)
                0x4008228c                _ZTV9IPV6_DEST
 .rodata._ZTV11IPV6_PREFIX
                0x400822a8       0x1c C:\Nburn/lib/DBNetBurner.a(ipv6_ip.od)
                0x400822a8                _ZTV11IPV6_PREFIX
 .rodata._ZTV12IPV6_ROOT_EL
                0x400822c4       0x1c C:\Nburn/lib/DBNetBurner.a(ipv6_show.od)
                0x400822c4                _ZTV12IPV6_ROOT_EL
 .rodata.str1.1
                0x400822e0       0x3b c:/nburn/gcc-m68k/bin/../m68k-unknown-elf/sysroot/lib/m54455\libstdc++.a(pure.o)
 .rodata.str1.1
                0x4008231b       0x22 c:/nburn/gcc-m68k/bin/../m68k-unknown-elf/sysroot/lib/m54455\libstdc++.a(eh_exception.o)
 .rodata._ZTSSt9exception
                0x4008233d        0xd c:/nburn/gcc-m68k/bin/../m68k-unknown-elf/sysroot/lib/m54455\libstdc++.a(eh_exception.o)
                0x4008233d                _ZTSSt9exception
 .rodata._ZTISt9exception
                0x4008234a        0x8 c:/nburn/gcc-m68k/bin/../m68k-unknown-elf/sysroot/lib/m54455\libstdc++.a(eh_exception.o)
                0x4008234a                _ZTISt9exception
 .rodata._ZTSSt13bad_exception
                0x40082352       0x12 c:/nburn/gcc-m68k/bin/../m68k-unknown-elf/sysroot/lib/m54455\libstdc++.a(eh_exception.o)
                0x40082352                _ZTSSt13bad_exception
 .rodata._ZTISt13bad_exception
                0x40082364        0xc c:/nburn/gcc-m68k/bin/../m68k-unknown-elf/sysroot/lib/m54455\libstdc++.a(eh_exception.o)
                0x40082364                _ZTISt13bad_exception
 .rodata._ZTSN10__cxxabiv115__forced_unwindE
                0x40082370       0x20 c:/nburn/gcc-m68k/bin/../m68k-unknown-elf/sysroot/lib/m54455\libstdc++.a(eh_exception.o)
                0x40082370                _ZTSN10__cxxabiv115__forced_unwindE
 .rodata._ZTIN10__cxxabiv115__forced_unwindE
                0x40082390        0x8 c:/nburn/gcc-m68k/bin/../m68k-unknown-elf/sysroot/lib/m54455\libstdc++.a(eh_exception.o)
                0x40082390                _ZTIN10__cxxabiv115__forced_unwindE
 .rodata._ZTSN10__cxxabiv119__foreign_exceptionE
                0x40082398       0x24 c:/nburn/gcc-m68k/bin/../m68k-unknown-elf/sysroot/lib/m54455\libstdc++.a(eh_exception.o)
                0x40082398                _ZTSN10__cxxabiv119__foreign_exceptionE
 .rodata._ZTIN10__cxxabiv119__foreign_exceptionE
                0x400823bc        0x8 c:/nburn/gcc-m68k/bin/../m68k-unknown-elf/sysroot/lib/m54455\libstdc++.a(eh_exception.o)
                0x400823bc                _ZTIN10__cxxabiv119__foreign_exceptionE
 .rodata._ZTVSt13bad_exception
                0x400823c4       0x14 c:/nburn/gcc-m68k/bin/../m68k-unknown-elf/sysroot/lib/m54455\libstdc++.a(eh_exception.o)
                0x400823c4                _ZTVSt13bad_exception
 .rodata.str1.1
                0x400823d8       0x8c c:/nburn/gcc-m68k/bin/../m68k-unknown-elf/sysroot/lib/m54455\libstdc++.a(vterminate.o)
 .rodata.str1.1
                0x40082464      0x643 c:/nburn/gcc-m68k/bin/../m68k-unknown-elf/sysroot/lib/m54455\libstdc++.a(cp-demangle.o)
                                0x708 (size before relaxing)
 .rodata._ZTSN10__cxxabiv120__si_class_type_infoE
                0x40082aa7       0x25 c:/nburn/gcc-m68k/bin/../m68k-unknown-elf/sysroot/lib/m54455\libstdc++.a(si_class_type_info.o)
                0x40082aa7                _ZTSN10__cxxabiv120__si_class_type_infoE
 .rodata._ZTIN10__cxxabiv120__si_class_type_infoE
                0x40082acc        0xc c:/nburn/gcc-m68k/bin/../m68k-unknown-elf/sysroot/lib/m54455\libstdc++.a(si_class_type_info.o)
                0x40082acc                _ZTIN10__cxxabiv120__si_class_type_infoE
 .rodata._ZTVN10__cxxabiv120__si_class_type_infoE
                0x40082ad8       0x2c c:/nburn/gcc-m68k/bin/../m68k-unknown-elf/sysroot/lib/m54455\libstdc++.a(si_class_type_info.o)
                0x40082ad8                _ZTVN10__cxxabiv120__si_class_type_infoE
 .rodata._ZTSN10__cxxabiv117__class_type_infoE
                0x40082b04       0x22 c:/nburn/gcc-m68k/bin/../m68k-unknown-elf/sysroot/lib/m54455\libstdc++.a(class_type_info.o)
                0x40082b04                _ZTSN10__cxxabiv117__class_type_infoE
 .rodata._ZTIN10__cxxabiv117__class_type_infoE
                0x40082b26        0xc c:/nburn/gcc-m68k/bin/../m68k-unknown-elf/sysroot/lib/m54455\libstdc++.a(class_type_info.o)
                0x40082b26                _ZTIN10__cxxabiv117__class_type_infoE
 *fill*         0x40082b32        0x2 
 .rodata._ZTVN10__cxxabiv117__class_type_infoE
                0x40082b34       0x2c c:/nburn/gcc-m68k/bin/../m68k-unknown-elf/sysroot/lib/m54455\libstdc++.a(class_type_info.o)
                0x40082b34                _ZTVN10__cxxabiv117__class_type_infoE
 .rodata._ZTSSt9type_info
                0x40082b60        0xd c:/nburn/gcc-m68k/bin/../m68k-unknown-elf/sysroot/lib/m54455\libstdc++.a(tinfo.o)
                0x40082b60                _ZTSSt9type_info
 *fill*         0x40082b6d        0x1 
 .rodata._ZTISt9type_info
                0x40082b6e        0x8 c:/nburn/gcc-m68k/bin/../m68k-unknown-elf/sysroot/lib/m54455\libstdc++.a(tinfo.o)
                0x40082b6e                _ZTISt9type_info
 .rodata.str1.1
                0x40082b76        0x4 c:/nburn/gcc-m68k/bin/../m68k-unknown-elf/sysroot/lib/m54455\libm.a(lib_a-w_pow.o)
 .rodata.str1.1
                0x40082b7a        0x5 c:/nburn/gcc-m68k/bin/../m68k-unknown-elf/sysroot/lib/m54455\libm.a(lib_a-w_sqrt.o)
 .rodata.str1.1
                0x40082b7f        0x6 c:/nburn/gcc-m68k/bin/../m68k-unknown-elf/sysroot/lib/m54455\libm.a(lib_a-wf_asin.o)
                                  0x7 (size before relaxing)
 .rodata.str1.1
                0x40082b85        0x6 c:/nburn/gcc-m68k/bin/../m68k-unknown-elf/sysroot/lib/m54455\libm.a(lib_a-wf_sqrt.o)
 .rodata.str1.1
                0x40082b8b        0x1 c:/nburn/gcc-m68k/bin/../m68k-unknown-elf/sysroot/lib/m54455\libm.a(lib_a-e_pow.o)
 .rodata.str1.1
                0x40082b8b        0x2 c:/nburn/gcc-m68k/bin/../m68k-unknown-elf/sysroot/lib/m54455\libc.a(lib_a-impure.o)
 .rodata.str1.1
                0x40082b8d        0x2 c:/nburn/gcc-m68k/bin/../m68k-unknown-elf/sysroot/lib/m54455\libc.a(lib_a-puts.o)
 *(.gnu.linkonce.*)
 *(.gcc_except_table)
                0x40082b90                . = ALIGN (0x4)
 *fill*         0x40082b8d        0x3 
                0x40082b90                __INIT_SECTION__ = .
                0x40082b90        0x4 LONG 0x4e560000
 *(.init)
 .init          0x40082b94        0x6 c:/nburn/gcc-m68k/bin/../lib/gcc/m68k-unknown-elf/5.2.0/m54455/crtbegin.o
 .init          0x40082b9a        0x6 c:/nburn/gcc-m68k/bin/../lib/gcc/m68k-unknown-elf/5.2.0/m54455/crtend.o
                0x40082ba0        0x2 SHORT 0x4e5e
                0x40082ba2        0x2 SHORT 0x4e75
                0x40082ba4                . = ALIGN (0x4)
                0x40082ba4                __FINI_SECTION__ = .
                0x40082ba4        0x4 LONG 0x4e560000
 *(.fini)
                0x40082ba8        0x2 SHORT 0x4e5e
                0x40082baa        0x2 SHORT 0x4e75
 *(.lit)
                0x40082bb0                . = ALIGN (0x10)
 *fill*         0x40082bac        0x4 
                0x40082bb0                _etext = .
                0x40082bb0                etext = .

.data           0x40082bb0      0xcf0
                0x40082bb0                copy_start = .
 *(.shdata)
 *(.data)
 .data          0x40082bb0        0x4 c:/nburn/gcc-m68k/bin/../lib/gcc/m68k-unknown-elf/5.2.0/m54455/crtbegin.o
                0x40082bb0                __dso_handle
 .data          0x40082bb4        0x4 C:\Nburn/lib/DBNANO54415.a(bsp.od)
                0x40082bb4                PlatformName
 .data          0x40082bb8        0x2 C:\Nburn/lib/DBNANO54415.a(ethernet.od)
                0x40082bb8                wait
 *fill*         0x40082bba        0x2 
 .data          0x40082bbc      0x400 C:\Nburn/lib/DBNANO54415.a(emulticast.od)
 .data          0x40082fbc        0x4 C:\Nburn/lib/DBNetBurner.a(ucosmain.od)
                0x40082fbc                OSTcbStructSize
 .data          0x40082fc0        0x4 C:\Nburn/lib/DBNetBurner.a(base64.od)
                0x40082fc0                EncodeString
 .data          0x40082fc4        0x8 C:\Nburn/lib/DBNetBurner.a(nbiprintf.od)
                0x40082fc4                k_spaces
                0x40082fc8                k_zeros
 .data          0x40082fcc       0x70 C:\Nburn/lib/DBNetBurner.a(md5c.od)
                0x4008300c                _ZN7MD5_CTX10_s__vtableE
 .data          0x4008303c        0x4 c:/nburn/gcc-m68k/bin/../m68k-unknown-elf/sysroot/lib/m54455\libm.a(lib_a-s_lib_ver.o)
                0x4008303c                __fdlib_version
 .data          0x40083040       0x1c c:/nburn/gcc-m68k/bin/../lib/gcc/m68k-unknown-elf/5.2.0/m54455\libgcc.a(_floatex.o)
                0x40083040                _fpCCR
 .data          0x4008305c      0x426 c:/nburn/gcc-m68k/bin/../m68k-unknown-elf/sysroot/lib/m54455\libc.a(lib_a-impure.o)
                0x4008305c                _impure_ptr
 *fill*         0x40083482        0x2 
 .data          0x40083484      0x410 c:/nburn/gcc-m68k/bin/../m68k-unknown-elf/sysroot/lib/m54455\libc.a(lib_a-mallocr.o)
                0x40083484                __malloc_sbrk_base
                0x40083488                __malloc_trim_threshold
                0x4008348c                __malloc_av_
 .data          0x40083894        0x4 c:/nburn/gcc-m68k/bin/../m68k-unknown-elf/sysroot/lib/m54455\libc.a(lib_a-ctype_.o)
                0x40083894                __ctype_ptr__
                0x400838a0                . = ALIGN (0x10)
 *fill*         0x40083898        0x8 
                0x400838a0                _edata = .
                0x400838a0                copy_end = .

.jcr            0x400838a0        0x0
 .jcr           0x400838a0        0x0 c:/nburn/gcc-m68k/bin/../lib/gcc/m68k-unknown-elf/5.2.0/m54455/crtbegin.o

.tm_clone_table
                0x400838a0        0x0
 .tm_clone_table
                0x400838a0        0x0 c:/nburn/gcc-m68k/bin/../lib/gcc/m68k-unknown-elf/5.2.0/m54455/crtbegin.o
 .tm_clone_table
                0x400838a0        0x0 c:/nburn/gcc-m68k/bin/../lib/gcc/m68k-unknown-elf/5.2.0/m54455/crtend.o

.data.AppName   0x400838a0        0x4
 .data.AppName  0x400838a0        0x4 main.od
                0x400838a0                AppName

.data.Mscale    0x400838a4        0x1
 .data.Mscale   0x400838a4        0x1 Drivers\IMUSetupAndSample.od
                0x400838a4                Mscale

.data.Mmode     0x400838a5        0x1
 .data.Mmode    0x400838a5        0x1 Drivers\IMUSetupAndSample.od
                0x400838a5                Mmode

.data.GyroMeasError
                0x400838a6        0x4
 .data.GyroMeasError
                0x400838a6        0x4 Drivers\IMUSetupAndSample.od
                0x400838a6                GyroMeasError

.data.q         0x400838aa       0x10
 .data.q        0x400838aa       0x10 Drivers\IMUSetupAndSample.od
                0x400838aa                q

.data.default_page
                0x400838ba        0x4
 .data.default_page
                0x400838ba        0x4 htmldata.od
                0x400838ba                default_page

.data.MIME_table
                0x400838be        0x4
 .data.MIME_table
                0x400838be        0x4 htmldata.od
                0x400838be                MIME_table

.data.html_table
                0x400838c2      0x100
 .data.html_table
                0x400838c2      0x100 htmldata.od
                0x400838c2                html_table

.data._ZN10__cxxabiv120__unexpected_handlerE
                0x400839c2        0x4
 .data._ZN10__cxxabiv120__unexpected_handlerE
                0x400839c2        0x4 c:/nburn/gcc-m68k/bin/../m68k-unknown-elf/sysroot/lib/m54455\libstdc++.a(eh_unex_handler.o)
                0x400839c2                _ZN10__cxxabiv120__unexpected_handlerE

.data._ZN10__cxxabiv119__terminate_handlerE
                0x400839c6        0x4
 .data._ZN10__cxxabiv119__terminate_handlerE
                0x400839c6        0x4 c:/nburn/gcc-m68k/bin/../m68k-unknown-elf/sysroot/lib/m54455\libstdc++.a(eh_term_handler.o)
                0x400839c6                _ZN10__cxxabiv119__terminate_handlerE

.bss            0x400839d0  0x1124956
                0x40100000                . = ALIGN (0x100000)
 *fill*         0x400839d0    0x7c630 
                0x40100000                __bss_start = .
 *(.bss.static_pool_buffers)
                0x40100000                . = ALIGN (0x100000)
                0x40100000                __static_pool_end = .
 *(.shbss)
 *(.bss)
 .bss           0x40100000       0x1e c:/nburn/gcc-m68k/bin/../lib/gcc/m68k-unknown-elf/5.2.0/m54455/crtbegin.o
 *fill*         0x4010001e        0x2 
 .bss           0x40100020      0x441 C:\Nburn/lib/DBNANO54415.a(serial.od)
                0x40100020                Uarts
                0x40100048                UartData
                0x40100304                Serial_Ioexp
                0x40100314                serisrcnt
                0x40100318                serisrrcnt
                0x4010031c                serisrtcnt
                0x40100320                LastIsrChan
                0x40100324                LastGCChan
                0x40100328                serisrtxc
                0x4010032c                serisrtxcx
                0x40100330                p1
                0x40100334                p2
 *fill*         0x40100461        0x3 
 .bss           0x40100464        0x1 C:\Nburn/lib/DBNANO54415.a(pins.od)
                0x40100464                Pins
 *fill*         0x40100465        0x3 
 .bss           0x40100468     0x2016 C:\Nburn/lib/DBNANO54415.a(FlashOps.od)
                0x40100468                SPI_Main
                0x4010046c                FlashCmpBuf
                0x4010246c                pSpiFlashCrit
                0x40102470                TheSpiFlashCrit
 *fill*         0x4010247e        0x2 
 .bss           0x40102480      0x1bc C:\Nburn/lib/DBNANO54415.a(HiResTimer.od)
                0x40102480                _ZN10HiResTimer6timersE
                0x40102538                _ZN10HiResTimer12timerCreatedE
 .bss           0x4010263c       0x20 C:\Nburn/lib/DBNANO54415.a(pin_irq.od)
                0x4010263c                TheIrqFuncs
 *fill*         0x4010265c        0x4 
 .bss           0x40102660     0x2778 C:\Nburn/lib/DBNANO54415.a(dbethernet.od)
                0x40102660                nRx
                0x40102664                nRxNMI
                0x40102668                DBETHER_ENABLE_EIMR_VALUE
                0x4010266c                Free_Buffers_ForNMI
                0x4010268c                Free_Get
                0x40102690                RXed_Buffers
                0x401026b0                Enet_Get
                0x401026b4                Enet_Put
                0x401026b8                LocalDebugIp
                0x401026bc                bRebootOnTrap
                0x401026bd                bRebootOnDisconnect
                0x401026be                bDontdoArp
                0x401026bf                bDebuggerInitialized
                0x401026c0                RxPosts
                0x401026c4                TxcPosts
                0x401026c8                RxIsr
                0x401026cc                TxIsr
                0x401026d0                LastIsrStatus
                0x401026d4                current_report_thread_id
                0x401026d8                current_step_thread_id
                0x401026dc                lvespval
                0x401026e0                bFirstBoot
                0x401026e4                NMI_a0_tmp_value
                0x401026e8                EMIR_ADDR
                0x401026ec                ASM_SAVE_D0
                0x401026f0                ASM_SAVE_D1
                0x401026f4                ASM_SAVE_D2
                0x401026f8                ASM_SAVE_D3
                0x401026fc                ASM_SAVE_D4
                0x40102700                ASM_SAVE_D5
                0x40102704                ASM_SAVE_D6
                0x40102708                ASM_SAVE_D7
                0x4010270c                ASM_SAVE_A0
                0x40102710                ASM_SAVE_A1
                0x40102714                ASM_SAVE_A2
                0x40102718                ASM_SAVE_A3
                0x4010271c                ASM_SAVE_A4
                0x40102720                ASM_SAVE_A5
                0x40102724                ASM_SAVE_A6
                0x40102728                ASM_SAVE_A7
                0x4010272c                ASM_SAVE_SR
                0x4010272e                ASM_SAVE_PC
                0x40102732                old_vectors
                0x40102770                TxBD
                0x40102788                TxBDpp
 .bss           0x40104dd8       0x1c C:\Nburn/lib/DBNANO54415.a(bsp.od)
                0x40104dd8                CPU_CLOCK
                0x40104ddc                XTAL_CLOCK
                0x40104de0                BspTickMaxCount
                0x40104de2                TERR_REGISTER
                0x40104de4                cacrMirror
                0x40104de8                heap_ptr
                0x40104dec                errno
 .bss           0x40104df4       0xc0 C:\Nburn/lib/DBNANO54415.a(multichanneli2c.od)
                0x40104df4                I2C_SlaveTX_Callback
                0x40104df8                I2C_SlaveTX_NAK_Callback
                0x40104dfc                I2C_SlaveRX_Callback
                0x40104e00                I2CSlaveRXBuf
                0x40104e41                I2CSlaveTXBuf
                0x40104e82                I2CSlaveRec
                0x40104eac                pI2CRec
                0x40104eb0                dummy
                0x40104eb1                bLastTX
                0x40104eb2                RnW
                0x40104eb3                bRestarted
 *fill*         0x40104eb4        0xc 
 .bss           0x40104ec0     0x2299 C:\Nburn/lib/DBNANO54415.a(ethernet.od)
                0x40104ec0                enet0
                0x40104fd0                enet1
                0x401050e0                port1state
                0x401050e4                EtherLinkCallback
                0x401050e8                EtherLinkCallback1
                0x401050ec                EthernetMac
                0x401050f2                EthernetMac1
                0x401050f8                EthernetBlock
                0x4010513e                FecFifo
                0x40105150                Enet_Debug_Ch
                0x40105154                EtherSendStk
                0x40107154                trcr
 *fill*         0x40107159        0x3 
 .bss           0x4010715c        0x9 C:\Nburn/lib/DBNANO54415.a(etherprint.od)
                0x4010715c                PHY_ID
                0x4010715e                PHY_addr
                0x40107160                test
                0x40107162                phy_data
                0x40107164                bEnetInit
 *fill*         0x40107165        0x3 
 .bss           0x40107168      0x100 C:\Nburn/lib/DBNANO54415.a(emulticast.od)
 .bss           0x40107268       0x46 C:\Nburn/lib/DBNANO54415.a(ether2nd.od)
                0x40107268                EthernetBlock1
 *fill*         0x401072ae        0x2 
 .bss           0x401072b0        0x8 C:\Nburn/lib/DBNANO54415.a(etherswitch.od)
                0x401072b0                RevMac
 .bss           0x401072b8      0x4bc C:\Nburn/lib/DBNANO54415.a(i2c_class.od)
                0x401072b8                I2C
 .bss           0x40107774      0x12f C:\Nburn/lib/DBNetBurner.a(ucos.od)
                0x40107774                TimeTick
                0x40107778                Secs
                0x4010777c                OSTCBPrioTbl
                0x4010787c                OSRdyTbl
                0x40107884                OSTCBCur
                0x40107888                OSTCBHighRdy
                0x4010788c                OSTCBList
                0x40107890                OSTCBFreeList
                0x40107894                OSIntNesting
                0x40107898                OSLockNesting
                0x4010789c                OSRdyGrp
                0x401078a0                OSISRLevel
                0x401078a2                OSRunning
 *fill*         0x401078a3        0x1 
 .bss           0x401078a4     0x3000 C:\Nburn/lib/DBNetBurner.a(cppmain.od)
                0x401078a4                MainStk
 *fill*         0x4010a8a4        0xc 
 .bss           0x4010a8b0        0xc C:\Nburn/lib/DBNetBurner.a(debugtrap.od)
                0x4010a8b0                WDEBUGSTRUCT
                0x4010a8b8                WDEBUGSTRUCTP
 .bss           0x4010a8bc     0x2272 C:\Nburn/lib/DBNetBurner.a(ucosmain.od)
                0x4010a8bc                OSIdleTaskStk
                0x4010c8bc                OSTCBTbl
                0x4010cb14                critical_count
 *fill*         0x4010cb2e        0x2 
 .bss           0x4010cb30       0x1c C:\Nburn/lib/DBNetBurner.a(fileio.od)
                0x4010cb30                pExtraFdFunc
                0x4010cb34                fd_map
 .bss           0x4010cb4c      0xa08 C:\Nburn/lib/DBNetBurner.a(system.od)
                0x4010cb4c                rnd_cnt
                0x4010cb50                rnd_collect
                0x4010cd50                config_rec_buf
                0x4010d550                NotifyUpdatePtr
 .bss           0x4010d554       0x88 C:\Nburn/lib/DBNetBurner.a(utils.od)
                0x4010d554                frames_tx
                0x4010d558                frames_rx
                0x4010d55c                frames_tx_err
                0x4010d560                frames_rx_err
                0x4010d564                frames_rx_arp
                0x4010d568                frames_tx_arp
                0x4010d56c                frames_tx_udp
                0x4010d570                frames_rx_udp
                0x4010d574                frames_tx_tcp
                0x4010d578                frames_rx_tcp
                0x4010d57c                frames_tx_icmp
                0x4010d580                frames_rx_icmp
                0x4010d584                frames_ip_errors
                0x4010d588                frames_ip_discard
                0x4010d58c                frames_udp_errors
                0x4010d590                frames_tcp_errors
                0x4010d594                frames_rx_ppp_errors
                0x4010d598                enet_last_errlw
                0x4010d59c                enet_last_errhw
                0x4010d5a0                ip_last_err
                0x4010d5a4                enet_isr
                0x4010d5a8                frames_rx_unknown
                0x4010d5ac                frames_rx_fragment
                0x4010d5b0                static_buffer
                0x4010d5d8                DB_FLAGS
 .bss           0x4010d5dc     0x2336 C:\Nburn/lib/DBNetBurner.a(ip.od)
                0x4010d5dc                wGlobalPktId
                0x4010d5de                bTTL_Default
                0x4010d5e0                ipRxFifo
                0x4010d5f2                IcmpFifo
                0x4010d5f6                pDHCPTick
                0x4010d5fa                pDHCPServerTick
                0x4010d5fe                pMultiTick
                0x4010d602                pAutoIPTick
                0x4010d606                pIpv6Tick
                0x4010d60a                pPromisciousPacketFunc
                0x4010d60e                pMultiCastFunc
                0x4010d612                pFragFunc
                0x4010d616                nAdditional_Homes
                0x4010d61a                multi_home_if_record
                0x4010d642                multi_if_block
                0x4010d900                IPStk
                0x4010f900                ip_errs
                0x4010f90a                next_arp_time
                0x4010f90e                delay
 *fill*         0x4010f912        0xe 
 .bss           0x4010f920    0x6c1a2 C:\Nburn/lib/DBNetBurner.a(buffers.od)
                0x4010f920                static_pool_buffers
                0x4017b920                free_list
                0x4017b92a                free_list_is_initialized
                0x4017b92e                LastHead
 *fill*         0x4017bac2        0x2 
 .bss           0x4017bac4     0x1e1e C:\Nburn/lib/DBNetBurner.a(arp.od)
                0x4017bac4                ARP_critical_section
                0x4017bad2                wArpLifetime
 *fill*         0x4017d8e2        0x2 
 .bss           0x4017d8e4       0xb0 C:\Nburn/lib/DBNetBurner.a(udp.od)
                0x4017d8e4                udp_fifos
                0x4017d970                UDP_fifos_used
                0x4017d974                ipsetup_authenticate_func
                0x4017d978                pDHCPProcessFunction
                0x4017d97c                pDHCPServerProcessFunction
                0x4017d980                pDHCPv6ClientProcessFunction
                0x4017d984                pTaskPacketFunc
                0x4017d988                UdpNetbiosNameServicePtr
                0x4017d98c                AutoUpdatePtr
                0x4017d990                UnwantedIDPacketCallbackPtr
 .bss           0x4017d994     0x40de C:\Nburn/lib/DBNetBurner.a(ftpd.od)
 *fill*         0x40181a72        0x2 
 .bss           0x40181a74     0xebee C:\Nburn/lib/DBNetBurner.a(tcp.od)
                0x40181a74                sockets
                0x40183774                ws_resume_func
                0x40183778                m_slist
                0x4018380c                free_list_head
                0x40183810                user_closed_list_head
                0x40183814                listen_list_head
                0x40183818                active_list
                0x4018381a                semiactive_list
                0x40183864                TCPStk
                0x40186864                TCP_critical_section
                0x40186872                TCP_TimerSemaphore
                0x40186884                Trace
                0x4018f524                dt_Trace_Get
                0x4018f526                dt_Trace_Put
                0x4018f528                ShortSockets
                0x40190658                LastShortFree
 *fill*         0x40190662        0x2 
 .bss           0x40190664      0x15a C:\Nburn/lib/DBNetBurner.a(extraio.od)
 *fill*         0x401907be        0x2 
 .bss           0x401907c0     0x3078 C:\Nburn/lib/DBNetBurner.a(http.od)
                0x401907c0                HTTPStk
                0x401937c0                HTTP_Socket_FileRec
 .bss           0x40193838     0x277c C:\Nburn/lib/DBNetBurner.a(httpinternal.od)
                0x40193838                ThePostHandler
                0x4019383c                TheGetHandler
                0x40193840                TheHeadHandler
                0x40193844                TheMultipartHandler
                0x40193848                TheMultipartExtractHandler
                0x4019384c                TheErrorHandler
                0x40193850                http_rxBuffer
                0x40195f62                b_InMultipart
                0x40195f64                tip_buffer
 .bss           0x40195fb4       0x20 C:\Nburn/lib/DBNetBurner.a(iosys.od)
                0x40195fb4                read_file_sets
                0x40195fbc                write_file_sets
                0x40195fc4                error_file_sets
 .bss           0x40195fd4        0x8 C:\Nburn/lib/DBNetBurner.a(autoip.od)
                0x40195fd4                _ZN12AutoIPClient14staticNextTickE
 .bss           0x40195fdc       0x18 C:\Nburn/lib/DBNetBurner.a(dhcpc.od)
                0x40195fdc                AddDhcpOptionsFunc
                0x40195fe0                AddDhcpFieldsFunc
                0x40195fe4                ParseDhcpOptions
                0x40195fe8                pDHCPOfferName
                0x40195fec                DHCPDiscoverSeconds
 .bss           0x40195ff4        0x4 C:\Nburn/lib/DBNetBurner.a(netrx.od)
                0x40195ff4                pIp6Func
 .bss           0x40195ff8       0x60 C:\Nburn/lib/DBNetBurner.a(netinterface.od)
                0x40195ff8                pArpFunc
                0x40195ffc                pPacketfunc
                0x40196000                ENET_BCAST
                0x40196006                ENET_ZERO
                0x4019600c                FirstInterFaceIP
                0x40196010                FirstInterFaceMask
                0x40196014                FirstInterFaceGate
                0x40196018                FirstInterFaceDNS
 .bss           0x40196058     0x1004 C:\Nburn/lib/DBNetBurner.a(taskmon.od)
 .bss           0x4019705c      0x405 C:\Nburn/lib/DBNetBurner.a(smarttrap.od)
 *fill*         0x40197461        0x3 
 .bss           0x40197464       0x10 C:\Nburn/lib/DBNetBurner.a(autoupdate.od)
                0x40197464                pCurRecord
                0x40197468                update_authenticate_func
                0x4019746c                update_shutdown_func
                0x40197470                watchdog_service_function
 .bss           0x40197474       0x24 C:\Nburn/lib/DBNetBurner.a(device.od)
                0x40197474                DeviceQspiSem
                0x40197486                DeviceI2cSem
 .bss           0x40197498        0x4 C:\Nburn/lib/DBNetBurner.a(nbiprintf.od)
                0x40197498                pPrintfFloatFunc
 .bss           0x4019749c        0x4 C:\Nburn/lib/DBNetBurner.a(websocket_handler.od)
                0x4019749c                TheWSHandler
 .bss           0x401974a0       0x3c C:\Nburn/lib/DBNetBurner.a(ipv6_ip.od)
                0x401974a0                IPV6_Frame_RX
                0x401974a4                IPV6_Frame_TX
                0x401974a8                IPV6_Frame_TX_Frag
                0x401974ac                IPV6_Frame_RX_ICMP
                0x401974b0                IPV6_Frame_RX_UDP
                0x401974b4                IPV6_Frame_RX_TCP
                0x401974b8                IPV6_Frame_RX_Discard
                0x401974bc                IPV6_Frame_RX_Frag
                0x401974c0                IPV6_Ticks
                0x401974c4                _ZN13IPv6Interface18NetBurnerMultiCastE
                0x401974d4                _ZN13IPv6Interface7gifListE
 .bss           0x401974dc        0x2 C:\Nburn/lib/DBNetBurner.a(ipv6_multicast.od)
                0x401974dc                RegisteredV6MultiGroups
 *fill*         0x401974de        0x2 
 .bss           0x401974e0       0x2c C:\Nburn/lib/DBNetBurner.a(ipv6_dhcp.od)
                0x401974e0                _ZN2NB2V66DHCPv69pAddOROCBE
                0x401974e4                _ZN2NB2V66DHCPv616pRequestOptionCBE
                0x401974e8                _ZN2NB2V66DHCPv68pReplyCBE
                0x401974ec                _ZN2NB2V66DHCPv613DHCPv6Message21ALL_RELAY_AND_SERVERSE
                0x401974fc                _ZN2NB2V66DHCPv613DHCPv6Message11ALL_SERVERSE
 .bss           0x4019750c      0x398 C:\Nburn/lib/DBNetBurner.a(multicast.od)
                0x4019750c                mrecs
                0x4019788c                MaxMultiUsed
                0x4019788e                nPendingResponse
                0x40197892                MulticastRegistrationCrit
 .bss           0x401978a4       0x12 C:\Nburn/lib/DBNetBurner.a(random.od)
                0x401978a4                read_cnt
                0x401978a5                md5_rand
                0x401978b5                md5_used
 *fill*         0x401978b6        0x2 
 .bss           0x401978b8       0x1a c:/nburn/gcc-m68k/bin/../lib/gcc/m68k-unknown-elf/5.2.0/m54455\libgcc.a(unwind-dw2.o)
 *fill*         0x401978d2        0x2 
 .bss           0x401978d4       0x14 c:/nburn/gcc-m68k/bin/../lib/gcc/m68k-unknown-elf/5.2.0/m54455\libgcc.a(unwind-dw2-fde.o)
 .bss           0x401978e8       0x34 c:/nburn/gcc-m68k/bin/../m68k-unknown-elf/sysroot/lib/m54455\libc.a(lib_a-mallocr.o)
                0x401978e8                __malloc_current_mallinfo
                0x40197910                __malloc_max_total_mem
                0x40197914                __malloc_max_sbrked_mem
                0x40197918                __malloc_top_pad
 *(.bss.*)
 .bss._ZL2fl    0x4019791c        0x8 main.od
 .bss.MainTaskSem
                0x40197924       0x12 main.od
                0x40197924                MainTaskSem
 .bss.lcd       0x40197936        0x8 main.od
                0x40197936                lcd
 .bss.odo       0x4019793e        0x4 main.od
                0x4019793e                odo
 .bss.imu       0x40197942       0x2c main.od
                0x40197942                imu
 .bss.nav       0x4019796e       0x4a main.od
                0x4019796e                nav
 .bss.NV_Settings
                0x401979b8       0x20 main.od
                0x401979b8                NV_Settings
 .bss._ZZ8UserMainE10func_x_Stk
                0x401979d8     0x3000 main.od
 .bss._ZZ8UserMainE10func_x_Stk_0
                0x4019a9d8     0x3000 main.od
 .bss.mainLog   0x4019d9d8      0x5dc Logger.od
                0x4019d9d8                mainLog
 .bss._ZZN6Logger8logBeginEvE10func_x_Stk
                0x4019dfb4     0x3000 Logger.od
 .bss.ServoTimes
                0x401a0fb4        0x8 Drivers\servodrive.od
                0x401a0fb4                ServoTimes
 .bss.ServoMode
                0x401a0fbc        0x8 Drivers\servodrive.od
                0x401a0fbc                ServoMode
 .bss.ServoElapsed
                0x401a0fc4        0x8 Drivers\servodrive.od
                0x401a0fc4                ServoElapsed
 .bss.ServoIsr  0x401a0fcc        0x8 Drivers\servodrive.od
                0x401a0fcc                ServoIsr
 .bss.ServoPos  0x401a0fd4       0x10 Drivers\servodrive.od
                0x401a0fd4                ServoPos
 .bss.pNotifyNextFrameSem
                0x401a0fe4        0x4 Drivers\servodrive.od
                0x401a0fe4                pNotifyNextFrameSem
 .bss.ServoFrameCnt
                0x401a0fe8        0x4 Drivers\servodrive.od
                0x401a0fe8                ServoFrameCnt
 .bss._ZL2fl    0x401a0fec        0x8 Drivers\introspec.od
 .bss._ZN15IntrospecObject7bShowMeE
                0x401a0ff4        0x1 Drivers\introspec.od
                0x401a0ff4                _ZN15IntrospecObject7bShowMeE
 .bss.bLog      0x401a0ff5        0x1 Drivers\introspec.od
                0x401a0ff5                bLog
 .bss.LogData   0x401a0ff6  0x1000000 Drivers\introspec.od
                0x401a0ff6                LogData
 .bss.LogGet    0x411a0ff6        0x4 Drivers\introspec.od
                0x411a0ff6                LogGet
 .bss.LogPut    0x411a0ffa        0x4 Drivers\introspec.od
                0x411a0ffa                LogPut
 .bss.bOverFlow
                0x411a0ffe        0x1 Drivers\introspec.od
                0x411a0ffe                bOverFlow
 *fill*         0x411a0fff        0x1 
 .bss.LogCrit   0x411a1000        0xe Drivers\introspec.od
                0x411a1000                LogCrit
 .bss._ZL9pDescHead
                0x411a100e        0x4 Drivers\introspec.od
 .bss._ZL14StaticKeyValue
                0x411a1012        0x4 Drivers\introspec.od
 .bss._ZL5pHead
                0x411a1016        0x4 Drivers\introspec.od
 .bss._ZZN15IntrospecObject7ElementEPvmPKccE9OffsetPos
                0x411a101a        0x4 Drivers\introspec.od
 .bss.rc_ch     0x411a101e       0x40 Drivers\dsm2.od
                0x411a101e                rc_ch
 .bss.RCFrameCnt
                0x411a105e        0x4 Drivers\dsm2.od
                0x411a105e                RCFrameCnt
 .bss.RCCallBack
                0x411a1062        0x4 Drivers\dsm2.od
                0x411a1062                RCCallBack
 .bss._ZZ15RC_ProcessCharsihE2lt
                0x411a1066        0x4 Drivers\dsm2.od
 .bss._ZZ15RC_ProcessCharsihE5state
                0x411a106a        0x4 Drivers\dsm2.od
 .bss._ZZ15RC_ProcessCharsihE2lc
                0x411a106e        0x1 Drivers\dsm2.od
 *fill*         0x411a106f        0x1 
 .bss._ZN13SpinningLidar4distE
                0x411a1070      0xb40 Drivers\SpinningLidar.od
                0x411a1070                _ZN13SpinningLidar4distE
 .bss._ZN13SpinningLidar13sampleQualityE
                0x411a1bb0      0x5a0 Drivers\SpinningLidar.od
                0x411a1bb0                _ZN13SpinningLidar13sampleQualityE
 .bss._ZN13SpinningLidar12lidar_bufferE
                0x411a2150       0x80 Drivers\SpinningLidar.od
                0x411a2150                _ZN13SpinningLidar12lidar_bufferE
 .bss._ZN13SpinningLidar2rvE
                0x411a21d0        0x4 Drivers\SpinningLidar.od
                0x411a21d0                _ZN13SpinningLidar2rvE
 .bss._ZN13SpinningLidar10LIDARResetE
                0x411a21d4        0x1 Drivers\SpinningLidar.od
                0x411a21d4                _ZN13SpinningLidar10LIDARResetE
 *fill*         0x411a21d5        0x1 
 .bss._ZN13SpinningLidar9charCountE
                0x411a21d6        0x4 Drivers\SpinningLidar.od
                0x411a21d6                _ZN13SpinningLidar9charCountE
 .bss._ZN13SpinningLidar6packetE
                0x411a21da        0x5 Drivers\SpinningLidar.od
                0x411a21da                _ZN13SpinningLidar6packetE
 *fill*         0x411a21df        0x1 
 .bss._ZZN13SpinningLidar17SpinningLidarInitEvE10func_x_Stk
                0x411a21e0     0x3000 Drivers\SpinningLidar.od
 .bss._ZL8OdoCount
                0x411a51e0        0x4 Drivers\Odometer.od
 .bss._ZL10DtOdoCount
                0x411a51e4        0x4 Drivers\Odometer.od
 .bss._ZL11LastOdoTime
                0x411a51e8        0x4 Drivers\Odometer.od
 .bss._ZL17bLIDAR_MODE_RIGHT
                0x411a51ec        0x1 Drivers\LidarPWM.od
 *fill*         0x411a51ed        0x1 
 .bss._ZL22LIDAR_LAST_START_RIGHT
                0x411a51ee        0x4 Drivers\LidarPWM.od
 .bss.LIDAR_VALUE_RIGHT
                0x411a51f2        0x4 Drivers\LidarPWM.od
                0x411a51f2                LIDAR_VALUE_RIGHT
 .bss.Gscale    0x411a51f6        0x1 Drivers\IMUSetupAndSample.od
                0x411a51f6                Gscale
 .bss.Ascale    0x411a51f7        0x1 Drivers\IMUSetupAndSample.od
                0x411a51f7                Ascale
 .bss.aRes      0x411a51f8        0x4 Drivers\IMUSetupAndSample.od
                0x411a51f8                aRes
 .bss.gRes      0x411a51fc        0x4 Drivers\IMUSetupAndSample.od
                0x411a51fc                gRes
 .bss.mRes      0x411a5200        0x4 Drivers\IMUSetupAndSample.od
                0x411a5200                mRes
 .bss.MPU9250Data
                0x411a5204        0xe Drivers\IMUSetupAndSample.od
                0x411a5204                MPU9250Data
 .bss.magCount  0x411a5212        0x6 Drivers\IMUSetupAndSample.od
                0x411a5212                magCount
 .bss.magCalibration
                0x411a5218        0xc Drivers\IMUSetupAndSample.od
                0x411a5218                magCalibration
 .bss.gyroBias  0x411a5224        0xc Drivers\IMUSetupAndSample.od
                0x411a5224                gyroBias
 .bss.accelBias
                0x411a5230        0xc Drivers\IMUSetupAndSample.od
                0x411a5230                accelBias
 .bss.magBias   0x411a523c        0xc Drivers\IMUSetupAndSample.od
                0x411a523c                magBias
 .bss.magScale  0x411a5248        0xc Drivers\IMUSetupAndSample.od
                0x411a5248                magScale
 .bss.SelfTest  0x411a5254       0x18 Drivers\IMUSetupAndSample.od
                0x411a5254                SelfTest
 .bss.GyroMeasDrift
                0x411a526c        0x4 Drivers\IMUSetupAndSample.od
                0x411a526c                GyroMeasDrift
 .bss.beta      0x411a5270        0x4 Drivers\IMUSetupAndSample.od
                0x411a5270                beta
 .bss.zeta      0x411a5274        0x4 Drivers\IMUSetupAndSample.od
                0x411a5274                zeta
 .bss.sumCount  0x411a5278        0x4 Drivers\IMUSetupAndSample.od
                0x411a5278                sumCount
 .bss.pitch     0x411a527c        0x4 Drivers\IMUSetupAndSample.od
                0x411a527c                pitch
 .bss.yaw       0x411a5280        0x4 Drivers\IMUSetupAndSample.od
                0x411a5280                yaw
 .bss.roll      0x411a5284        0x4 Drivers\IMUSetupAndSample.od
                0x411a5284                roll
 .bss.heading   0x411a5288        0x4 Drivers\IMUSetupAndSample.od
                0x411a5288                heading
 .bss.a12       0x411a528c        0x4 Drivers\IMUSetupAndSample.od
                0x411a528c                a12
 .bss.a22       0x411a5290        0x4 Drivers\IMUSetupAndSample.od
                0x411a5290                a22
 .bss.a31       0x411a5294        0x4 Drivers\IMUSetupAndSample.od
                0x411a5294                a31
 .bss.a32       0x411a5298        0x4 Drivers\IMUSetupAndSample.od
                0x411a5298                a32
 .bss.a33       0x411a529c        0x4 Drivers\IMUSetupAndSample.od
                0x411a529c                a33
 .bss.currenttime
                0x411a52a0        0x8 Drivers\IMUSetupAndSample.od
                0x411a52a0                currenttime
 .bss.deltat    0x411a52a8        0x8 Drivers\IMUSetupAndSample.od
                0x411a52a8                deltat
 .bss.lasttime  0x411a52b0        0x8 Drivers\IMUSetupAndSample.od
                0x411a52b0                lasttime
 .bss.sum       0x411a52b8        0x8 Drivers\IMUSetupAndSample.od
                0x411a52b8                sum
 .bss.zeroOffset
                0x411a52c0        0x4 Drivers\IMUSetupAndSample.od
                0x411a52c0                zeroOffset
 .bss.ax        0x411a52c4        0x4 Drivers\IMUSetupAndSample.od
                0x411a52c4                ax
 .bss.ay        0x411a52c8        0x4 Drivers\IMUSetupAndSample.od
                0x411a52c8                ay
 .bss.az        0x411a52cc        0x4 Drivers\IMUSetupAndSample.od
                0x411a52cc                az
 .bss.gx        0x411a52d0        0x4 Drivers\IMUSetupAndSample.od
                0x411a52d0                gx
 .bss.gy        0x411a52d4        0x4 Drivers\IMUSetupAndSample.od
                0x411a52d4                gy
 .bss.gz        0x411a52d8        0x4 Drivers\IMUSetupAndSample.od
                0x411a52d8                gz
 .bss.mx        0x411a52dc        0x4 Drivers\IMUSetupAndSample.od
                0x411a52dc                mx
 .bss.my        0x411a52e0        0x4 Drivers\IMUSetupAndSample.od
                0x411a52e0                my
 .bss.mz        0x411a52e4        0x4 Drivers\IMUSetupAndSample.od
                0x411a52e4                mz
 .bss.lin_ax    0x411a52e8        0x4 Drivers\IMUSetupAndSample.od
                0x411a52e8                lin_ax
 .bss.lin_ay    0x411a52ec        0x4 Drivers\IMUSetupAndSample.od
                0x411a52ec                lin_ay
 .bss.lin_az    0x411a52f0        0x4 Drivers\IMUSetupAndSample.od
                0x411a52f0                lin_az
 .bss.PirqSem   0x411a52f4       0x12 Drivers\IMUSetupAndSample.od
                0x411a52f4                PirqSem
 .bss.PirqCount
                0x411a5306        0x4 Drivers\IMUSetupAndSample.od
                0x411a5306                PirqCount
 *fill*         0x411a530a        0x2 
 .bss._ZZ6IMURunvE10func_x_Stk
                0x411a530c     0x3000 Drivers\IMUSetupAndSample.od
 .bss._ZL10eh_globals
                0x411a830c        0x8 c:/nburn/gcc-m68k/bin/../m68k-unknown-elf/sysroot/lib/m54455\libstdc++.a(eh_globals.o)
 .bss._ZZN9__gnu_cxx27__verbose_terminate_handlerEvE11terminating
                0x411a8314        0x1 c:/nburn/gcc-m68k/bin/../m68k-unknown-elf/sysroot/lib/m54455\libstdc++.a(vterminate.o)
 *fill*         0x411a8315        0x1 
 .bss._ZN12_GLOBAL__N_114emergency_poolE
                0x411a8316       0x10 c:/nburn/gcc-m68k/bin/../m68k-unknown-elf/sysroot/lib/m54455\libstdc++.a(eh_alloc.o)
 *(COMMON)
                0x411a8328                _end = ALIGN (0x8)
                0x411a8328                __end = _end

.stab
 *(.stab)

.stabstr
 *(.stabstr)

.debug
 *(.debug)

.line
 *(.line)

.debug_srcinfo
 *(.debug_srcinfo)

.debug_sfnames
 *(.debug_sfnames)

.debug_aranges  0x00000000     0x33d8
 *(.debug_aranges)
 .debug_aranges
                0x00000000       0x98 main.od
 .debug_aranges
                0x00000098       0x70 Utility.od
 .debug_aranges
                0x00000108       0x70 Nav.od
 .debug_aranges
                0x00000178       0x98 Logger.od
 .debug_aranges
                0x00000210       0x80 Drivers\servodrive.od
 .debug_aranges
                0x00000290       0x60 Drivers\pwm.od
 .debug_aranges
                0x000002f0      0x178 Drivers\introspec.od
 .debug_aranges
                0x00000468       0x28 Drivers\dsm2.od
 .debug_aranges
                0x00000490       0x48 Drivers\SpinningLidar.od
 .debug_aranges
                0x000004d8       0x50 Drivers\Odometer.od
 .debug_aranges
                0x00000528       0x20 Drivers\MadgwickFilter.od
 .debug_aranges
                0x00000548      0x118 Drivers\MPU9250.od
 .debug_aranges
                0x00000660       0x48 Drivers\LidarPWM.od
 .debug_aranges
                0x000006a8       0x58 Drivers\LCD.od
 .debug_aranges
                0x00000700       0xa8 Drivers\IMUSetupAndSample.od
 .debug_aranges
                0x000007a8       0x28 htmldata.od
 .debug_aranges
                0x000007d0       0x38 C:\Nburn/lib/DBNANO54415.a(serial.od)
 .debug_aranges
                0x00000808       0x20 C:\Nburn/lib/DBNANO54415.a(pins.od)
 .debug_aranges
                0x00000828       0x20 C:\Nburn/lib/DBNANO54415.a(SimpleAD.od)
 .debug_aranges
                0x00000848       0x40 C:\Nburn/lib/DBNANO54415.a(FlashOps.od)
 .debug_aranges
                0x00000888       0x80 C:\Nburn/lib/DBNANO54415.a(HiResTimer.od)
 .debug_aranges
                0x00000908       0x20 C:\Nburn/lib/DBNANO54415.a(netwait.od)
 .debug_aranges
                0x00000928       0x30 C:\Nburn/lib/DBNANO54415.a(pin_irq.od)
 .debug_aranges
                0x00000958       0x68 C:\Nburn/lib/DBNANO54415.a(dbethernet.od)
 .debug_aranges
                0x000009c0       0x20 C:\Nburn/lib/DBNANO54415.a(bsp.od)
 .debug_aranges
                0x000009e0       0x20 C:\Nburn/lib/DBNANO54415.a(localio.od)
 .debug_aranges
                0x00000a00       0x20 C:\Nburn/lib/DBNANO54415.a(userparam.od)
 .debug_aranges
                0x00000a20       0x60 C:\Nburn/lib/DBNANO54415.a(multichanneli2c.od)
 .debug_aranges
                0x00000a80       0x30 C:\Nburn/lib/DBNANO54415.a(defpins.od)
 .debug_aranges
                0x00000ab0       0x88 C:\Nburn/lib/DBNANO54415.a(ethernet.od)
 .debug_aranges
                0x00000b38       0x20 C:\Nburn/lib/DBNANO54415.a(etherprint.od)
 .debug_aranges
                0x00000b58       0x20 C:\Nburn/lib/DBNANO54415.a(emulticast.od)
 .debug_aranges
                0x00000b78       0x20 C:\Nburn/lib/DBNANO54415.a(SPIFlash.od)
 .debug_aranges
                0x00000b98       0x20 C:\Nburn/lib/DBNANO54415.a(ethernetauxdb.od)
 .debug_aranges
                0x00000bb8       0x40 C:\Nburn/lib/DBNANO54415.a(ether2nd.od)
 .debug_aranges
                0x00000bf8       0x28 C:\Nburn/lib/DBNANO54415.a(etherswitch.od)
 .debug_aranges
                0x00000c20       0x18 C:\Nburn/lib/DBNANO54415.a(weak_autoenet_var.od)
 .debug_aranges
                0x00000c38      0x108 C:\Nburn/lib/DBNANO54415.a(i2c_class.od)
 .debug_aranges
                0x00000d40       0x20 C:\Nburn/lib/DBNetBurner.a(main.od)
 .debug_aranges
                0x00000d60       0x20 C:\Nburn/lib/DBNetBurner.a(ucosmcfc.od)
 .debug_aranges
                0x00000d80       0x40 C:\Nburn/lib/DBNetBurner.a(ucos.od)
 .debug_aranges
                0x00000dc0       0x20 C:\Nburn/lib/DBNetBurner.a(cppmain.od)
 .debug_aranges
                0x00000de0       0x20 C:\Nburn/lib/DBNetBurner.a(debugtrap.od)
 .debug_aranges
                0x00000e00       0x40 C:\Nburn/lib/DBNetBurner.a(ucosmain.od)
 .debug_aranges
                0x00000e40       0x20 C:\Nburn/lib/DBNetBurner.a(fileio.od)
 .debug_aranges
                0x00000e60       0x48 C:\Nburn/lib/DBNetBurner.a(system.od)
 .debug_aranges
                0x00000ea8       0x40 C:\Nburn/lib/DBNetBurner.a(utils.od)
 .debug_aranges
                0x00000ee8       0xf0 C:\Nburn/lib/DBNetBurner.a(ip.od)
 .debug_aranges
                0x00000fd8       0x70 C:\Nburn/lib/DBNetBurner.a(buffers.od)
 .debug_aranges
                0x00001048      0x110 C:\Nburn/lib/DBNetBurner.a(arp.od)
 .debug_aranges
                0x00001158       0xd0 C:\Nburn/lib/DBNetBurner.a(udp.od)
 .debug_aranges
                0x00001228       0x68 C:\Nburn/lib/DBNetBurner.a(ftpd.od)
 .debug_aranges
                0x00001290      0x228 C:\Nburn/lib/DBNetBurner.a(tcp.od)
 .debug_aranges
                0x000014b8       0x20 C:\Nburn/lib/DBNetBurner.a(extraio.od)
 .debug_aranges
                0x000014d8       0x60 C:\Nburn/lib/DBNetBurner.a(http.od)
 .debug_aranges
                0x00001538       0x30 C:\Nburn/lib/DBNetBurner.a(httpinternal.od)
 .debug_aranges
                0x00001568       0x20 C:\Nburn/lib/DBNetBurner.a(httpstricmp.od)
 .debug_aranges
                0x00001588       0x38 C:\Nburn/lib/DBNetBurner.a(htmldecomp.od)
 .debug_aranges
                0x000015c0       0x58 C:\Nburn/lib/DBNetBurner.a(iosys.od)
 .debug_aranges
                0x00001618       0x20 C:\Nburn/lib/DBNetBurner.a(new_ops.od)
 .debug_aranges
                0x00001638       0x48 C:\Nburn/lib/DBNetBurner.a(autoip.od)
 .debug_aranges
                0x00001680      0x120 C:\Nburn/lib/DBNetBurner.a(dhcpc.od)
 .debug_aranges
                0x000017a0       0x20 C:\Nburn/lib/DBNetBurner.a(netrx.od)
 .debug_aranges
                0x000017c0       0x38 C:\Nburn/lib/DBNetBurner.a(netinterface.od)
 .debug_aranges
                0x000017f8       0x40 C:\Nburn/lib/DBNetBurner.a(multiconfig.od)
 .debug_aranges
                0x00001838       0x20 C:\Nburn/lib/DBNetBurner.a(taskmon.od)
 .debug_aranges
                0x00001858       0x20 C:\Nburn/lib/DBNetBurner.a(smarttrap.od)
 .debug_aranges
                0x00001878       0x38 C:\Nburn/lib/DBNetBurner.a(autoupdate.od)
 .debug_aranges
                0x000018b0       0x30 C:\Nburn/lib/DBNetBurner.a(device.od)
 .debug_aranges
                0x000018e0       0x20 C:\Nburn/lib/DBNetBurner.a(base64.od)
 .debug_aranges
                0x00001900       0x30 C:\Nburn/lib/DBNetBurner.a(nbiprintf.od)
 .debug_aranges
                0x00001930       0x20 C:\Nburn/lib/DBNetBurner.a(nbprintf.od)
 .debug_aranges
                0x00001950       0x20 C:\Nburn/lib/DBNetBurner.a(nbsiprintf.od)
 .debug_aranges
                0x00001970       0x20 C:\Nburn/lib/DBNetBurner.a(nbsprintf.od)
 .debug_aranges
                0x00001990       0x20 C:\Nburn/lib/DBNetBurner.a(weakumain.od)
 .debug_aranges
                0x000019b0       0x20 C:\Nburn/lib/DBNetBurner.a(cusermain.od)
 .debug_aranges
                0x000019d0       0x20 C:\Nburn/lib/DBNetBurner.a(fdprintf.od)
 .debug_aranges
                0x000019f0       0x18 C:\Nburn/lib/DBNetBurner.a(websocket_handler.od)
 .debug_aranges
                0x00001a08       0x68 C:\Nburn/lib/DBNetBurner.a(ipv6_addr.od)
 .debug_aranges
                0x00001a70       0xa0 C:\Nburn/lib/DBNetBurner.a(ipv6_tcp.od)
 .debug_aranges
                0x00001b10      0x268 C:\Nburn/lib/DBNetBurner.a(ipv6_ip.od)
 .debug_aranges
                0x00001d78       0xa8 C:\Nburn/lib/DBNetBurner.a(ipv6_udp.od)
 .debug_aranges
                0x00001e20       0x20 C:\Nburn/lib/DBNetBurner.a(ipv6_printhelp.od)
 .debug_aranges
                0x00001e40       0x58 C:\Nburn/lib/DBNetBurner.a(ipv6_extensions.od)
 .debug_aranges
                0x00001e98       0x98 C:\Nburn/lib/DBNetBurner.a(ipv6_multicast.od)
 .debug_aranges
                0x00001f30       0x58 C:\Nburn/lib/DBNetBurner.a(ipv6_show.od)
 .debug_aranges
                0x00001f88       0xd0 C:\Nburn/lib/DBNetBurner.a(ipv6_dhcp.od)
 .debug_aranges
                0x00002058      0x100 C:\Nburn/lib/DBNetBurner.a(multicast.od)
 .debug_aranges
                0x00002158       0x48 C:\Nburn/lib/DBNetBurner.a(random.od)
 .debug_aranges
                0x000021a0       0x20 C:\Nburn/lib/DBNetBurner.a(nbfloatprint.od)
 .debug_aranges
                0x000021c0       0x20 C:\Nburn/lib/DBNetBurner.a(fdiprintf.od)
 .debug_aranges
                0x000021e0       0x30 C:\Nburn/lib/DBNetBurner.a(md5c.od)
 .debug_aranges
                0x00002210       0x28 c:/nburn/gcc-m68k/bin/../m68k-unknown-elf/sysroot/lib/m54455\libstdc++.a(pure.o)
 .debug_aranges
                0x00002238       0x58 c:/nburn/gcc-m68k/bin/../m68k-unknown-elf/sysroot/lib/m54455\libstdc++.a(eh_terminate.o)
 .debug_aranges
                0x00002290       0x20 c:/nburn/gcc-m68k/bin/../m68k-unknown-elf/sysroot/lib/m54455\libstdc++.a(del_op.o)
 .debug_aranges
                0x000022b0       0x20 c:/nburn/gcc-m68k/bin/../m68k-unknown-elf/sysroot/lib/m54455\libstdc++.a(del_ops.o)
 .debug_aranges
                0x000022d0       0x18 c:/nburn/gcc-m68k/bin/../m68k-unknown-elf/sysroot/lib/m54455\libstdc++.a(eh_unex_handler.o)
 .debug_aranges
                0x000022e8       0x18 c:/nburn/gcc-m68k/bin/../m68k-unknown-elf/sysroot/lib/m54455\libstdc++.a(eh_term_handler.o)
 .debug_aranges
                0x00002300       0x38 c:/nburn/gcc-m68k/bin/../m68k-unknown-elf/sysroot/lib/m54455\libstdc++.a(eh_catch.o)
 .debug_aranges
                0x00002338       0x70 c:/nburn/gcc-m68k/bin/../m68k-unknown-elf/sysroot/lib/m54455\libstdc++.a(eh_personality.o)
 .debug_aranges
                0x000023a8       0x68 c:/nburn/gcc-m68k/bin/../m68k-unknown-elf/sysroot/lib/m54455\libstdc++.a(eh_exception.o)
 .debug_aranges
                0x00002410       0x20 c:/nburn/gcc-m68k/bin/../m68k-unknown-elf/sysroot/lib/m54455\libstdc++.a(eh_globals.o)
 .debug_aranges
                0x00002430       0x20 c:/nburn/gcc-m68k/bin/../m68k-unknown-elf/sysroot/lib/m54455\libstdc++.a(vterminate.o)
 .debug_aranges
                0x00002450       0x50 c:/nburn/gcc-m68k/bin/../m68k-unknown-elf/sysroot/lib/m54455\libstdc++.a(eh_alloc.o)
 .debug_aranges
                0x000024a0       0x20 c:/nburn/gcc-m68k/bin/../m68k-unknown-elf/sysroot/lib/m54455\libstdc++.a(cp-demangle.o)
 .debug_aranges
                0x000024c0       0x30 c:/nburn/gcc-m68k/bin/../m68k-unknown-elf/sysroot/lib/m54455\libstdc++.a(eh_throw.o)
 .debug_aranges
                0x000024f0       0x20 c:/nburn/gcc-m68k/bin/../m68k-unknown-elf/sysroot/lib/m54455\libstdc++.a(eh_type.o)
 .debug_aranges
                0x00002510       0x48 c:/nburn/gcc-m68k/bin/../m68k-unknown-elf/sysroot/lib/m54455\libstdc++.a(si_class_type_info.o)
 .debug_aranges
                0x00002558       0x20 c:/nburn/gcc-m68k/bin/../m68k-unknown-elf/sysroot/lib/m54455\libstdc++.a(eh_call.o)
 .debug_aranges
                0x00002578       0x58 c:/nburn/gcc-m68k/bin/../m68k-unknown-elf/sysroot/lib/m54455\libstdc++.a(class_type_info.o)
 .debug_aranges
                0x000025d0       0x40 c:/nburn/gcc-m68k/bin/../m68k-unknown-elf/sysroot/lib/m54455\libstdc++.a(tinfo.o)
 .debug_aranges
                0x00002610       0x20 c:/nburn/gcc-m68k/bin/../m68k-unknown-elf/sysroot/lib/m54455\libm.a(lib_a-s_cos.o)
 .debug_aranges
                0x00002630       0x20 c:/nburn/gcc-m68k/bin/../m68k-unknown-elf/sysroot/lib/m54455\libm.a(lib_a-s_fpclassify.o)
 .debug_aranges
                0x00002650       0x20 c:/nburn/gcc-m68k/bin/../m68k-unknown-elf/sysroot/lib/m54455\libm.a(lib_a-s_modf.o)
 .debug_aranges
                0x00002670       0x20 c:/nburn/gcc-m68k/bin/../m68k-unknown-elf/sysroot/lib/m54455\libm.a(lib_a-s_round.o)
 .debug_aranges
                0x00002690       0x20 c:/nburn/gcc-m68k/bin/../m68k-unknown-elf/sysroot/lib/m54455\libm.a(lib_a-s_sin.o)
 .debug_aranges
                0x000026b0       0x20 c:/nburn/gcc-m68k/bin/../m68k-unknown-elf/sysroot/lib/m54455\libm.a(lib_a-w_atan2.o)
 .debug_aranges
                0x000026d0       0x20 c:/nburn/gcc-m68k/bin/../m68k-unknown-elf/sysroot/lib/m54455\libm.a(lib_a-w_pow.o)
 .debug_aranges
                0x000026f0       0x20 c:/nburn/gcc-m68k/bin/../m68k-unknown-elf/sysroot/lib/m54455\libm.a(lib_a-w_sqrt.o)
 .debug_aranges
                0x00002710       0x20 c:/nburn/gcc-m68k/bin/../m68k-unknown-elf/sysroot/lib/m54455\libm.a(lib_a-wf_asin.o)
 .debug_aranges
                0x00002730       0x20 c:/nburn/gcc-m68k/bin/../m68k-unknown-elf/sysroot/lib/m54455\libm.a(lib_a-wf_atan2.o)
 .debug_aranges
                0x00002750       0x20 c:/nburn/gcc-m68k/bin/../m68k-unknown-elf/sysroot/lib/m54455\libm.a(lib_a-wf_sqrt.o)
 .debug_aranges
                0x00002770       0x20 c:/nburn/gcc-m68k/bin/../m68k-unknown-elf/sysroot/lib/m54455\libm.a(lib_a-e_atan2.o)
 .debug_aranges
                0x00002790       0x20 c:/nburn/gcc-m68k/bin/../m68k-unknown-elf/sysroot/lib/m54455\libm.a(lib_a-e_pow.o)
 .debug_aranges
                0x000027b0       0x20 c:/nburn/gcc-m68k/bin/../m68k-unknown-elf/sysroot/lib/m54455\libm.a(lib_a-e_rem_pio2.o)
 .debug_aranges
                0x000027d0       0x20 c:/nburn/gcc-m68k/bin/../m68k-unknown-elf/sysroot/lib/m54455\libm.a(lib_a-e_sqrt.o)
 .debug_aranges
                0x000027f0       0x20 c:/nburn/gcc-m68k/bin/../m68k-unknown-elf/sysroot/lib/m54455\libm.a(lib_a-ef_asin.o)
 .debug_aranges
                0x00002810       0x20 c:/nburn/gcc-m68k/bin/../m68k-unknown-elf/sysroot/lib/m54455\libm.a(lib_a-ef_atan2.o)
 .debug_aranges
                0x00002830       0x20 c:/nburn/gcc-m68k/bin/../m68k-unknown-elf/sysroot/lib/m54455\libm.a(lib_a-ef_sqrt.o)
 .debug_aranges
                0x00002850       0x20 c:/nburn/gcc-m68k/bin/../m68k-unknown-elf/sysroot/lib/m54455\libm.a(lib_a-k_cos.o)
 .debug_aranges
                0x00002870       0x20 c:/nburn/gcc-m68k/bin/../m68k-unknown-elf/sysroot/lib/m54455\libm.a(lib_a-k_rem_pio2.o)
 .debug_aranges
                0x00002890       0x20 c:/nburn/gcc-m68k/bin/../m68k-unknown-elf/sysroot/lib/m54455\libm.a(lib_a-k_sin.o)
 .debug_aranges
                0x000028b0       0x20 c:/nburn/gcc-m68k/bin/../m68k-unknown-elf/sysroot/lib/m54455\libm.a(lib_a-s_atan.o)
 .debug_aranges
                0x000028d0       0x20 c:/nburn/gcc-m68k/bin/../m68k-unknown-elf/sysroot/lib/m54455\libm.a(lib_a-s_fabs.o)
 .debug_aranges
                0x000028f0       0x20 c:/nburn/gcc-m68k/bin/../m68k-unknown-elf/sysroot/lib/m54455\libm.a(lib_a-s_finite.o)
 .debug_aranges
                0x00002910       0x20 c:/nburn/gcc-m68k/bin/../m68k-unknown-elf/sysroot/lib/m54455\libm.a(lib_a-s_floor.o)
 .debug_aranges
                0x00002930       0x18 c:/nburn/gcc-m68k/bin/../m68k-unknown-elf/sysroot/lib/m54455\libm.a(lib_a-s_lib_ver.o)
 .debug_aranges
                0x00002948       0x20 c:/nburn/gcc-m68k/bin/../m68k-unknown-elf/sysroot/lib/m54455\libm.a(lib_a-s_matherr.o)
 .debug_aranges
                0x00002968       0x20 c:/nburn/gcc-m68k/bin/../m68k-unknown-elf/sysroot/lib/m54455\libm.a(lib_a-s_nan.o)
 .debug_aranges
                0x00002988       0x20 c:/nburn/gcc-m68k/bin/../m68k-unknown-elf/sysroot/lib/m54455\libm.a(lib_a-s_rint.o)
 .debug_aranges
                0x000029a8       0x20 c:/nburn/gcc-m68k/bin/../m68k-unknown-elf/sysroot/lib/m54455\libm.a(lib_a-s_scalbn.o)
 .debug_aranges
                0x000029c8       0x20 c:/nburn/gcc-m68k/bin/../m68k-unknown-elf/sysroot/lib/m54455\libm.a(lib_a-sf_atan.o)
 .debug_aranges
                0x000029e8       0x20 c:/nburn/gcc-m68k/bin/../m68k-unknown-elf/sysroot/lib/m54455\libm.a(lib_a-sf_fabs.o)
 .debug_aranges
                0x00002a08       0x20 c:/nburn/gcc-m68k/bin/../m68k-unknown-elf/sysroot/lib/m54455\libm.a(lib_a-sf_fpclassify.o)
 .debug_aranges
                0x00002a28       0x20 c:/nburn/gcc-m68k/bin/../m68k-unknown-elf/sysroot/lib/m54455\libm.a(lib_a-s_copysign.o)
 .debug_aranges
                0x00002a48       0x20 c:/nburn/gcc-m68k/bin/../lib/gcc/m68k-unknown-elf/5.2.0/m54455\libgcc.a(_double.o)
 .debug_aranges
                0x00002a68       0x20 c:/nburn/gcc-m68k/bin/../lib/gcc/m68k-unknown-elf/5.2.0/m54455\libgcc.a(_float.o)
 .debug_aranges
                0x00002a88       0x20 c:/nburn/gcc-m68k/bin/../lib/gcc/m68k-unknown-elf/5.2.0/m54455\libgcc.a(_floatex.o)
 .debug_aranges
                0x00002aa8       0x20 c:/nburn/gcc-m68k/bin/../lib/gcc/m68k-unknown-elf/5.2.0/m54455\libgcc.a(_eqdf2.o)
 .debug_aranges
                0x00002ac8       0x20 c:/nburn/gcc-m68k/bin/../lib/gcc/m68k-unknown-elf/5.2.0/m54455\libgcc.a(_nedf2.o)
 .debug_aranges
                0x00002ae8       0x20 c:/nburn/gcc-m68k/bin/../lib/gcc/m68k-unknown-elf/5.2.0/m54455\libgcc.a(_gtdf2.o)
 .debug_aranges
                0x00002b08       0x20 c:/nburn/gcc-m68k/bin/../lib/gcc/m68k-unknown-elf/5.2.0/m54455\libgcc.a(_gedf2.o)
 .debug_aranges
                0x00002b28       0x20 c:/nburn/gcc-m68k/bin/../lib/gcc/m68k-unknown-elf/5.2.0/m54455\libgcc.a(_ltdf2.o)
 .debug_aranges
                0x00002b48       0x20 c:/nburn/gcc-m68k/bin/../lib/gcc/m68k-unknown-elf/5.2.0/m54455\libgcc.a(_ledf2.o)
 .debug_aranges
                0x00002b68       0x20 c:/nburn/gcc-m68k/bin/../lib/gcc/m68k-unknown-elf/5.2.0/m54455\libgcc.a(_eqsf2.o)
 .debug_aranges
                0x00002b88       0x20 c:/nburn/gcc-m68k/bin/../lib/gcc/m68k-unknown-elf/5.2.0/m54455\libgcc.a(_gtsf2.o)
 .debug_aranges
                0x00002ba8       0x20 c:/nburn/gcc-m68k/bin/../lib/gcc/m68k-unknown-elf/5.2.0/m54455\libgcc.a(_ltsf2.o)
 .debug_aranges
                0x00002bc8       0x20 c:/nburn/gcc-m68k/bin/../lib/gcc/m68k-unknown-elf/5.2.0/m54455\libgcc.a(_muldi3.o)
 .debug_aranges
                0x00002be8       0x20 c:/nburn/gcc-m68k/bin/../lib/gcc/m68k-unknown-elf/5.2.0/m54455\libgcc.a(_fixunsdfsi.o)
 .debug_aranges
                0x00002c08       0x20 c:/nburn/gcc-m68k/bin/../lib/gcc/m68k-unknown-elf/5.2.0/m54455\libgcc.a(_fixunsdfdi.o)
 .debug_aranges
                0x00002c28       0x20 c:/nburn/gcc-m68k/bin/../lib/gcc/m68k-unknown-elf/5.2.0/m54455\libgcc.a(_udivdi3.o)
 .debug_aranges
                0x00002c48       0x20 c:/nburn/gcc-m68k/bin/../lib/gcc/m68k-unknown-elf/5.2.0/m54455\libgcc.a(_umoddi3.o)
 .debug_aranges
                0x00002c68       0x20 c:/nburn/gcc-m68k/bin/../lib/gcc/m68k-unknown-elf/5.2.0/m54455\libgcc.a(fpgnulib.o)
 .debug_aranges
                0x00002c88       0x20 c:/nburn/gcc-m68k/bin/../lib/gcc/m68k-unknown-elf/5.2.0/m54455\libgcc.a(unwind-dw2.o)
 .debug_aranges
                0x00002ca8       0x20 c:/nburn/gcc-m68k/bin/../lib/gcc/m68k-unknown-elf/5.2.0/m54455\libgcc.a(unwind-dw2-fde.o)
 .debug_aranges
                0x00002cc8       0x20 c:/nburn/gcc-m68k/bin/../m68k-unknown-elf/sysroot/lib/m54455\libc.a(lib_a-abort.o)
 .debug_aranges
                0x00002ce8       0x20 c:/nburn/gcc-m68k/bin/../m68k-unknown-elf/sysroot/lib/m54455\libc.a(lib_a-atexit.o)
 .debug_aranges
                0x00002d08       0x20 c:/nburn/gcc-m68k/bin/../m68k-unknown-elf/sysroot/lib/m54455\libc.a(lib_a-atoi.o)
 .debug_aranges
                0x00002d28       0x20 c:/nburn/gcc-m68k/bin/../m68k-unknown-elf/sysroot/lib/m54455\libc.a(lib_a-bsearch.o)
 .debug_aranges
                0x00002d48       0x20 c:/nburn/gcc-m68k/bin/../m68k-unknown-elf/sysroot/lib/m54455\libc.a(lib_a-bzero.o)
 .debug_aranges
                0x00002d68       0x20 c:/nburn/gcc-m68k/bin/../m68k-unknown-elf/sysroot/lib/m54455\libc.a(lib_a-cxa_atexit.o)
 .debug_aranges
                0x00002d88       0x20 c:/nburn/gcc-m68k/bin/../m68k-unknown-elf/sysroot/lib/m54455\libc.a(lib_a-errno.o)
 .debug_aranges
                0x00002da8       0x20 c:/nburn/gcc-m68k/bin/../m68k-unknown-elf/sysroot/lib/m54455\libc.a(lib_a-fputc.o)
 .debug_aranges
                0x00002dc8       0x20 c:/nburn/gcc-m68k/bin/../m68k-unknown-elf/sysroot/lib/m54455\libc.a(lib_a-fputs.o)
 .debug_aranges
                0x00002de8       0x20 c:/nburn/gcc-m68k/bin/../m68k-unknown-elf/sysroot/lib/m54455\libc.a(lib_a-fvwrite.o)
 .debug_aranges
                0x00002e08       0x20 c:/nburn/gcc-m68k/bin/../m68k-unknown-elf/sysroot/lib/m54455\libc.a(lib_a-fwrite.o)
 .debug_aranges
                0x00002e28       0x18 c:/nburn/gcc-m68k/bin/../m68k-unknown-elf/sysroot/lib/m54455\libc.a(lib_a-impure.o)
 .debug_aranges
                0x00002e40       0x20 c:/nburn/gcc-m68k/bin/../m68k-unknown-elf/sysroot/lib/m54455\libc.a(lib_a-isalnum.o)
 .debug_aranges
                0x00002e60       0x20 c:/nburn/gcc-m68k/bin/../m68k-unknown-elf/sysroot/lib/m54455\libc.a(lib_a-isspace.o)
 .debug_aranges
                0x00002e80       0x20 c:/nburn/gcc-m68k/bin/../m68k-unknown-elf/sysroot/lib/m54455\libc.a(lib_a-malloc.o)
 .debug_aranges
                0x00002ea0       0x20 c:/nburn/gcc-m68k/bin/../m68k-unknown-elf/sysroot/lib/m54455\libc.a(lib_a-mallocr.o)
 .debug_aranges
                0x00002ec0       0x20 c:/nburn/gcc-m68k/bin/../m68k-unknown-elf/sysroot/lib/m54455\libc.a(lib_a-memchr.o)
 .debug_aranges
                0x00002ee0       0x20 c:/nburn/gcc-m68k/bin/../m68k-unknown-elf/sysroot/lib/m54455\libc.a(lib_a-memcmp.o)
 .debug_aranges
                0x00002f00       0x20 c:/nburn/gcc-m68k/bin/../m68k-unknown-elf/sysroot/lib/m54455\libc.a(lib_a-memmove.o)
 .debug_aranges
                0x00002f20       0x20 c:/nburn/gcc-m68k/bin/../m68k-unknown-elf/sysroot/lib/m54455\libc.a(lib_a-putc.o)
 .debug_aranges
                0x00002f40       0x20 c:/nburn/gcc-m68k/bin/../m68k-unknown-elf/sysroot/lib/m54455\libc.a(lib_a-puts.o)
 .debug_aranges
                0x00002f60       0x20 c:/nburn/gcc-m68k/bin/../m68k-unknown-elf/sysroot/lib/m54455\libc.a(lib_a-rand.o)
 .debug_aranges
                0x00002f80       0x20 c:/nburn/gcc-m68k/bin/../m68k-unknown-elf/sysroot/lib/m54455\libc.a(lib_a-realloc.o)
 .debug_aranges
                0x00002fa0       0x20 c:/nburn/gcc-m68k/bin/../m68k-unknown-elf/sysroot/lib/m54455\libc.a(lib_a-reallocr.o)
 .debug_aranges
                0x00002fc0       0x20 c:/nburn/gcc-m68k/bin/../m68k-unknown-elf/sysroot/lib/m54455\libc.a(lib_a-rget.o)
 .debug_aranges
                0x00002fe0       0x20 c:/nburn/gcc-m68k/bin/../m68k-unknown-elf/sysroot/lib/m54455\libc.a(lib_a-setjmp.o)
 .debug_aranges
                0x00003000       0x20 c:/nburn/gcc-m68k/bin/../m68k-unknown-elf/sysroot/lib/m54455\libc.a(lib_a-setvbuf.o)
 .debug_aranges
                0x00003020       0x20 c:/nburn/gcc-m68k/bin/../m68k-unknown-elf/sysroot/lib/m54455\libc.a(lib_a-signal.o)
 .debug_aranges
                0x00003040       0x20 c:/nburn/gcc-m68k/bin/../m68k-unknown-elf/sysroot/lib/m54455\libc.a(lib_a-signalr.o)
 .debug_aranges
                0x00003060       0x20 c:/nburn/gcc-m68k/bin/../m68k-unknown-elf/sysroot/lib/m54455\libc.a(lib_a-strcat.o)
 .debug_aranges
                0x00003080       0x20 c:/nburn/gcc-m68k/bin/../m68k-unknown-elf/sysroot/lib/m54455\libc.a(lib_a-strcmp.o)
 .debug_aranges
                0x000030a0       0x20 c:/nburn/gcc-m68k/bin/../m68k-unknown-elf/sysroot/lib/m54455\libc.a(lib_a-strcpy.o)
 .debug_aranges
                0x000030c0       0x20 c:/nburn/gcc-m68k/bin/../m68k-unknown-elf/sysroot/lib/m54455\libc.a(lib_a-strlen.o)
 .debug_aranges
                0x000030e0       0x20 c:/nburn/gcc-m68k/bin/../m68k-unknown-elf/sysroot/lib/m54455\libc.a(lib_a-strncmp.o)
 .debug_aranges
                0x00003100       0x20 c:/nburn/gcc-m68k/bin/../m68k-unknown-elf/sysroot/lib/m54455\libc.a(lib_a-strncpy.o)
 .debug_aranges
                0x00003120       0x20 c:/nburn/gcc-m68k/bin/../m68k-unknown-elf/sysroot/lib/m54455\libc.a(lib_a-strstr.o)
 .debug_aranges
                0x00003140       0x20 c:/nburn/gcc-m68k/bin/../m68k-unknown-elf/sysroot/lib/m54455\libc.a(lib_a-strtol.o)
 .debug_aranges
                0x00003160       0x20 c:/nburn/gcc-m68k/bin/../m68k-unknown-elf/sysroot/lib/m54455\libc.a(lib_a-tolower.o)
 .debug_aranges
                0x00003180       0x20 c:/nburn/gcc-m68k/bin/../m68k-unknown-elf/sysroot/lib/m54455\libc.a(lib_a-toupper.o)
 .debug_aranges
                0x000031a0       0x20 c:/nburn/gcc-m68k/bin/../m68k-unknown-elf/sysroot/lib/m54455\libc.a(lib_a-wbuf.o)
 .debug_aranges
                0x000031c0       0x20 c:/nburn/gcc-m68k/bin/../m68k-unknown-elf/sysroot/lib/m54455\libc.a(lib_a-wsetup.o)
 .debug_aranges
                0x000031e0       0x20 c:/nburn/gcc-m68k/bin/../m68k-unknown-elf/sysroot/lib/m54455\libc.a(lib_a-__atexit.o)
 .debug_aranges
                0x00003200       0x18 c:/nburn/gcc-m68k/bin/../m68k-unknown-elf/sysroot/lib/m54455\libc.a(lib_a-ctype_.o)
 .debug_aranges
                0x00003218       0x20 c:/nburn/gcc-m68k/bin/../m68k-unknown-elf/sysroot/lib/m54455\libc.a(lib_a-fflush.o)
 .debug_aranges
                0x00003238       0x20 c:/nburn/gcc-m68k/bin/../m68k-unknown-elf/sysroot/lib/m54455\libc.a(lib_a-findfp.o)
 .debug_aranges
                0x00003258       0x20 c:/nburn/gcc-m68k/bin/../m68k-unknown-elf/sysroot/lib/m54455\libc.a(lib_a-freer.o)
 .debug_aranges
                0x00003278       0x20 c:/nburn/gcc-m68k/bin/../m68k-unknown-elf/sysroot/lib/m54455\libc.a(lib_a-fwalk.o)
 .debug_aranges
                0x00003298       0x20 c:/nburn/gcc-m68k/bin/../m68k-unknown-elf/sysroot/lib/m54455\libc.a(lib_a-makebuf.o)
 .debug_aranges
                0x000032b8       0x20 c:/nburn/gcc-m68k/bin/../m68k-unknown-elf/sysroot/lib/m54455\libc.a(lib_a-refill.o)
 .debug_aranges
                0x000032d8       0x20 c:/nburn/gcc-m68k/bin/../m68k-unknown-elf/sysroot/lib/m54455\libc.a(lib_a-stdio.o)
 .debug_aranges
                0x000032f8       0x20 c:/nburn/gcc-m68k/bin/../m68k-unknown-elf/sysroot/lib/m54455\libc.a(lib_a-writer.o)
 .debug_aranges
                0x00003318       0x20 c:/nburn/gcc-m68k/bin/../m68k-unknown-elf/sysroot/lib/m54455\libc.a(lib_a-closer.o)
 .debug_aranges
                0x00003338       0x20 c:/nburn/gcc-m68k/bin/../m68k-unknown-elf/sysroot/lib/m54455\libc.a(lib_a-fclose.o)
 .debug_aranges
                0x00003358       0x20 c:/nburn/gcc-m68k/bin/../m68k-unknown-elf/sysroot/lib/m54455\libc.a(lib_a-fstatr.o)
 .debug_aranges
                0x00003378       0x20 c:/nburn/gcc-m68k/bin/../m68k-unknown-elf/sysroot/lib/m54455\libc.a(lib_a-isattyr.o)
 .debug_aranges
                0x00003398       0x20 c:/nburn/gcc-m68k/bin/../m68k-unknown-elf/sysroot/lib/m54455\libc.a(lib_a-lseekr.o)
 .debug_aranges
                0x000033b8       0x20 c:/nburn/gcc-m68k/bin/../m68k-unknown-elf/sysroot/lib/m54455\libc.a(lib_a-readr.o)

.debug_pubnames
 *(.debug_pubnames)

.debug_info     0x00000000    0xfe79d
 *(.debug_info)
 .debug_info    0x00000000     0x19ca main.od
 .debug_info    0x000019ca      0x436 Utility.od
 .debug_info    0x00001e00      0xd91 Nav.od
 .debug_info    0x00002b91     0x63b7 Logger.od
 .debug_info    0x00008f48     0x43c6 Drivers\servodrive.od
 .debug_info    0x0000d30e     0x172d Drivers\pwm.od
 .debug_info    0x0000ea3b     0x18c6 Drivers\introspec.od
 .debug_info    0x00010301     0x4486 Drivers\dsm2.od
 .debug_info    0x00014787      0x40c Drivers\SpinningLidar.od
 .debug_info    0x00014b93     0x3e56 Drivers\Odometer.od
 .debug_info    0x000189e9      0x341 Drivers\MadgwickFilter.od
 .debug_info    0x00018d2a     0x1979 Drivers\MPU9250.od
 .debug_info    0x0001a6a3     0x3c94 Drivers\LidarPWM.od
 .debug_info    0x0001e337      0x451 Drivers\LCD.od
 .debug_info    0x0001e788     0x1872 Drivers\IMUSetupAndSample.od
 .debug_info    0x0001fffa      0x2ba htmldata.od
 .debug_info    0x000202b4     0x6cc6 C:\Nburn/lib/DBNANO54415.a(serial.od)
 .debug_info    0x00026f7a     0x155c C:\Nburn/lib/DBNANO54415.a(pins.od)
 .debug_info    0x000284d6     0x3bcd C:\Nburn/lib/DBNANO54415.a(SimpleAD.od)
 .debug_info    0x0002c0a3     0x108c C:\Nburn/lib/DBNANO54415.a(FlashOps.od)
 .debug_info    0x0002d12f     0x49fe C:\Nburn/lib/DBNANO54415.a(HiResTimer.od)
 .debug_info    0x00031b2d       0xbc C:\Nburn/lib/DBNANO54415.a(netwait.od)
 .debug_info    0x00031be9     0x3f62 C:\Nburn/lib/DBNANO54415.a(pin_irq.od)
 .debug_info    0x00035b4b     0x78cb C:\Nburn/lib/DBNANO54415.a(dbethernet.od)
 .debug_info    0x0003d416     0x5762 C:\Nburn/lib/DBNANO54415.a(bsp.od)
 .debug_info    0x00042b78     0x4f7b C:\Nburn/lib/DBNANO54415.a(localio.od)
 .debug_info    0x00047af3      0x13f C:\Nburn/lib/DBNANO54415.a(userparam.od)
 .debug_info    0x00047c32     0x15a9 C:\Nburn/lib/DBNANO54415.a(multichanneli2c.od)
 .debug_info    0x000491db      0x37c C:\Nburn/lib/DBNANO54415.a(defpins.od)
 .debug_info    0x00049557     0x763b C:\Nburn/lib/DBNANO54415.a(ethernet.od)
 .debug_info    0x00050b92     0x59c9 C:\Nburn/lib/DBNANO54415.a(etherprint.od)
 .debug_info    0x0005655b     0x4b0b C:\Nburn/lib/DBNANO54415.a(emulticast.od)
 .debug_info    0x0005b066     0x524f C:\Nburn/lib/DBNANO54415.a(SPIFlash.od)
 .debug_info    0x000602b5      0x2f1 C:\Nburn/lib/DBNANO54415.a(ethernetauxdb.od)
 .debug_info    0x000605a6     0x1f0a C:\Nburn/lib/DBNANO54415.a(ether2nd.od)
 .debug_info    0x000624b0     0x5178 C:\Nburn/lib/DBNANO54415.a(etherswitch.od)
 .debug_info    0x00067628       0x3c C:\Nburn/lib/DBNANO54415.a(weak_autoenet_var.od)
 .debug_info    0x00067664     0x5ee1 C:\Nburn/lib/DBNANO54415.a(i2c_class.od)
 .debug_info    0x0006d545       0xb3 C:\Nburn/lib/DBNetBurner.a(main.od)
 .debug_info    0x0006d5f8      0x3d9 C:\Nburn/lib/DBNetBurner.a(ucosmcfc.od)
 .debug_info    0x0006d9d1     0x15dc C:\Nburn/lib/DBNetBurner.a(ucos.od)
 .debug_info    0x0006efad       0xf9 C:\Nburn/lib/DBNetBurner.a(cppmain.od)
 .debug_info    0x0006f0a6      0x1d0 C:\Nburn/lib/DBNetBurner.a(debugtrap.od)
 .debug_info    0x0006f276      0xfc9 C:\Nburn/lib/DBNetBurner.a(ucosmain.od)
 .debug_info    0x0007023f     0x1013 C:\Nburn/lib/DBNetBurner.a(fileio.od)
 .debug_info    0x00071252     0x13f9 C:\Nburn/lib/DBNetBurner.a(system.od)
 .debug_info    0x0007264b     0x1b97 C:\Nburn/lib/DBNetBurner.a(utils.od)
 .debug_info    0x000741e2     0x2e6d C:\Nburn/lib/DBNetBurner.a(ip.od)
 .debug_info    0x0007704f     0x1f5d C:\Nburn/lib/DBNetBurner.a(buffers.od)
 .debug_info    0x00078fac     0x3246 C:\Nburn/lib/DBNetBurner.a(arp.od)
 .debug_info    0x0007c1f2     0x3e92 C:\Nburn/lib/DBNetBurner.a(udp.od)
 .debug_info    0x00080084     0x1832 C:\Nburn/lib/DBNetBurner.a(ftpd.od)
 .debug_info    0x000818b6     0xa197 C:\Nburn/lib/DBNetBurner.a(tcp.od)
 .debug_info    0x0008ba4d      0x526 C:\Nburn/lib/DBNetBurner.a(extraio.od)
 .debug_info    0x0008bf73     0x118b C:\Nburn/lib/DBNetBurner.a(http.od)
 .debug_info    0x0008d0fe     0x1735 C:\Nburn/lib/DBNetBurner.a(httpinternal.od)
 .debug_info    0x0008e833       0xc9 C:\Nburn/lib/DBNetBurner.a(httpstricmp.od)
 .debug_info    0x0008e8fc      0xd05 C:\Nburn/lib/DBNetBurner.a(htmldecomp.od)
 .debug_info    0x0008f601      0xe3b C:\Nburn/lib/DBNetBurner.a(iosys.od)
 .debug_info    0x0009043c      0x49c C:\Nburn/lib/DBNetBurner.a(new_ops.od)
 .debug_info    0x000908d8     0x198c C:\Nburn/lib/DBNetBurner.a(autoip.od)
 .debug_info    0x00092264     0x423d C:\Nburn/lib/DBNetBurner.a(dhcpc.od)
 .debug_info    0x000964a1      0x598 C:\Nburn/lib/DBNetBurner.a(netrx.od)
 .debug_info    0x00096a39     0x1b4f C:\Nburn/lib/DBNetBurner.a(netinterface.od)
 .debug_info    0x00098588     0x161b C:\Nburn/lib/DBNetBurner.a(multiconfig.od)
 .debug_info    0x00099ba3     0x1aa6 C:\Nburn/lib/DBNetBurner.a(taskmon.od)
 .debug_info    0x0009b649      0x602 C:\Nburn/lib/DBNetBurner.a(smarttrap.od)
 .debug_info    0x0009bc4b     0x1c73 C:\Nburn/lib/DBNetBurner.a(autoupdate.od)
 .debug_info    0x0009d8be      0x4a2 C:\Nburn/lib/DBNetBurner.a(device.od)
 .debug_info    0x0009dd60      0x874 C:\Nburn/lib/DBNetBurner.a(base64.od)
 .debug_info    0x0009e5d4     0x18d2 C:\Nburn/lib/DBNetBurner.a(nbiprintf.od)
 .debug_info    0x0009fea6      0x1d2 C:\Nburn/lib/DBNetBurner.a(nbprintf.od)
 .debug_info    0x000a0078      0x266 C:\Nburn/lib/DBNetBurner.a(nbsiprintf.od)
 .debug_info    0x000a02de      0xe86 C:\Nburn/lib/DBNetBurner.a(nbsprintf.od)
 .debug_info    0x000a1164       0x53 C:\Nburn/lib/DBNetBurner.a(weakumain.od)
 .debug_info    0x000a11b7       0x4f C:\Nburn/lib/DBNetBurner.a(cusermain.od)
 .debug_info    0x000a1206      0x1fd C:\Nburn/lib/DBNetBurner.a(fdprintf.od)
 .debug_info    0x000a1403      0xb5e C:\Nburn/lib/DBNetBurner.a(websocket_handler.od)
 .debug_info    0x000a1f61     0x123a C:\Nburn/lib/DBNetBurner.a(ipv6_addr.od)
 .debug_info    0x000a319b     0x513b C:\Nburn/lib/DBNetBurner.a(ipv6_tcp.od)
 .debug_info    0x000a82d6     0x9bab C:\Nburn/lib/DBNetBurner.a(ipv6_ip.od)
 .debug_info    0x000b1e81     0x42fa C:\Nburn/lib/DBNetBurner.a(ipv6_udp.od)
 .debug_info    0x000b617b      0xa85 C:\Nburn/lib/DBNetBurner.a(ipv6_printhelp.od)
 .debug_info    0x000b6c00     0x3f61 C:\Nburn/lib/DBNetBurner.a(ipv6_extensions.od)
 .debug_info    0x000bab61     0x4135 C:\Nburn/lib/DBNetBurner.a(ipv6_multicast.od)
 .debug_info    0x000bec96     0x41fd C:\Nburn/lib/DBNetBurner.a(ipv6_show.od)
 .debug_info    0x000c2e93     0x550f C:\Nburn/lib/DBNetBurner.a(ipv6_dhcp.od)
 .debug_info    0x000c83a2     0x492c C:\Nburn/lib/DBNetBurner.a(multicast.od)
 .debug_info    0x000cccce      0x82a C:\Nburn/lib/DBNetBurner.a(random.od)
 .debug_info    0x000cd4f8      0x7d9 C:\Nburn/lib/DBNetBurner.a(nbfloatprint.od)
 .debug_info    0x000cdcd1      0x172 C:\Nburn/lib/DBNetBurner.a(fdiprintf.od)
 .debug_info    0x000cde43      0x9ed C:\Nburn/lib/DBNetBurner.a(md5c.od)
 .debug_info    0x000ce830      0x193 c:/nburn/gcc-m68k/bin/../m68k-unknown-elf/sysroot/lib/m54455\libstdc++.a(pure.o)
 .debug_info    0x000ce9c3      0xa4b c:/nburn/gcc-m68k/bin/../m68k-unknown-elf/sysroot/lib/m54455\libstdc++.a(eh_terminate.o)
 .debug_info    0x000cf40e      0x45a c:/nburn/gcc-m68k/bin/../m68k-unknown-elf/sysroot/lib/m54455\libstdc++.a(del_op.o)
 .debug_info    0x000cf868       0xb6 c:/nburn/gcc-m68k/bin/../m68k-unknown-elf/sysroot/lib/m54455\libstdc++.a(del_ops.o)
 .debug_info    0x000cf91e      0x119 c:/nburn/gcc-m68k/bin/../m68k-unknown-elf/sysroot/lib/m54455\libstdc++.a(eh_unex_handler.o)
 .debug_info    0x000cfa37      0x119 c:/nburn/gcc-m68k/bin/../m68k-unknown-elf/sysroot/lib/m54455\libstdc++.a(eh_term_handler.o)
 .debug_info    0x000cfb50      0x8fa c:/nburn/gcc-m68k/bin/../m68k-unknown-elf/sysroot/lib/m54455\libstdc++.a(eh_catch.o)
 .debug_info    0x000d044a     0x16b6 c:/nburn/gcc-m68k/bin/../m68k-unknown-elf/sysroot/lib/m54455\libstdc++.a(eh_personality.o)
 .debug_info    0x000d1b00      0x50c c:/nburn/gcc-m68k/bin/../m68k-unknown-elf/sysroot/lib/m54455\libstdc++.a(eh_exception.o)
 .debug_info    0x000d200c      0x6a4 c:/nburn/gcc-m68k/bin/../m68k-unknown-elf/sysroot/lib/m54455\libstdc++.a(eh_globals.o)
 .debug_info    0x000d26b0     0x1132 c:/nburn/gcc-m68k/bin/../m68k-unknown-elf/sysroot/lib/m54455\libstdc++.a(vterminate.o)
 .debug_info    0x000d37e2     0x1046 c:/nburn/gcc-m68k/bin/../m68k-unknown-elf/sysroot/lib/m54455\libstdc++.a(eh_alloc.o)
 .debug_info    0x000d4828     0x4cd2 c:/nburn/gcc-m68k/bin/../m68k-unknown-elf/sysroot/lib/m54455\libstdc++.a(cp-demangle.o)
 .debug_info    0x000d94fa      0x5bd c:/nburn/gcc-m68k/bin/../m68k-unknown-elf/sysroot/lib/m54455\libstdc++.a(eh_throw.o)
 .debug_info    0x000d9ab7      0x482 c:/nburn/gcc-m68k/bin/../m68k-unknown-elf/sysroot/lib/m54455\libstdc++.a(eh_type.o)
 .debug_info    0x000d9f39      0x804 c:/nburn/gcc-m68k/bin/../m68k-unknown-elf/sysroot/lib/m54455\libstdc++.a(si_class_type_info.o)
 .debug_info    0x000da73d      0x719 c:/nburn/gcc-m68k/bin/../m68k-unknown-elf/sysroot/lib/m54455\libstdc++.a(eh_call.o)
 .debug_info    0x000dae56      0xa0a c:/nburn/gcc-m68k/bin/../m68k-unknown-elf/sysroot/lib/m54455\libstdc++.a(class_type_info.o)
 .debug_info    0x000db860      0x4ba c:/nburn/gcc-m68k/bin/../m68k-unknown-elf/sysroot/lib/m54455\libstdc++.a(tinfo.o)
 .debug_info    0x000dbd1a      0x153 c:/nburn/gcc-m68k/bin/../m68k-unknown-elf/sysroot/lib/m54455\libm.a(lib_a-s_cos.o)
 .debug_info    0x000dbe6d      0x13c c:/nburn/gcc-m68k/bin/../m68k-unknown-elf/sysroot/lib/m54455\libm.a(lib_a-s_fpclassify.o)
 .debug_info    0x000dbfa9      0x21c c:/nburn/gcc-m68k/bin/../m68k-unknown-elf/sysroot/lib/m54455\libm.a(lib_a-s_modf.o)
 .debug_info    0x000dc1c5      0x1b6 c:/nburn/gcc-m68k/bin/../m68k-unknown-elf/sysroot/lib/m54455\libm.a(lib_a-s_round.o)
 .debug_info    0x000dc37b      0x153 c:/nburn/gcc-m68k/bin/../m68k-unknown-elf/sysroot/lib/m54455\libm.a(lib_a-s_sin.o)
 .debug_info    0x000dc4ce       0xd1 c:/nburn/gcc-m68k/bin/../m68k-unknown-elf/sysroot/lib/m54455\libm.a(lib_a-w_atan2.o)
 .debug_info    0x000dc59f      0x23a c:/nburn/gcc-m68k/bin/../m68k-unknown-elf/sysroot/lib/m54455\libm.a(lib_a-w_pow.o)
 .debug_info    0x000dc7d9      0x1be c:/nburn/gcc-m68k/bin/../m68k-unknown-elf/sysroot/lib/m54455\libm.a(lib_a-w_sqrt.o)
 .debug_info    0x000dc997      0x1e9 c:/nburn/gcc-m68k/bin/../m68k-unknown-elf/sysroot/lib/m54455\libm.a(lib_a-wf_asin.o)
 .debug_info    0x000dcb80       0xd2 c:/nburn/gcc-m68k/bin/../m68k-unknown-elf/sysroot/lib/m54455\libm.a(lib_a-wf_atan2.o)
 .debug_info    0x000dcc52      0x1bf c:/nburn/gcc-m68k/bin/../m68k-unknown-elf/sysroot/lib/m54455\libm.a(lib_a-wf_sqrt.o)
 .debug_info    0x000dce11      0x2b7 c:/nburn/gcc-m68k/bin/../m68k-unknown-elf/sysroot/lib/m54455\libm.a(lib_a-e_atan2.o)
 .debug_info    0x000dd0c8      0xa1e c:/nburn/gcc-m68k/bin/../m68k-unknown-elf/sysroot/lib/m54455\libm.a(lib_a-e_pow.o)
 .debug_info    0x000ddae6      0x483 c:/nburn/gcc-m68k/bin/../m68k-unknown-elf/sysroot/lib/m54455\libm.a(lib_a-e_rem_pio2.o)
 .debug_info    0x000ddf69      0x223 c:/nburn/gcc-m68k/bin/../m68k-unknown-elf/sysroot/lib/m54455\libm.a(lib_a-e_sqrt.o)
 .debug_info    0x000de18c      0x41c c:/nburn/gcc-m68k/bin/../m68k-unknown-elf/sysroot/lib/m54455\libm.a(lib_a-ef_asin.o)
 .debug_info    0x000de5a8      0x242 c:/nburn/gcc-m68k/bin/../m68k-unknown-elf/sysroot/lib/m54455\libm.a(lib_a-ef_atan2.o)
 .debug_info    0x000de7ea      0x1bb c:/nburn/gcc-m68k/bin/../m68k-unknown-elf/sysroot/lib/m54455\libm.a(lib_a-ef_sqrt.o)
 .debug_info    0x000de9a5      0x2c1 c:/nburn/gcc-m68k/bin/../m68k-unknown-elf/sysroot/lib/m54455\libm.a(lib_a-k_cos.o)
 .debug_info    0x000dec66      0x354 c:/nburn/gcc-m68k/bin/../m68k-unknown-elf/sysroot/lib/m54455\libm.a(lib_a-k_rem_pio2.o)
 .debug_info    0x000defba      0x201 c:/nburn/gcc-m68k/bin/../m68k-unknown-elf/sysroot/lib/m54455\libm.a(lib_a-k_sin.o)
 .debug_info    0x000df1bb      0x358 c:/nburn/gcc-m68k/bin/../m68k-unknown-elf/sysroot/lib/m54455\libm.a(lib_a-s_atan.o)
 .debug_info    0x000df513      0x129 c:/nburn/gcc-m68k/bin/../m68k-unknown-elf/sysroot/lib/m54455\libm.a(lib_a-s_fabs.o)
 .debug_info    0x000df63c       0xd1 c:/nburn/gcc-m68k/bin/../m68k-unknown-elf/sysroot/lib/m54455\libm.a(lib_a-s_finite.o)
 .debug_info    0x000df70d      0x1a4 c:/nburn/gcc-m68k/bin/../m68k-unknown-elf/sysroot/lib/m54455\libm.a(lib_a-s_floor.o)
 .debug_info    0x000df8b1       0xbe c:/nburn/gcc-m68k/bin/../m68k-unknown-elf/sysroot/lib/m54455\libm.a(lib_a-s_lib_ver.o)
 .debug_info    0x000df96f      0x124 c:/nburn/gcc-m68k/bin/../m68k-unknown-elf/sysroot/lib/m54455\libm.a(lib_a-s_matherr.o)
 .debug_info    0x000dfa93       0xcd c:/nburn/gcc-m68k/bin/../m68k-unknown-elf/sysroot/lib/m54455\libm.a(lib_a-s_nan.o)
 .debug_info    0x000dfb60      0x1e2 c:/nburn/gcc-m68k/bin/../m68k-unknown-elf/sysroot/lib/m54455\libm.a(lib_a-s_rint.o)
 .debug_info    0x000dfd42      0x236 c:/nburn/gcc-m68k/bin/../m68k-unknown-elf/sysroot/lib/m54455\libm.a(lib_a-s_scalbn.o)
 .debug_info    0x000dff78      0x2ee c:/nburn/gcc-m68k/bin/../m68k-unknown-elf/sysroot/lib/m54455\libm.a(lib_a-sf_atan.o)
 .debug_info    0x000e0266      0x106 c:/nburn/gcc-m68k/bin/../m68k-unknown-elf/sysroot/lib/m54455\libm.a(lib_a-sf_fabs.o)
 .debug_info    0x000e036c       0xc4 c:/nburn/gcc-m68k/bin/../m68k-unknown-elf/sysroot/lib/m54455\libm.a(lib_a-sf_fpclassify.o)
 .debug_info    0x000e0430      0x142 c:/nburn/gcc-m68k/bin/../m68k-unknown-elf/sysroot/lib/m54455\libm.a(lib_a-s_copysign.o)
 .debug_info    0x000e0572       0xca c:/nburn/gcc-m68k/bin/../lib/gcc/m68k-unknown-elf/5.2.0/m54455\libgcc.a(_double.o)
 .debug_info    0x000e063c       0xca c:/nburn/gcc-m68k/bin/../lib/gcc/m68k-unknown-elf/5.2.0/m54455\libgcc.a(_float.o)
 .debug_info    0x000e0706       0xca c:/nburn/gcc-m68k/bin/../lib/gcc/m68k-unknown-elf/5.2.0/m54455\libgcc.a(_floatex.o)
 .debug_info    0x000e07d0       0xca c:/nburn/gcc-m68k/bin/../lib/gcc/m68k-unknown-elf/5.2.0/m54455\libgcc.a(_eqdf2.o)
 .debug_info    0x000e089a       0xca c:/nburn/gcc-m68k/bin/../lib/gcc/m68k-unknown-elf/5.2.0/m54455\libgcc.a(_nedf2.o)
 .debug_info    0x000e0964       0xca c:/nburn/gcc-m68k/bin/../lib/gcc/m68k-unknown-elf/5.2.0/m54455\libgcc.a(_gtdf2.o)
 .debug_info    0x000e0a2e       0xca c:/nburn/gcc-m68k/bin/../lib/gcc/m68k-unknown-elf/5.2.0/m54455\libgcc.a(_gedf2.o)
 .debug_info    0x000e0af8       0xca c:/nburn/gcc-m68k/bin/../lib/gcc/m68k-unknown-elf/5.2.0/m54455\libgcc.a(_ltdf2.o)
 .debug_info    0x000e0bc2       0xca c:/nburn/gcc-m68k/bin/../lib/gcc/m68k-unknown-elf/5.2.0/m54455\libgcc.a(_ledf2.o)
 .debug_info    0x000e0c8c       0xca c:/nburn/gcc-m68k/bin/../lib/gcc/m68k-unknown-elf/5.2.0/m54455\libgcc.a(_eqsf2.o)
 .debug_info    0x000e0d56       0xca c:/nburn/gcc-m68k/bin/../lib/gcc/m68k-unknown-elf/5.2.0/m54455\libgcc.a(_gtsf2.o)
 .debug_info    0x000e0e20       0xca c:/nburn/gcc-m68k/bin/../lib/gcc/m68k-unknown-elf/5.2.0/m54455\libgcc.a(_ltsf2.o)
 .debug_info    0x000e0eea      0x183 c:/nburn/gcc-m68k/bin/../lib/gcc/m68k-unknown-elf/5.2.0/m54455\libgcc.a(_muldi3.o)
 .debug_info    0x000e106d       0xe2 c:/nburn/gcc-m68k/bin/../lib/gcc/m68k-unknown-elf/5.2.0/m54455\libgcc.a(_fixunsdfsi.o)
 .debug_info    0x000e114f      0x129 c:/nburn/gcc-m68k/bin/../lib/gcc/m68k-unknown-elf/5.2.0/m54455\libgcc.a(_fixunsdfdi.o)
 .debug_info    0x000e1278      0x55f c:/nburn/gcc-m68k/bin/../lib/gcc/m68k-unknown-elf/5.2.0/m54455\libgcc.a(_udivdi3.o)
 .debug_info    0x000e17d7      0x577 c:/nburn/gcc-m68k/bin/../lib/gcc/m68k-unknown-elf/5.2.0/m54455\libgcc.a(_umoddi3.o)
 .debug_info    0x000e1d4e      0x43f c:/nburn/gcc-m68k/bin/../lib/gcc/m68k-unknown-elf/5.2.0/m54455\libgcc.a(fpgnulib.o)
 .debug_info    0x000e218d     0x376b c:/nburn/gcc-m68k/bin/../lib/gcc/m68k-unknown-elf/5.2.0/m54455\libgcc.a(unwind-dw2.o)
 .debug_info    0x000e58f8     0x1da6 c:/nburn/gcc-m68k/bin/../lib/gcc/m68k-unknown-elf/5.2.0/m54455\libgcc.a(unwind-dw2-fde.o)
 .debug_info    0x000e769e       0xbb c:/nburn/gcc-m68k/bin/../m68k-unknown-elf/sysroot/lib/m54455\libc.a(lib_a-abort.o)
 .debug_info    0x000e7759       0xe2 c:/nburn/gcc-m68k/bin/../m68k-unknown-elf/sysroot/lib/m54455\libc.a(lib_a-atexit.o)
 .debug_info    0x000e783b      0x8f2 c:/nburn/gcc-m68k/bin/../m68k-unknown-elf/sysroot/lib/m54455\libc.a(lib_a-atoi.o)
 .debug_info    0x000e812d      0x15b c:/nburn/gcc-m68k/bin/../m68k-unknown-elf/sysroot/lib/m54455\libc.a(lib_a-bsearch.o)
 .debug_info    0x000e8288       0xcc c:/nburn/gcc-m68k/bin/../m68k-unknown-elf/sysroot/lib/m54455\libc.a(lib_a-bzero.o)
 .debug_info    0x000e8354      0x108 c:/nburn/gcc-m68k/bin/../m68k-unknown-elf/sysroot/lib/m54455\libc.a(lib_a-cxa_atexit.o)
 .debug_info    0x000e845c      0x897 c:/nburn/gcc-m68k/bin/../m68k-unknown-elf/sysroot/lib/m54455\libc.a(lib_a-errno.o)
 .debug_info    0x000e8cf3      0x960 c:/nburn/gcc-m68k/bin/../m68k-unknown-elf/sysroot/lib/m54455\libc.a(lib_a-fputc.o)
 .debug_info    0x000e9653      0xa01 c:/nburn/gcc-m68k/bin/../m68k-unknown-elf/sysroot/lib/m54455\libc.a(lib_a-fputs.o)
 .debug_info    0x000ea054      0xaaa c:/nburn/gcc-m68k/bin/../m68k-unknown-elf/sysroot/lib/m54455\libc.a(lib_a-fvwrite.o)
 .debug_info    0x000eaafe      0xa2d c:/nburn/gcc-m68k/bin/../m68k-unknown-elf/sysroot/lib/m54455\libc.a(lib_a-fwrite.o)
 .debug_info    0x000eb52b      0x8a2 c:/nburn/gcc-m68k/bin/../m68k-unknown-elf/sysroot/lib/m54455\libc.a(lib_a-impure.o)
 .debug_info    0x000ebdcd       0x6c c:/nburn/gcc-m68k/bin/../m68k-unknown-elf/sysroot/lib/m54455\libc.a(lib_a-isalnum.o)
 .debug_info    0x000ebe39       0x6c c:/nburn/gcc-m68k/bin/../m68k-unknown-elf/sysroot/lib/m54455\libc.a(lib_a-isspace.o)
 .debug_info    0x000ebea5      0x8fb c:/nburn/gcc-m68k/bin/../m68k-unknown-elf/sysroot/lib/m54455\libc.a(lib_a-malloc.o)
 .debug_info    0x000ec7a0      0xc82 c:/nburn/gcc-m68k/bin/../m68k-unknown-elf/sysroot/lib/m54455\libc.a(lib_a-mallocr.o)
 .debug_info    0x000ed422       0xfa c:/nburn/gcc-m68k/bin/../m68k-unknown-elf/sysroot/lib/m54455\libc.a(lib_a-memchr.o)
 .debug_info    0x000ed51c       0xf2 c:/nburn/gcc-m68k/bin/../m68k-unknown-elf/sysroot/lib/m54455\libc.a(lib_a-memcmp.o)
 .debug_info    0x000ed60e      0x105 c:/nburn/gcc-m68k/bin/../m68k-unknown-elf/sysroot/lib/m54455\libc.a(lib_a-memmove.o)
 .debug_info    0x000ed713      0x9bc c:/nburn/gcc-m68k/bin/../m68k-unknown-elf/sysroot/lib/m54455\libc.a(lib_a-putc.o)
 .debug_info    0x000ee0cf      0x9dd c:/nburn/gcc-m68k/bin/../m68k-unknown-elf/sysroot/lib/m54455\libc.a(lib_a-puts.o)
 .debug_info    0x000eeaac      0x8d4 c:/nburn/gcc-m68k/bin/../m68k-unknown-elf/sysroot/lib/m54455\libc.a(lib_a-rand.o)
 .debug_info    0x000ef380      0x8d0 c:/nburn/gcc-m68k/bin/../m68k-unknown-elf/sysroot/lib/m54455\libc.a(lib_a-realloc.o)
 .debug_info    0x000efc50      0xc12 c:/nburn/gcc-m68k/bin/../m68k-unknown-elf/sysroot/lib/m54455\libc.a(lib_a-reallocr.o)
 .debug_info    0x000f0862      0x938 c:/nburn/gcc-m68k/bin/../m68k-unknown-elf/sysroot/lib/m54455\libc.a(lib_a-rget.o)
 .debug_info    0x000f119a       0xdc c:/nburn/gcc-m68k/bin/../m68k-unknown-elf/sysroot/lib/m54455\libc.a(lib_a-setjmp.o)
 .debug_info    0x000f1276      0x97e c:/nburn/gcc-m68k/bin/../m68k-unknown-elf/sysroot/lib/m54455\libc.a(lib_a-setvbuf.o)
 .debug_info    0x000f1bf4      0xb23 c:/nburn/gcc-m68k/bin/../m68k-unknown-elf/sysroot/lib/m54455\libc.a(lib_a-signal.o)
 .debug_info    0x000f2717      0x93e c:/nburn/gcc-m68k/bin/../m68k-unknown-elf/sysroot/lib/m54455\libc.a(lib_a-signalr.o)
 .debug_info    0x000f3055       0xd9 c:/nburn/gcc-m68k/bin/../m68k-unknown-elf/sysroot/lib/m54455\libc.a(lib_a-strcat.o)
 .debug_info    0x000f312e       0xba c:/nburn/gcc-m68k/bin/../m68k-unknown-elf/sysroot/lib/m54455\libc.a(lib_a-strcmp.o)
 .debug_info    0x000f31e8       0xdc c:/nburn/gcc-m68k/bin/../m68k-unknown-elf/sysroot/lib/m54455\libc.a(lib_a-strcpy.o)
 .debug_info    0x000f32c4       0xd2 c:/nburn/gcc-m68k/bin/../m68k-unknown-elf/sysroot/lib/m54455\libc.a(lib_a-strlen.o)
 .debug_info    0x000f3396       0xd2 c:/nburn/gcc-m68k/bin/../m68k-unknown-elf/sysroot/lib/m54455\libc.a(lib_a-strncmp.o)
 .debug_info    0x000f3468      0x106 c:/nburn/gcc-m68k/bin/../m68k-unknown-elf/sysroot/lib/m54455\libc.a(lib_a-strncpy.o)
 .debug_info    0x000f356e       0xe3 c:/nburn/gcc-m68k/bin/../m68k-unknown-elf/sysroot/lib/m54455\libc.a(lib_a-strstr.o)
 .debug_info    0x000f3651      0x9a5 c:/nburn/gcc-m68k/bin/../m68k-unknown-elf/sysroot/lib/m54455\libc.a(lib_a-strtol.o)
 .debug_info    0x000f3ff6       0x6c c:/nburn/gcc-m68k/bin/../m68k-unknown-elf/sysroot/lib/m54455\libc.a(lib_a-tolower.o)
 .debug_info    0x000f4062       0x6c c:/nburn/gcc-m68k/bin/../m68k-unknown-elf/sysroot/lib/m54455\libc.a(lib_a-toupper.o)
 .debug_info    0x000f40ce      0x97c c:/nburn/gcc-m68k/bin/../m68k-unknown-elf/sysroot/lib/m54455\libc.a(lib_a-wbuf.o)
 .debug_info    0x000f4a4a      0x917 c:/nburn/gcc-m68k/bin/../m68k-unknown-elf/sysroot/lib/m54455\libc.a(lib_a-wsetup.o)
 .debug_info    0x000f5361      0x916 c:/nburn/gcc-m68k/bin/../m68k-unknown-elf/sysroot/lib/m54455\libc.a(lib_a-__atexit.o)
 .debug_info    0x000f5c77       0x6b c:/nburn/gcc-m68k/bin/../m68k-unknown-elf/sysroot/lib/m54455\libc.a(lib_a-ctype_.o)
 .debug_info    0x000f5ce2      0xa20 c:/nburn/gcc-m68k/bin/../m68k-unknown-elf/sysroot/lib/m54455\libc.a(lib_a-fflush.o)
 .debug_info    0x000f6702      0xbe3 c:/nburn/gcc-m68k/bin/../m68k-unknown-elf/sysroot/lib/m54455\libc.a(lib_a-findfp.o)
 .debug_info    0x000f72e5      0xb62 c:/nburn/gcc-m68k/bin/../m68k-unknown-elf/sysroot/lib/m54455\libc.a(lib_a-freer.o)
 .debug_info    0x000f7e47      0x99c c:/nburn/gcc-m68k/bin/../m68k-unknown-elf/sysroot/lib/m54455\libc.a(lib_a-fwalk.o)
 .debug_info    0x000f87e3      0xa93 c:/nburn/gcc-m68k/bin/../m68k-unknown-elf/sysroot/lib/m54455\libc.a(lib_a-makebuf.o)
 .debug_info    0x000f9276      0x9be c:/nburn/gcc-m68k/bin/../m68k-unknown-elf/sysroot/lib/m54455\libc.a(lib_a-refill.o)
 .debug_info    0x000f9c34      0xabb c:/nburn/gcc-m68k/bin/../m68k-unknown-elf/sysroot/lib/m54455\libc.a(lib_a-stdio.o)
 .debug_info    0x000fa6ef      0x8ff c:/nburn/gcc-m68k/bin/../m68k-unknown-elf/sysroot/lib/m54455\libc.a(lib_a-writer.o)
 .debug_info    0x000fafee      0x8d1 c:/nburn/gcc-m68k/bin/../m68k-unknown-elf/sysroot/lib/m54455\libc.a(lib_a-closer.o)
 .debug_info    0x000fb8bf      0x9e1 c:/nburn/gcc-m68k/bin/../m68k-unknown-elf/sysroot/lib/m54455\libc.a(lib_a-fclose.o)
 .debug_info    0x000fc2a0      0xa47 c:/nburn/gcc-m68k/bin/../m68k-unknown-elf/sysroot/lib/m54455\libc.a(lib_a-fstatr.o)
 .debug_info    0x000fcce7      0x8d1 c:/nburn/gcc-m68k/bin/../m68k-unknown-elf/sysroot/lib/m54455\libc.a(lib_a-isattyr.o)
 .debug_info    0x000fd5b8      0x8ed c:/nburn/gcc-m68k/bin/../m68k-unknown-elf/sysroot/lib/m54455\libc.a(lib_a-lseekr.o)
 .debug_info    0x000fdea5      0x8f8 c:/nburn/gcc-m68k/bin/../m68k-unknown-elf/sysroot/lib/m54455\libc.a(lib_a-readr.o)

.debug_abbrev   0x00000000    0x1dbc0
 *(.debug_abbrev)
 .debug_abbrev  0x00000000      0x42c main.od
 .debug_abbrev  0x0000042c      0x1dd Utility.od
 .debug_abbrev  0x00000609      0x31e Nav.od
 .debug_abbrev  0x00000927      0x7c7 Logger.od
 .debug_abbrev  0x000010ee      0x339 Drivers\servodrive.od
 .debug_abbrev  0x00001427      0x2dd Drivers\pwm.od
 .debug_abbrev  0x00001704      0x526 Drivers\introspec.od
 .debug_abbrev  0x00001c2a      0x30a Drivers\dsm2.od
 .debug_abbrev  0x00001f34      0x156 Drivers\SpinningLidar.od
 .debug_abbrev  0x0000208a      0x2c5 Drivers\Odometer.od
 .debug_abbrev  0x0000234f       0xc8 Drivers\MadgwickFilter.od
 .debug_abbrev  0x00002417      0x366 Drivers\MPU9250.od
 .debug_abbrev  0x0000277d      0x1dc Drivers\LidarPWM.od
 .debug_abbrev  0x00002959      0x208 Drivers\LCD.od
 .debug_abbrev  0x00002b61      0x42b Drivers\IMUSetupAndSample.od
 .debug_abbrev  0x00002f8c       0xee htmldata.od
 .debug_abbrev  0x0000307a      0x541 C:\Nburn/lib/DBNANO54415.a(serial.od)
 .debug_abbrev  0x000035bb      0x223 C:\Nburn/lib/DBNANO54415.a(pins.od)
 .debug_abbrev  0x000037de      0x19f C:\Nburn/lib/DBNANO54415.a(SimpleAD.od)
 .debug_abbrev  0x0000397d      0x384 C:\Nburn/lib/DBNANO54415.a(FlashOps.od)
 .debug_abbrev  0x00003d01      0x459 C:\Nburn/lib/DBNANO54415.a(HiResTimer.od)
 .debug_abbrev  0x0000415a       0x79 C:\Nburn/lib/DBNANO54415.a(netwait.od)
 .debug_abbrev  0x000041d3      0x2e2 C:\Nburn/lib/DBNANO54415.a(pin_irq.od)
 .debug_abbrev  0x000044b5      0x6d9 C:\Nburn/lib/DBNANO54415.a(dbethernet.od)
 .debug_abbrev  0x00004b8e      0x398 C:\Nburn/lib/DBNANO54415.a(bsp.od)
 .debug_abbrev  0x00004f26      0x275 C:\Nburn/lib/DBNANO54415.a(localio.od)
 .debug_abbrev  0x0000519b       0xd6 C:\Nburn/lib/DBNANO54415.a(userparam.od)
 .debug_abbrev  0x00005271      0x3a5 C:\Nburn/lib/DBNANO54415.a(multichanneli2c.od)
 .debug_abbrev  0x00005616      0x193 C:\Nburn/lib/DBNANO54415.a(defpins.od)
 .debug_abbrev  0x000057a9      0x59a C:\Nburn/lib/DBNANO54415.a(ethernet.od)
 .debug_abbrev  0x00005d43      0x33f C:\Nburn/lib/DBNANO54415.a(etherprint.od)
 .debug_abbrev  0x00006082      0x2e8 C:\Nburn/lib/DBNANO54415.a(emulticast.od)
 .debug_abbrev  0x0000636a      0x2fe C:\Nburn/lib/DBNANO54415.a(SPIFlash.od)
 .debug_abbrev  0x00006668      0x122 C:\Nburn/lib/DBNANO54415.a(ethernetauxdb.od)
 .debug_abbrev  0x0000678a      0x431 C:\Nburn/lib/DBNANO54415.a(ether2nd.od)
 .debug_abbrev  0x00006bbb      0x364 C:\Nburn/lib/DBNANO54415.a(etherswitch.od)
 .debug_abbrev  0x00006f1f       0x33 C:\Nburn/lib/DBNANO54415.a(weak_autoenet_var.od)
 .debug_abbrev  0x00006f52      0x45d C:\Nburn/lib/DBNANO54415.a(i2c_class.od)
 .debug_abbrev  0x000073af       0xb4 C:\Nburn/lib/DBNetBurner.a(main.od)
 .debug_abbrev  0x00007463      0x123 C:\Nburn/lib/DBNetBurner.a(ucosmcfc.od)
 .debug_abbrev  0x00007586      0x3b1 C:\Nburn/lib/DBNetBurner.a(ucos.od)
 .debug_abbrev  0x00007937       0xa2 C:\Nburn/lib/DBNetBurner.a(cppmain.od)
 .debug_abbrev  0x000079d9       0xb3 C:\Nburn/lib/DBNetBurner.a(debugtrap.od)
 .debug_abbrev  0x00007a8c      0x361 C:\Nburn/lib/DBNetBurner.a(ucosmain.od)
 .debug_abbrev  0x00007ded      0x2c2 C:\Nburn/lib/DBNetBurner.a(fileio.od)
 .debug_abbrev  0x000080af      0x3a8 C:\Nburn/lib/DBNetBurner.a(system.od)
 .debug_abbrev  0x00008457      0x46a C:\Nburn/lib/DBNetBurner.a(utils.od)
 .debug_abbrev  0x000088c1      0x510 C:\Nburn/lib/DBNetBurner.a(ip.od)
 .debug_abbrev  0x00008dd1      0x480 C:\Nburn/lib/DBNetBurner.a(buffers.od)
 .debug_abbrev  0x00009251      0x5c2 C:\Nburn/lib/DBNetBurner.a(arp.od)
 .debug_abbrev  0x00009813      0x58a C:\Nburn/lib/DBNetBurner.a(udp.od)
 .debug_abbrev  0x00009d9d      0x428 C:\Nburn/lib/DBNetBurner.a(ftpd.od)
 .debug_abbrev  0x0000a1c5      0x7fd C:\Nburn/lib/DBNetBurner.a(tcp.od)
 .debug_abbrev  0x0000a9c2      0x171 C:\Nburn/lib/DBNetBurner.a(extraio.od)
 .debug_abbrev  0x0000ab33      0x35d C:\Nburn/lib/DBNetBurner.a(http.od)
 .debug_abbrev  0x0000ae90      0x353 C:\Nburn/lib/DBNetBurner.a(httpinternal.od)
 .debug_abbrev  0x0000b1e3       0x80 C:\Nburn/lib/DBNetBurner.a(httpstricmp.od)
 .debug_abbrev  0x0000b263      0x336 C:\Nburn/lib/DBNetBurner.a(htmldecomp.od)
 .debug_abbrev  0x0000b599      0x36e C:\Nburn/lib/DBNetBurner.a(iosys.od)
 .debug_abbrev  0x0000b907      0x159 C:\Nburn/lib/DBNetBurner.a(new_ops.od)
 .debug_abbrev  0x0000ba60      0x464 C:\Nburn/lib/DBNetBurner.a(autoip.od)
 .debug_abbrev  0x0000bec4      0x5e5 C:\Nburn/lib/DBNetBurner.a(dhcpc.od)
 .debug_abbrev  0x0000c4a9      0x1c7 C:\Nburn/lib/DBNetBurner.a(netrx.od)
 .debug_abbrev  0x0000c670      0x3fe C:\Nburn/lib/DBNetBurner.a(netinterface.od)
 .debug_abbrev  0x0000ca6e      0x372 C:\Nburn/lib/DBNetBurner.a(multiconfig.od)
 .debug_abbrev  0x0000cde0      0x314 C:\Nburn/lib/DBNetBurner.a(taskmon.od)
 .debug_abbrev  0x0000d0f4      0x18b C:\Nburn/lib/DBNetBurner.a(smarttrap.od)
 .debug_abbrev  0x0000d27f      0x3df C:\Nburn/lib/DBNetBurner.a(autoupdate.od)
 .debug_abbrev  0x0000d65e      0x1ee C:\Nburn/lib/DBNetBurner.a(device.od)
 .debug_abbrev  0x0000d84c      0x22f C:\Nburn/lib/DBNetBurner.a(base64.od)
 .debug_abbrev  0x0000da7b      0x35f C:\Nburn/lib/DBNetBurner.a(nbiprintf.od)
 .debug_abbrev  0x0000ddda       0xe9 C:\Nburn/lib/DBNetBurner.a(nbprintf.od)
 .debug_abbrev  0x0000dec3      0x104 C:\Nburn/lib/DBNetBurner.a(nbsiprintf.od)
 .debug_abbrev  0x0000dfc7      0x1f3 C:\Nburn/lib/DBNetBurner.a(nbsprintf.od)
 .debug_abbrev  0x0000e1ba       0x45 C:\Nburn/lib/DBNetBurner.a(weakumain.od)
 .debug_abbrev  0x0000e1ff       0x42 C:\Nburn/lib/DBNetBurner.a(cusermain.od)
 .debug_abbrev  0x0000e241       0xfb C:\Nburn/lib/DBNetBurner.a(fdprintf.od)
 .debug_abbrev  0x0000e33c      0x1a6 C:\Nburn/lib/DBNetBurner.a(websocket_handler.od)
 .debug_abbrev  0x0000e4e2      0x35a C:\Nburn/lib/DBNetBurner.a(ipv6_addr.od)
 .debug_abbrev  0x0000e83c      0x606 C:\Nburn/lib/DBNetBurner.a(ipv6_tcp.od)
 .debug_abbrev  0x0000ee42      0x90f C:\Nburn/lib/DBNetBurner.a(ipv6_ip.od)
 .debug_abbrev  0x0000f751      0x634 C:\Nburn/lib/DBNetBurner.a(ipv6_udp.od)
 .debug_abbrev  0x0000fd85      0x1da C:\Nburn/lib/DBNetBurner.a(ipv6_printhelp.od)
 .debug_abbrev  0x0000ff5f      0x58c C:\Nburn/lib/DBNetBurner.a(ipv6_extensions.od)
 .debug_abbrev  0x000104eb      0x5cd C:\Nburn/lib/DBNetBurner.a(ipv6_multicast.od)
 .debug_abbrev  0x00010ab8      0x608 C:\Nburn/lib/DBNetBurner.a(ipv6_show.od)
 .debug_abbrev  0x000110c0      0x751 C:\Nburn/lib/DBNetBurner.a(ipv6_dhcp.od)
 .debug_abbrev  0x00011811      0x686 C:\Nburn/lib/DBNetBurner.a(multicast.od)
 .debug_abbrev  0x00011e97      0x256 C:\Nburn/lib/DBNetBurner.a(random.od)
 .debug_abbrev  0x000120ed      0x1eb C:\Nburn/lib/DBNetBurner.a(nbfloatprint.od)
 .debug_abbrev  0x000122d8       0xbf C:\Nburn/lib/DBNetBurner.a(fdiprintf.od)
 .debug_abbrev  0x00012397      0x27b C:\Nburn/lib/DBNetBurner.a(md5c.od)
 .debug_abbrev  0x00012612       0xe8 c:/nburn/gcc-m68k/bin/../m68k-unknown-elf/sysroot/lib/m54455\libstdc++.a(pure.o)
 .debug_abbrev  0x000126fa      0x3f1 c:/nburn/gcc-m68k/bin/../m68k-unknown-elf/sysroot/lib/m54455\libstdc++.a(eh_terminate.o)
 .debug_abbrev  0x00012aeb      0x160 c:/nburn/gcc-m68k/bin/../m68k-unknown-elf/sysroot/lib/m54455\libstdc++.a(del_op.o)
 .debug_abbrev  0x00012c4b       0xb6 c:/nburn/gcc-m68k/bin/../m68k-unknown-elf/sysroot/lib/m54455\libstdc++.a(del_ops.o)
 .debug_abbrev  0x00012d01       0xbb c:/nburn/gcc-m68k/bin/../m68k-unknown-elf/sysroot/lib/m54455\libstdc++.a(eh_unex_handler.o)
 .debug_abbrev  0x00012dbc       0xbb c:/nburn/gcc-m68k/bin/../m68k-unknown-elf/sysroot/lib/m54455\libstdc++.a(eh_term_handler.o)
 .debug_abbrev  0x00012e77      0x2ab c:/nburn/gcc-m68k/bin/../m68k-unknown-elf/sysroot/lib/m54455\libstdc++.a(eh_catch.o)
 .debug_abbrev  0x00013122      0x594 c:/nburn/gcc-m68k/bin/../m68k-unknown-elf/sysroot/lib/m54455\libstdc++.a(eh_personality.o)
 .debug_abbrev  0x000136b6      0x218 c:/nburn/gcc-m68k/bin/../m68k-unknown-elf/sysroot/lib/m54455\libstdc++.a(eh_exception.o)
 .debug_abbrev  0x000138ce      0x1a5 c:/nburn/gcc-m68k/bin/../m68k-unknown-elf/sysroot/lib/m54455\libstdc++.a(eh_globals.o)
 .debug_abbrev  0x00013a73      0x338 c:/nburn/gcc-m68k/bin/../m68k-unknown-elf/sysroot/lib/m54455\libstdc++.a(vterminate.o)
 .debug_abbrev  0x00013dab      0x4c4 c:/nburn/gcc-m68k/bin/../m68k-unknown-elf/sysroot/lib/m54455\libstdc++.a(eh_alloc.o)
 .debug_abbrev  0x0001426f      0x48c c:/nburn/gcc-m68k/bin/../m68k-unknown-elf/sysroot/lib/m54455\libstdc++.a(cp-demangle.o)
 .debug_abbrev  0x000146fb      0x261 c:/nburn/gcc-m68k/bin/../m68k-unknown-elf/sysroot/lib/m54455\libstdc++.a(eh_throw.o)
 .debug_abbrev  0x0001495c      0x1c5 c:/nburn/gcc-m68k/bin/../m68k-unknown-elf/sysroot/lib/m54455\libstdc++.a(eh_type.o)
 .debug_abbrev  0x00014b21      0x3aa c:/nburn/gcc-m68k/bin/../m68k-unknown-elf/sysroot/lib/m54455\libstdc++.a(si_class_type_info.o)
 .debug_abbrev  0x00014ecb      0x230 c:/nburn/gcc-m68k/bin/../m68k-unknown-elf/sysroot/lib/m54455\libstdc++.a(eh_call.o)
 .debug_abbrev  0x000150fb      0x44e c:/nburn/gcc-m68k/bin/../m68k-unknown-elf/sysroot/lib/m54455\libstdc++.a(class_type_info.o)
 .debug_abbrev  0x00015549      0x27a c:/nburn/gcc-m68k/bin/../m68k-unknown-elf/sysroot/lib/m54455\libstdc++.a(tinfo.o)
 .debug_abbrev  0x000157c3       0xbb c:/nburn/gcc-m68k/bin/../m68k-unknown-elf/sysroot/lib/m54455\libm.a(lib_a-s_cos.o)
 .debug_abbrev  0x0001587e       0xc6 c:/nburn/gcc-m68k/bin/../m68k-unknown-elf/sysroot/lib/m54455\libm.a(lib_a-s_fpclassify.o)
 .debug_abbrev  0x00015944      0x120 c:/nburn/gcc-m68k/bin/../m68k-unknown-elf/sysroot/lib/m54455\libm.a(lib_a-s_modf.o)
 .debug_abbrev  0x00015a64       0xe9 c:/nburn/gcc-m68k/bin/../m68k-unknown-elf/sysroot/lib/m54455\libm.a(lib_a-s_round.o)
 .debug_abbrev  0x00015b4d       0xbb c:/nburn/gcc-m68k/bin/../m68k-unknown-elf/sysroot/lib/m54455\libm.a(lib_a-s_sin.o)
 .debug_abbrev  0x00015c08       0x72 c:/nburn/gcc-m68k/bin/../m68k-unknown-elf/sysroot/lib/m54455\libm.a(lib_a-w_atan2.o)
 .debug_abbrev  0x00015c7a      0x12c c:/nburn/gcc-m68k/bin/../m68k-unknown-elf/sysroot/lib/m54455\libm.a(lib_a-w_pow.o)
 .debug_abbrev  0x00015da6      0x108 c:/nburn/gcc-m68k/bin/../m68k-unknown-elf/sysroot/lib/m54455\libm.a(lib_a-w_sqrt.o)
 .debug_abbrev  0x00015eae      0x119 c:/nburn/gcc-m68k/bin/../m68k-unknown-elf/sysroot/lib/m54455\libm.a(lib_a-wf_asin.o)
 .debug_abbrev  0x00015fc7       0x72 c:/nburn/gcc-m68k/bin/../m68k-unknown-elf/sysroot/lib/m54455\libm.a(lib_a-wf_atan2.o)
 .debug_abbrev  0x00016039      0x108 c:/nburn/gcc-m68k/bin/../m68k-unknown-elf/sysroot/lib/m54455\libm.a(lib_a-wf_sqrt.o)
 .debug_abbrev  0x00016141      0x13d c:/nburn/gcc-m68k/bin/../m68k-unknown-elf/sysroot/lib/m54455\libm.a(lib_a-e_atan2.o)
 .debug_abbrev  0x0001627e      0x1c7 c:/nburn/gcc-m68k/bin/../m68k-unknown-elf/sysroot/lib/m54455\libm.a(lib_a-e_pow.o)
 .debug_abbrev  0x00016445      0x159 c:/nburn/gcc-m68k/bin/../m68k-unknown-elf/sysroot/lib/m54455\libm.a(lib_a-e_rem_pio2.o)
 .debug_abbrev  0x0001659e      0x105 c:/nburn/gcc-m68k/bin/../m68k-unknown-elf/sysroot/lib/m54455\libm.a(lib_a-e_sqrt.o)
 .debug_abbrev  0x000166a3      0x122 c:/nburn/gcc-m68k/bin/../m68k-unknown-elf/sysroot/lib/m54455\libm.a(lib_a-ef_asin.o)
 .debug_abbrev  0x000167c5      0x115 c:/nburn/gcc-m68k/bin/../m68k-unknown-elf/sysroot/lib/m54455\libm.a(lib_a-ef_atan2.o)
 .debug_abbrev  0x000168da       0xda c:/nburn/gcc-m68k/bin/../m68k-unknown-elf/sysroot/lib/m54455\libm.a(lib_a-ef_sqrt.o)
 .debug_abbrev  0x000169b4       0xec c:/nburn/gcc-m68k/bin/../m68k-unknown-elf/sysroot/lib/m54455\libm.a(lib_a-k_cos.o)
 .debug_abbrev  0x00016aa0      0x12f c:/nburn/gcc-m68k/bin/../m68k-unknown-elf/sysroot/lib/m54455\libm.a(lib_a-k_rem_pio2.o)
 .debug_abbrev  0x00016bcf       0xad c:/nburn/gcc-m68k/bin/../m68k-unknown-elf/sysroot/lib/m54455\libm.a(lib_a-k_sin.o)
 .debug_abbrev  0x00016c7c      0x141 c:/nburn/gcc-m68k/bin/../m68k-unknown-elf/sysroot/lib/m54455\libm.a(lib_a-s_atan.o)
 .debug_abbrev  0x00016dbd       0xc4 c:/nburn/gcc-m68k/bin/../m68k-unknown-elf/sysroot/lib/m54455\libm.a(lib_a-s_fabs.o)
 .debug_abbrev  0x00016e81       0x6d c:/nburn/gcc-m68k/bin/../m68k-unknown-elf/sysroot/lib/m54455\libm.a(lib_a-s_finite.o)
 .debug_abbrev  0x00016eee       0xe9 c:/nburn/gcc-m68k/bin/../m68k-unknown-elf/sysroot/lib/m54455\libm.a(lib_a-s_floor.o)
 .debug_abbrev  0x00016fd7       0x58 c:/nburn/gcc-m68k/bin/../m68k-unknown-elf/sysroot/lib/m54455\libm.a(lib_a-s_lib_ver.o)
 .debug_abbrev  0x0001702f       0x98 c:/nburn/gcc-m68k/bin/../m68k-unknown-elf/sysroot/lib/m54455\libm.a(lib_a-s_matherr.o)
 .debug_abbrev  0x000170c7       0x70 c:/nburn/gcc-m68k/bin/../m68k-unknown-elf/sysroot/lib/m54455\libm.a(lib_a-s_nan.o)
 .debug_abbrev  0x00017137      0x10f c:/nburn/gcc-m68k/bin/../m68k-unknown-elf/sysroot/lib/m54455\libm.a(lib_a-s_rint.o)
 .debug_abbrev  0x00017246      0x129 c:/nburn/gcc-m68k/bin/../m68k-unknown-elf/sysroot/lib/m54455\libm.a(lib_a-s_scalbn.o)
 .debug_abbrev  0x0001736f      0x11e c:/nburn/gcc-m68k/bin/../m68k-unknown-elf/sysroot/lib/m54455\libm.a(lib_a-sf_atan.o)
 .debug_abbrev  0x0001748d       0xa8 c:/nburn/gcc-m68k/bin/../m68k-unknown-elf/sysroot/lib/m54455\libm.a(lib_a-sf_fabs.o)
 .debug_abbrev  0x00017535       0x6d c:/nburn/gcc-m68k/bin/../m68k-unknown-elf/sysroot/lib/m54455\libm.a(lib_a-sf_fpclassify.o)
 .debug_abbrev  0x000175a2       0xd3 c:/nburn/gcc-m68k/bin/../m68k-unknown-elf/sysroot/lib/m54455\libm.a(lib_a-s_copysign.o)
 .debug_abbrev  0x00017675       0x14 c:/nburn/gcc-m68k/bin/../lib/gcc/m68k-unknown-elf/5.2.0/m54455\libgcc.a(_double.o)
 .debug_abbrev  0x00017689       0x14 c:/nburn/gcc-m68k/bin/../lib/gcc/m68k-unknown-elf/5.2.0/m54455\libgcc.a(_float.o)
 .debug_abbrev  0x0001769d       0x14 c:/nburn/gcc-m68k/bin/../lib/gcc/m68k-unknown-elf/5.2.0/m54455\libgcc.a(_floatex.o)
 .debug_abbrev  0x000176b1       0x14 c:/nburn/gcc-m68k/bin/../lib/gcc/m68k-unknown-elf/5.2.0/m54455\libgcc.a(_eqdf2.o)
 .debug_abbrev  0x000176c5       0x14 c:/nburn/gcc-m68k/bin/../lib/gcc/m68k-unknown-elf/5.2.0/m54455\libgcc.a(_nedf2.o)
 .debug_abbrev  0x000176d9       0x14 c:/nburn/gcc-m68k/bin/../lib/gcc/m68k-unknown-elf/5.2.0/m54455\libgcc.a(_gtdf2.o)
 .debug_abbrev  0x000176ed       0x14 c:/nburn/gcc-m68k/bin/../lib/gcc/m68k-unknown-elf/5.2.0/m54455\libgcc.a(_gedf2.o)
 .debug_abbrev  0x00017701       0x14 c:/nburn/gcc-m68k/bin/../lib/gcc/m68k-unknown-elf/5.2.0/m54455\libgcc.a(_ltdf2.o)
 .debug_abbrev  0x00017715       0x14 c:/nburn/gcc-m68k/bin/../lib/gcc/m68k-unknown-elf/5.2.0/m54455\libgcc.a(_ledf2.o)
 .debug_abbrev  0x00017729       0x14 c:/nburn/gcc-m68k/bin/../lib/gcc/m68k-unknown-elf/5.2.0/m54455\libgcc.a(_eqsf2.o)
 .debug_abbrev  0x0001773d       0x14 c:/nburn/gcc-m68k/bin/../lib/gcc/m68k-unknown-elf/5.2.0/m54455\libgcc.a(_gtsf2.o)
 .debug_abbrev  0x00017751       0x14 c:/nburn/gcc-m68k/bin/../lib/gcc/m68k-unknown-elf/5.2.0/m54455\libgcc.a(_ltsf2.o)
 .debug_abbrev  0x00017765       0xd3 c:/nburn/gcc-m68k/bin/../lib/gcc/m68k-unknown-elf/5.2.0/m54455\libgcc.a(_muldi3.o)
 .debug_abbrev  0x00017838       0x60 c:/nburn/gcc-m68k/bin/../lib/gcc/m68k-unknown-elf/5.2.0/m54455\libgcc.a(_fixunsdfsi.o)
 .debug_abbrev  0x00017898       0x84 c:/nburn/gcc-m68k/bin/../lib/gcc/m68k-unknown-elf/5.2.0/m54455\libgcc.a(_fixunsdfdi.o)
 .debug_abbrev  0x0001791c      0x14b c:/nburn/gcc-m68k/bin/../lib/gcc/m68k-unknown-elf/5.2.0/m54455\libgcc.a(_udivdi3.o)
 .debug_abbrev  0x00017a67      0x165 c:/nburn/gcc-m68k/bin/../lib/gcc/m68k-unknown-elf/5.2.0/m54455\libgcc.a(_umoddi3.o)
 .debug_abbrev  0x00017bcc      0x1d6 c:/nburn/gcc-m68k/bin/../lib/gcc/m68k-unknown-elf/5.2.0/m54455\libgcc.a(fpgnulib.o)
 .debug_abbrev  0x00017da2      0x5f1 c:/nburn/gcc-m68k/bin/../lib/gcc/m68k-unknown-elf/5.2.0/m54455\libgcc.a(unwind-dw2.o)
 .debug_abbrev  0x00018393      0x4f9 c:/nburn/gcc-m68k/bin/../lib/gcc/m68k-unknown-elf/5.2.0/m54455\libgcc.a(unwind-dw2-fde.o)
 .debug_abbrev  0x0001888c       0x61 c:/nburn/gcc-m68k/bin/../m68k-unknown-elf/sysroot/lib/m54455\libc.a(lib_a-abort.o)
 .debug_abbrev  0x000188ed       0x99 c:/nburn/gcc-m68k/bin/../m68k-unknown-elf/sysroot/lib/m54455\libc.a(lib_a-atexit.o)
 .debug_abbrev  0x00018986      0x1a9 c:/nburn/gcc-m68k/bin/../m68k-unknown-elf/sysroot/lib/m54455\libc.a(lib_a-atoi.o)
 .debug_abbrev  0x00018b2f       0xaf c:/nburn/gcc-m68k/bin/../m68k-unknown-elf/sysroot/lib/m54455\libc.a(lib_a-bsearch.o)
 .debug_abbrev  0x00018bde       0x8a c:/nburn/gcc-m68k/bin/../m68k-unknown-elf/sysroot/lib/m54455\libc.a(lib_a-bzero.o)
 .debug_abbrev  0x00018c68       0xa9 c:/nburn/gcc-m68k/bin/../m68k-unknown-elf/sysroot/lib/m54455\libc.a(lib_a-cxa_atexit.o)
 .debug_abbrev  0x00018d11      0x18d c:/nburn/gcc-m68k/bin/../m68k-unknown-elf/sysroot/lib/m54455\libc.a(lib_a-errno.o)
 .debug_abbrev  0x00018e9e      0x22b c:/nburn/gcc-m68k/bin/../m68k-unknown-elf/sysroot/lib/m54455\libc.a(lib_a-fputc.o)
 .debug_abbrev  0x000190c9      0x218 c:/nburn/gcc-m68k/bin/../m68k-unknown-elf/sysroot/lib/m54455\libc.a(lib_a-fputs.o)
 .debug_abbrev  0x000192e1      0x201 c:/nburn/gcc-m68k/bin/../m68k-unknown-elf/sysroot/lib/m54455\libc.a(lib_a-fvwrite.o)
 .debug_abbrev  0x000194e2      0x229 c:/nburn/gcc-m68k/bin/../m68k-unknown-elf/sysroot/lib/m54455\libc.a(lib_a-fwrite.o)
 .debug_abbrev  0x0001970b      0x17e c:/nburn/gcc-m68k/bin/../m68k-unknown-elf/sysroot/lib/m54455\libc.a(lib_a-impure.o)
 .debug_abbrev  0x00019889       0x74 c:/nburn/gcc-m68k/bin/../m68k-unknown-elf/sysroot/lib/m54455\libc.a(lib_a-isalnum.o)
 .debug_abbrev  0x000198fd       0x74 c:/nburn/gcc-m68k/bin/../m68k-unknown-elf/sysroot/lib/m54455\libc.a(lib_a-isspace.o)
 .debug_abbrev  0x00019971      0x1d4 c:/nburn/gcc-m68k/bin/../m68k-unknown-elf/sysroot/lib/m54455\libc.a(lib_a-malloc.o)
 .debug_abbrev  0x00019b45      0x26d c:/nburn/gcc-m68k/bin/../m68k-unknown-elf/sysroot/lib/m54455\libc.a(lib_a-mallocr.o)
 .debug_abbrev  0x00019db2       0xb8 c:/nburn/gcc-m68k/bin/../m68k-unknown-elf/sysroot/lib/m54455\libc.a(lib_a-memchr.o)
 .debug_abbrev  0x00019e6a       0x8c c:/nburn/gcc-m68k/bin/../m68k-unknown-elf/sysroot/lib/m54455\libc.a(lib_a-memcmp.o)
 .debug_abbrev  0x00019ef6       0x9a c:/nburn/gcc-m68k/bin/../m68k-unknown-elf/sysroot/lib/m54455\libc.a(lib_a-memmove.o)
 .debug_abbrev  0x00019f90      0x25e c:/nburn/gcc-m68k/bin/../m68k-unknown-elf/sysroot/lib/m54455\libc.a(lib_a-putc.o)
 .debug_abbrev  0x0001a1ee      0x208 c:/nburn/gcc-m68k/bin/../m68k-unknown-elf/sysroot/lib/m54455\libc.a(lib_a-puts.o)
 .debug_abbrev  0x0001a3f6      0x1d4 c:/nburn/gcc-m68k/bin/../m68k-unknown-elf/sysroot/lib/m54455\libc.a(lib_a-rand.o)
 .debug_abbrev  0x0001a5ca      0x1c9 c:/nburn/gcc-m68k/bin/../m68k-unknown-elf/sysroot/lib/m54455\libc.a(lib_a-realloc.o)
 .debug_abbrev  0x0001a793      0x248 c:/nburn/gcc-m68k/bin/../m68k-unknown-elf/sysroot/lib/m54455\libc.a(lib_a-reallocr.o)
 .debug_abbrev  0x0001a9db      0x1f0 c:/nburn/gcc-m68k/bin/../m68k-unknown-elf/sysroot/lib/m54455\libc.a(lib_a-rget.o)
 .debug_abbrev  0x0001abcb       0x14 c:/nburn/gcc-m68k/bin/../m68k-unknown-elf/sysroot/lib/m54455\libc.a(lib_a-setjmp.o)
 .debug_abbrev  0x0001abdf      0x23a c:/nburn/gcc-m68k/bin/../m68k-unknown-elf/sysroot/lib/m54455\libc.a(lib_a-setvbuf.o)
 .debug_abbrev  0x0001ae19      0x291 c:/nburn/gcc-m68k/bin/../m68k-unknown-elf/sysroot/lib/m54455\libc.a(lib_a-signal.o)
 .debug_abbrev  0x0001b0aa      0x203 c:/nburn/gcc-m68k/bin/../m68k-unknown-elf/sysroot/lib/m54455\libc.a(lib_a-signalr.o)
 .debug_abbrev  0x0001b2ad       0x79 c:/nburn/gcc-m68k/bin/../m68k-unknown-elf/sysroot/lib/m54455\libc.a(lib_a-strcat.o)
 .debug_abbrev  0x0001b326       0x61 c:/nburn/gcc-m68k/bin/../m68k-unknown-elf/sysroot/lib/m54455\libc.a(lib_a-strcmp.o)
 .debug_abbrev  0x0001b387       0x7f c:/nburn/gcc-m68k/bin/../m68k-unknown-elf/sysroot/lib/m54455\libc.a(lib_a-strcpy.o)
 .debug_abbrev  0x0001b406       0x7d c:/nburn/gcc-m68k/bin/../m68k-unknown-elf/sysroot/lib/m54455\libc.a(lib_a-strlen.o)
 .debug_abbrev  0x0001b483       0x6e c:/nburn/gcc-m68k/bin/../m68k-unknown-elf/sysroot/lib/m54455\libc.a(lib_a-strncmp.o)
 .debug_abbrev  0x0001b4f1       0x95 c:/nburn/gcc-m68k/bin/../m68k-unknown-elf/sysroot/lib/m54455\libc.a(lib_a-strncpy.o)
 .debug_abbrev  0x0001b586       0x95 c:/nburn/gcc-m68k/bin/../m68k-unknown-elf/sysroot/lib/m54455\libc.a(lib_a-strstr.o)
 .debug_abbrev  0x0001b61b      0x1fd c:/nburn/gcc-m68k/bin/../m68k-unknown-elf/sysroot/lib/m54455\libc.a(lib_a-strtol.o)
 .debug_abbrev  0x0001b818       0x74 c:/nburn/gcc-m68k/bin/../m68k-unknown-elf/sysroot/lib/m54455\libc.a(lib_a-tolower.o)
 .debug_abbrev  0x0001b88c       0x74 c:/nburn/gcc-m68k/bin/../m68k-unknown-elf/sysroot/lib/m54455\libc.a(lib_a-toupper.o)
 .debug_abbrev  0x0001b900      0x21f c:/nburn/gcc-m68k/bin/../m68k-unknown-elf/sysroot/lib/m54455\libc.a(lib_a-wbuf.o)
 .debug_abbrev  0x0001bb1f      0x1d2 c:/nburn/gcc-m68k/bin/../m68k-unknown-elf/sysroot/lib/m54455\libc.a(lib_a-wsetup.o)
 .debug_abbrev  0x0001bcf1      0x1f4 c:/nburn/gcc-m68k/bin/../m68k-unknown-elf/sysroot/lib/m54455\libc.a(lib_a-__atexit.o)
 .debug_abbrev  0x0001bee5       0x4c c:/nburn/gcc-m68k/bin/../m68k-unknown-elf/sysroot/lib/m54455\libc.a(lib_a-ctype_.o)
 .debug_abbrev  0x0001bf31      0x25b c:/nburn/gcc-m68k/bin/../m68k-unknown-elf/sysroot/lib/m54455\libc.a(lib_a-fflush.o)
 .debug_abbrev  0x0001c18c      0x314 c:/nburn/gcc-m68k/bin/../m68k-unknown-elf/sysroot/lib/m54455\libc.a(lib_a-findfp.o)
 .debug_abbrev  0x0001c4a0      0x242 c:/nburn/gcc-m68k/bin/../m68k-unknown-elf/sysroot/lib/m54455\libc.a(lib_a-freer.o)
 .debug_abbrev  0x0001c6e2      0x1b7 c:/nburn/gcc-m68k/bin/../m68k-unknown-elf/sysroot/lib/m54455\libc.a(lib_a-fwalk.o)
 .debug_abbrev  0x0001c899      0x1d4 c:/nburn/gcc-m68k/bin/../m68k-unknown-elf/sysroot/lib/m54455\libc.a(lib_a-makebuf.o)
 .debug_abbrev  0x0001ca6d      0x219 c:/nburn/gcc-m68k/bin/../m68k-unknown-elf/sysroot/lib/m54455\libc.a(lib_a-refill.o)
 .debug_abbrev  0x0001cc86      0x200 c:/nburn/gcc-m68k/bin/../m68k-unknown-elf/sysroot/lib/m54455\libc.a(lib_a-stdio.o)
 .debug_abbrev  0x0001ce86      0x1ce c:/nburn/gcc-m68k/bin/../m68k-unknown-elf/sysroot/lib/m54455\libc.a(lib_a-writer.o)
 .debug_abbrev  0x0001d054      0x1c9 c:/nburn/gcc-m68k/bin/../m68k-unknown-elf/sysroot/lib/m54455\libc.a(lib_a-closer.o)
 .debug_abbrev  0x0001d21d      0x261 c:/nburn/gcc-m68k/bin/../m68k-unknown-elf/sysroot/lib/m54455\libc.a(lib_a-fclose.o)
 .debug_abbrev  0x0001d47e      0x1d8 c:/nburn/gcc-m68k/bin/../m68k-unknown-elf/sysroot/lib/m54455\libc.a(lib_a-fstatr.o)
 .debug_abbrev  0x0001d656      0x1c9 c:/nburn/gcc-m68k/bin/../m68k-unknown-elf/sysroot/lib/m54455\libc.a(lib_a-isattyr.o)
 .debug_abbrev  0x0001d81f      0x1d8 c:/nburn/gcc-m68k/bin/../m68k-unknown-elf/sysroot/lib/m54455\libc.a(lib_a-lseekr.o)
 .debug_abbrev  0x0001d9f7      0x1c9 c:/nburn/gcc-m68k/bin/../m68k-unknown-elf/sysroot/lib/m54455\libc.a(lib_a-readr.o)

.debug_line     0x00000000    0x22625
 *(.debug_line)
 .debug_line    0x00000000      0x37e main.od
 .debug_line    0x0000037e      0x1ea Utility.od
 .debug_line    0x00000568      0x1d0 Nav.od
 .debug_line    0x00000738      0x605 Logger.od
 .debug_line    0x00000d3d      0x266 Drivers\servodrive.od
 .debug_line    0x00000fa3      0x1f2 Drivers\pwm.od
 .debug_line    0x00001195      0x5f1 Drivers\introspec.od
 .debug_line    0x00001786      0x109 Drivers\dsm2.od
 .debug_line    0x0000188f      0x167 Drivers\SpinningLidar.od
 .debug_line    0x000019f6      0x13a Drivers\Odometer.od
 .debug_line    0x00001b30       0xed Drivers\MadgwickFilter.od
 .debug_line    0x00001c1d      0x686 Drivers\MPU9250.od
 .debug_line    0x000022a3      0x10b Drivers\LidarPWM.od
 .debug_line    0x000023ae       0xfa Drivers\LCD.od
 .debug_line    0x000024a8      0x3e1 Drivers\IMUSetupAndSample.od
 .debug_line    0x00002889       0x7d htmldata.od
 .debug_line    0x00002906      0x6b1 C:\Nburn/lib/DBNANO54415.a(serial.od)
 .debug_line    0x00002fb7      0x3a1 C:\Nburn/lib/DBNANO54415.a(pins.od)
 .debug_line    0x00003358       0xc3 C:\Nburn/lib/DBNANO54415.a(SimpleAD.od)
 .debug_line    0x0000341b      0x19e C:\Nburn/lib/DBNANO54415.a(FlashOps.od)
 .debug_line    0x000035b9      0x2ec C:\Nburn/lib/DBNANO54415.a(HiResTimer.od)
 .debug_line    0x000038a5       0x79 C:\Nburn/lib/DBNANO54415.a(netwait.od)
 .debug_line    0x0000391e      0x104 C:\Nburn/lib/DBNANO54415.a(pin_irq.od)
 .debug_line    0x00003a22      0xbf4 C:\Nburn/lib/DBNANO54415.a(dbethernet.od)
 .debug_line    0x00004616      0x20d C:\Nburn/lib/DBNANO54415.a(bsp.od)
 .debug_line    0x00004823       0xdd C:\Nburn/lib/DBNANO54415.a(localio.od)
 .debug_line    0x00004900       0x8f C:\Nburn/lib/DBNANO54415.a(userparam.od)
 .debug_line    0x0000498f      0x214 C:\Nburn/lib/DBNANO54415.a(multichanneli2c.od)
 .debug_line    0x00004ba3       0xcb C:\Nburn/lib/DBNANO54415.a(defpins.od)
 .debug_line    0x00004c6e      0x9e3 C:\Nburn/lib/DBNANO54415.a(ethernet.od)
 .debug_line    0x00005651      0x2fc C:\Nburn/lib/DBNANO54415.a(etherprint.od)
 .debug_line    0x0000594d      0x1bc C:\Nburn/lib/DBNANO54415.a(emulticast.od)
 .debug_line    0x00005b09      0x23c C:\Nburn/lib/DBNANO54415.a(SPIFlash.od)
 .debug_line    0x00005d45       0x81 C:\Nburn/lib/DBNANO54415.a(ethernetauxdb.od)
 .debug_line    0x00005dc6      0x1ae C:\Nburn/lib/DBNANO54415.a(ether2nd.od)
 .debug_line    0x00005f74      0x23f C:\Nburn/lib/DBNANO54415.a(etherswitch.od)
 .debug_line    0x000061b3       0x36 C:\Nburn/lib/DBNANO54415.a(weak_autoenet_var.od)
 .debug_line    0x000061e9      0x486 C:\Nburn/lib/DBNANO54415.a(i2c_class.od)
 .debug_line    0x0000666f       0x48 C:\Nburn/lib/DBNetBurner.a(main.od)
 .debug_line    0x000066b7      0x10c C:\Nburn/lib/DBNetBurner.a(ucosmcfc.od)
 .debug_line    0x000067c3      0x444 C:\Nburn/lib/DBNetBurner.a(ucos.od)
 .debug_line    0x00006c07       0x7b C:\Nburn/lib/DBNetBurner.a(cppmain.od)
 .debug_line    0x00006c82       0x83 C:\Nburn/lib/DBNetBurner.a(debugtrap.od)
 .debug_line    0x00006d05      0x1d0 C:\Nburn/lib/DBNetBurner.a(ucosmain.od)
 .debug_line    0x00006ed5      0x262 C:\Nburn/lib/DBNetBurner.a(fileio.od)
 .debug_line    0x00007137      0x2e8 C:\Nburn/lib/DBNetBurner.a(system.od)
 .debug_line    0x0000741f      0x5e4 C:\Nburn/lib/DBNetBurner.a(utils.od)
 .debug_line    0x00007a03      0x722 C:\Nburn/lib/DBNetBurner.a(ip.od)
 .debug_line    0x00008125      0x515 C:\Nburn/lib/DBNetBurner.a(buffers.od)
 .debug_line    0x0000863a      0x8d1 C:\Nburn/lib/DBNetBurner.a(arp.od)
 .debug_line    0x00008f0b      0x778 C:\Nburn/lib/DBNetBurner.a(udp.od)
 .debug_line    0x00009683      0x60f C:\Nburn/lib/DBNetBurner.a(ftpd.od)
 .debug_line    0x00009c92     0x1daa C:\Nburn/lib/DBNetBurner.a(tcp.od)
 .debug_line    0x0000ba3c      0x145 C:\Nburn/lib/DBNetBurner.a(extraio.od)
 .debug_line    0x0000bb81      0x30f C:\Nburn/lib/DBNetBurner.a(http.od)
 .debug_line    0x0000be90      0x3e7 C:\Nburn/lib/DBNetBurner.a(httpinternal.od)
 .debug_line    0x0000c277       0x7b C:\Nburn/lib/DBNetBurner.a(httpstricmp.od)
 .debug_line    0x0000c2f2      0x27d C:\Nburn/lib/DBNetBurner.a(htmldecomp.od)
 .debug_line    0x0000c56f      0x298 C:\Nburn/lib/DBNetBurner.a(iosys.od)
 .debug_line    0x0000c807      0x171 C:\Nburn/lib/DBNetBurner.a(new_ops.od)
 .debug_line    0x0000c978      0x27a C:\Nburn/lib/DBNetBurner.a(autoip.od)
 .debug_line    0x0000cbf2      0x961 C:\Nburn/lib/DBNetBurner.a(dhcpc.od)
 .debug_line    0x0000d553      0x116 C:\Nburn/lib/DBNetBurner.a(netrx.od)
 .debug_line    0x0000d669      0x224 C:\Nburn/lib/DBNetBurner.a(netinterface.od)
 .debug_line    0x0000d88d      0x18d C:\Nburn/lib/DBNetBurner.a(multiconfig.od)
 .debug_line    0x0000da1a      0x1ee C:\Nburn/lib/DBNetBurner.a(taskmon.od)
 .debug_line    0x0000dc08      0x208 C:\Nburn/lib/DBNetBurner.a(smarttrap.od)
 .debug_line    0x0000de10      0x2ae C:\Nburn/lib/DBNetBurner.a(autoupdate.od)
 .debug_line    0x0000e0be       0xb7 C:\Nburn/lib/DBNetBurner.a(device.od)
 .debug_line    0x0000e175      0x1a6 C:\Nburn/lib/DBNetBurner.a(base64.od)
 .debug_line    0x0000e31b      0x8ae C:\Nburn/lib/DBNetBurner.a(nbiprintf.od)
 .debug_line    0x0000ebc9       0x78 C:\Nburn/lib/DBNetBurner.a(nbprintf.od)
 .debug_line    0x0000ec41       0x9f C:\Nburn/lib/DBNetBurner.a(nbsiprintf.od)
 .debug_line    0x0000ece0      0x193 C:\Nburn/lib/DBNetBurner.a(nbsprintf.od)
 .debug_line    0x0000ee73       0x3f C:\Nburn/lib/DBNetBurner.a(weakumain.od)
 .debug_line    0x0000eeb2       0x3d C:\Nburn/lib/DBNetBurner.a(cusermain.od)
 .debug_line    0x0000eeef       0x7e C:\Nburn/lib/DBNetBurner.a(fdprintf.od)
 .debug_line    0x0000ef6d       0xaa C:\Nburn/lib/DBNetBurner.a(websocket_handler.od)
 .debug_line    0x0000f017      0x3a9 C:\Nburn/lib/DBNetBurner.a(ipv6_addr.od)
 .debug_line    0x0000f3c0      0x3a3 C:\Nburn/lib/DBNetBurner.a(ipv6_tcp.od)
 .debug_line    0x0000f763     0x20b3 C:\Nburn/lib/DBNetBurner.a(ipv6_ip.od)
 .debug_line    0x00011816      0x3bc C:\Nburn/lib/DBNetBurner.a(ipv6_udp.od)
 .debug_line    0x00011bd2       0xba C:\Nburn/lib/DBNetBurner.a(ipv6_printhelp.od)
 .debug_line    0x00011c8c      0x2c2 C:\Nburn/lib/DBNetBurner.a(ipv6_extensions.od)
 .debug_line    0x00011f4e      0x37c C:\Nburn/lib/DBNetBurner.a(ipv6_multicast.od)
 .debug_line    0x000122ca      0x271 C:\Nburn/lib/DBNetBurner.a(ipv6_show.od)
 .debug_line    0x0001253b      0x7b6 C:\Nburn/lib/DBNetBurner.a(ipv6_dhcp.od)
 .debug_line    0x00012cf1      0x5b6 C:\Nburn/lib/DBNetBurner.a(multicast.od)
 .debug_line    0x000132a7      0x13e C:\Nburn/lib/DBNetBurner.a(random.od)
 .debug_line    0x000133e5      0x36b C:\Nburn/lib/DBNetBurner.a(nbfloatprint.od)
 .debug_line    0x00013750       0x6c C:\Nburn/lib/DBNetBurner.a(fdiprintf.od)
 .debug_line    0x000137bc      0x234 C:\Nburn/lib/DBNetBurner.a(md5c.od)
 .debug_line    0x000139f0      0x211 c:/nburn/gcc-m68k/bin/../m68k-unknown-elf/sysroot/lib/m54455\libstdc++.a(pure.o)
 .debug_line    0x00013c01      0x3b1 c:/nburn/gcc-m68k/bin/../m68k-unknown-elf/sysroot/lib/m54455\libstdc++.a(eh_terminate.o)
 .debug_line    0x00013fb2      0x24e c:/nburn/gcc-m68k/bin/../m68k-unknown-elf/sysroot/lib/m54455\libstdc++.a(del_op.o)
 .debug_line    0x00014200      0x120 c:/nburn/gcc-m68k/bin/../m68k-unknown-elf/sysroot/lib/m54455\libstdc++.a(del_ops.o)
 .debug_line    0x00014320      0x19f c:/nburn/gcc-m68k/bin/../m68k-unknown-elf/sysroot/lib/m54455\libstdc++.a(eh_unex_handler.o)
 .debug_line    0x000144bf      0x19f c:/nburn/gcc-m68k/bin/../m68k-unknown-elf/sysroot/lib/m54455\libstdc++.a(eh_term_handler.o)
 .debug_line    0x0001465e      0x301 c:/nburn/gcc-m68k/bin/../m68k-unknown-elf/sysroot/lib/m54455\libstdc++.a(eh_catch.o)
 .debug_line    0x0001495f      0x5da c:/nburn/gcc-m68k/bin/../m68k-unknown-elf/sysroot/lib/m54455\libstdc++.a(eh_personality.o)
 .debug_line    0x00014f39      0x250 c:/nburn/gcc-m68k/bin/../m68k-unknown-elf/sysroot/lib/m54455\libstdc++.a(eh_exception.o)
 .debug_line    0x00015189      0x288 c:/nburn/gcc-m68k/bin/../m68k-unknown-elf/sysroot/lib/m54455\libstdc++.a(eh_globals.o)
 .debug_line    0x00015411      0x31b c:/nburn/gcc-m68k/bin/../m68k-unknown-elf/sysroot/lib/m54455\libstdc++.a(vterminate.o)
 .debug_line    0x0001572c      0x411 c:/nburn/gcc-m68k/bin/../m68k-unknown-elf/sysroot/lib/m54455\libstdc++.a(eh_alloc.o)
 .debug_line    0x00015b3d      0xfa4 c:/nburn/gcc-m68k/bin/../m68k-unknown-elf/sysroot/lib/m54455\libstdc++.a(cp-demangle.o)
 .debug_line    0x00016ae1      0x28b c:/nburn/gcc-m68k/bin/../m68k-unknown-elf/sysroot/lib/m54455\libstdc++.a(eh_throw.o)
 .debug_line    0x00016d6c      0x1b8 c:/nburn/gcc-m68k/bin/../m68k-unknown-elf/sysroot/lib/m54455\libstdc++.a(eh_type.o)
 .debug_line    0x00016f24      0x23c c:/nburn/gcc-m68k/bin/../m68k-unknown-elf/sysroot/lib/m54455\libstdc++.a(si_class_type_info.o)
 .debug_line    0x00017160      0x288 c:/nburn/gcc-m68k/bin/../m68k-unknown-elf/sysroot/lib/m54455\libstdc++.a(eh_call.o)
 .debug_line    0x000173e8      0x282 c:/nburn/gcc-m68k/bin/../m68k-unknown-elf/sysroot/lib/m54455\libstdc++.a(class_type_info.o)
 .debug_line    0x0001766a      0x18a c:/nburn/gcc-m68k/bin/../m68k-unknown-elf/sysroot/lib/m54455\libstdc++.a(tinfo.o)
 .debug_line    0x000177f4      0x17b c:/nburn/gcc-m68k/bin/../m68k-unknown-elf/sysroot/lib/m54455\libm.a(lib_a-s_cos.o)
 .debug_line    0x0001796f      0x144 c:/nburn/gcc-m68k/bin/../m68k-unknown-elf/sysroot/lib/m54455\libm.a(lib_a-s_fpclassify.o)
 .debug_line    0x00017ab3      0x13d c:/nburn/gcc-m68k/bin/../m68k-unknown-elf/sysroot/lib/m54455\libm.a(lib_a-s_modf.o)
 .debug_line    0x00017bf0      0x150 c:/nburn/gcc-m68k/bin/../m68k-unknown-elf/sysroot/lib/m54455\libm.a(lib_a-s_round.o)
 .debug_line    0x00017d40      0x17c c:/nburn/gcc-m68k/bin/../m68k-unknown-elf/sysroot/lib/m54455\libm.a(lib_a-s_sin.o)
 .debug_line    0x00017ebc      0x10a c:/nburn/gcc-m68k/bin/../m68k-unknown-elf/sysroot/lib/m54455\libm.a(lib_a-w_atan2.o)
 .debug_line    0x00017fc6      0x22a c:/nburn/gcc-m68k/bin/../m68k-unknown-elf/sysroot/lib/m54455\libm.a(lib_a-w_pow.o)
 .debug_line    0x000181f0      0x171 c:/nburn/gcc-m68k/bin/../m68k-unknown-elf/sysroot/lib/m54455\libm.a(lib_a-w_sqrt.o)
 .debug_line    0x00018361      0x174 c:/nburn/gcc-m68k/bin/../m68k-unknown-elf/sysroot/lib/m54455\libm.a(lib_a-wf_asin.o)
 .debug_line    0x000184d5      0x10a c:/nburn/gcc-m68k/bin/../m68k-unknown-elf/sysroot/lib/m54455\libm.a(lib_a-wf_atan2.o)
 .debug_line    0x000185df      0x174 c:/nburn/gcc-m68k/bin/../m68k-unknown-elf/sysroot/lib/m54455\libm.a(lib_a-wf_sqrt.o)
 .debug_line    0x00018753      0x1e6 c:/nburn/gcc-m68k/bin/../m68k-unknown-elf/sysroot/lib/m54455\libm.a(lib_a-e_atan2.o)
 .debug_line    0x00018939      0x32f c:/nburn/gcc-m68k/bin/../m68k-unknown-elf/sysroot/lib/m54455\libm.a(lib_a-e_pow.o)
 .debug_line    0x00018c68      0x20b c:/nburn/gcc-m68k/bin/../m68k-unknown-elf/sysroot/lib/m54455\libm.a(lib_a-e_rem_pio2.o)
 .debug_line    0x00018e73      0x1b4 c:/nburn/gcc-m68k/bin/../m68k-unknown-elf/sysroot/lib/m54455\libm.a(lib_a-e_sqrt.o)
 .debug_line    0x00019027      0x1a0 c:/nburn/gcc-m68k/bin/../m68k-unknown-elf/sysroot/lib/m54455\libm.a(lib_a-ef_asin.o)
 .debug_line    0x000191c7      0x1d1 c:/nburn/gcc-m68k/bin/../m68k-unknown-elf/sysroot/lib/m54455\libm.a(lib_a-ef_atan2.o)
 .debug_line    0x00019398      0x15f c:/nburn/gcc-m68k/bin/../m68k-unknown-elf/sysroot/lib/m54455\libm.a(lib_a-ef_sqrt.o)
 .debug_line    0x000194f7      0x134 c:/nburn/gcc-m68k/bin/../m68k-unknown-elf/sysroot/lib/m54455\libm.a(lib_a-k_cos.o)
 .debug_line    0x0001962b      0x356 c:/nburn/gcc-m68k/bin/../m68k-unknown-elf/sysroot/lib/m54455\libm.a(lib_a-k_rem_pio2.o)
 .debug_line    0x00019981       0xe5 c:/nburn/gcc-m68k/bin/../m68k-unknown-elf/sysroot/lib/m54455\libm.a(lib_a-k_sin.o)
 .debug_line    0x00019a66      0x1b5 c:/nburn/gcc-m68k/bin/../m68k-unknown-elf/sysroot/lib/m54455\libm.a(lib_a-s_atan.o)
 .debug_line    0x00019c1b      0x164 c:/nburn/gcc-m68k/bin/../m68k-unknown-elf/sysroot/lib/m54455\libm.a(lib_a-s_fabs.o)
 .debug_line    0x00019d7f      0x117 c:/nburn/gcc-m68k/bin/../m68k-unknown-elf/sysroot/lib/m54455\libm.a(lib_a-s_finite.o)
 .debug_line    0x00019e96      0x1a4 c:/nburn/gcc-m68k/bin/../m68k-unknown-elf/sysroot/lib/m54455\libm.a(lib_a-s_floor.o)
 .debug_line    0x0001a03a       0xad c:/nburn/gcc-m68k/bin/../m68k-unknown-elf/sysroot/lib/m54455\libm.a(lib_a-s_lib_ver.o)
 .debug_line    0x0001a0e7       0xc0 c:/nburn/gcc-m68k/bin/../m68k-unknown-elf/sysroot/lib/m54455\libm.a(lib_a-s_matherr.o)
 .debug_line    0x0001a1a7       0xc1 c:/nburn/gcc-m68k/bin/../m68k-unknown-elf/sysroot/lib/m54455\libm.a(lib_a-s_nan.o)
 .debug_line    0x0001a268      0x163 c:/nburn/gcc-m68k/bin/../m68k-unknown-elf/sysroot/lib/m54455\libm.a(lib_a-s_rint.o)
 .debug_line    0x0001a3cb      0x158 c:/nburn/gcc-m68k/bin/../m68k-unknown-elf/sysroot/lib/m54455\libm.a(lib_a-s_scalbn.o)
 .debug_line    0x0001a523      0x1a9 c:/nburn/gcc-m68k/bin/../m68k-unknown-elf/sysroot/lib/m54455\libm.a(lib_a-sf_atan.o)
 .debug_line    0x0001a6cc      0x163 c:/nburn/gcc-m68k/bin/../m68k-unknown-elf/sysroot/lib/m54455\libm.a(lib_a-sf_fabs.o)
 .debug_line    0x0001a82f      0x122 c:/nburn/gcc-m68k/bin/../m68k-unknown-elf/sysroot/lib/m54455\libm.a(lib_a-sf_fpclassify.o)
 .debug_line    0x0001a951      0x128 c:/nburn/gcc-m68k/bin/../m68k-unknown-elf/sysroot/lib/m54455\libm.a(lib_a-s_copysign.o)
 .debug_line    0x0001aa79      0x461 c:/nburn/gcc-m68k/bin/../lib/gcc/m68k-unknown-elf/5.2.0/m54455\libgcc.a(_double.o)
 .debug_line    0x0001aeda      0x2f9 c:/nburn/gcc-m68k/bin/../lib/gcc/m68k-unknown-elf/5.2.0/m54455\libgcc.a(_float.o)
 .debug_line    0x0001b1d3       0x8f c:/nburn/gcc-m68k/bin/../lib/gcc/m68k-unknown-elf/5.2.0/m54455\libgcc.a(_floatex.o)
 .debug_line    0x0001b262       0x7a c:/nburn/gcc-m68k/bin/../lib/gcc/m68k-unknown-elf/5.2.0/m54455\libgcc.a(_eqdf2.o)
 .debug_line    0x0001b2dc       0x7a c:/nburn/gcc-m68k/bin/../lib/gcc/m68k-unknown-elf/5.2.0/m54455\libgcc.a(_nedf2.o)
 .debug_line    0x0001b356       0x7a c:/nburn/gcc-m68k/bin/../lib/gcc/m68k-unknown-elf/5.2.0/m54455\libgcc.a(_gtdf2.o)
 .debug_line    0x0001b3d0       0x7a c:/nburn/gcc-m68k/bin/../lib/gcc/m68k-unknown-elf/5.2.0/m54455\libgcc.a(_gedf2.o)
 .debug_line    0x0001b44a       0x7a c:/nburn/gcc-m68k/bin/../lib/gcc/m68k-unknown-elf/5.2.0/m54455\libgcc.a(_ltdf2.o)
 .debug_line    0x0001b4c4       0x7a c:/nburn/gcc-m68k/bin/../lib/gcc/m68k-unknown-elf/5.2.0/m54455\libgcc.a(_ledf2.o)
 .debug_line    0x0001b53e       0x78 c:/nburn/gcc-m68k/bin/../lib/gcc/m68k-unknown-elf/5.2.0/m54455\libgcc.a(_eqsf2.o)
 .debug_line    0x0001b5b6       0x78 c:/nburn/gcc-m68k/bin/../lib/gcc/m68k-unknown-elf/5.2.0/m54455\libgcc.a(_gtsf2.o)
 .debug_line    0x0001b62e       0x78 c:/nburn/gcc-m68k/bin/../lib/gcc/m68k-unknown-elf/5.2.0/m54455\libgcc.a(_ltsf2.o)
 .debug_line    0x0001b6a6       0x7c c:/nburn/gcc-m68k/bin/../lib/gcc/m68k-unknown-elf/5.2.0/m54455\libgcc.a(_muldi3.o)
 .debug_line    0x0001b722       0x7f c:/nburn/gcc-m68k/bin/../lib/gcc/m68k-unknown-elf/5.2.0/m54455\libgcc.a(_fixunsdfsi.o)
 .debug_line    0x0001b7a1       0x7f c:/nburn/gcc-m68k/bin/../lib/gcc/m68k-unknown-elf/5.2.0/m54455\libgcc.a(_fixunsdfdi.o)
 .debug_line    0x0001b820      0x112 c:/nburn/gcc-m68k/bin/../lib/gcc/m68k-unknown-elf/5.2.0/m54455\libgcc.a(_udivdi3.o)
 .debug_line    0x0001b932      0x114 c:/nburn/gcc-m68k/bin/../lib/gcc/m68k-unknown-elf/5.2.0/m54455\libgcc.a(_umoddi3.o)
 .debug_line    0x0001ba46      0x1c0 c:/nburn/gcc-m68k/bin/../lib/gcc/m68k-unknown-elf/5.2.0/m54455\libgcc.a(fpgnulib.o)
 .debug_line    0x0001bc06      0xdc7 c:/nburn/gcc-m68k/bin/../lib/gcc/m68k-unknown-elf/5.2.0/m54455\libgcc.a(unwind-dw2.o)
 .debug_line    0x0001c9cd      0x756 c:/nburn/gcc-m68k/bin/../lib/gcc/m68k-unknown-elf/5.2.0/m54455\libgcc.a(unwind-dw2-fde.o)
 .debug_line    0x0001d123      0x114 c:/nburn/gcc-m68k/bin/../m68k-unknown-elf/sysroot/lib/m54455\libc.a(lib_a-abort.o)
 .debug_line    0x0001d237       0xc9 c:/nburn/gcc-m68k/bin/../m68k-unknown-elf/sysroot/lib/m54455\libc.a(lib_a-atexit.o)
 .debug_line    0x0001d300      0x186 c:/nburn/gcc-m68k/bin/../m68k-unknown-elf/sysroot/lib/m54455\libc.a(lib_a-atoi.o)
 .debug_line    0x0001d486      0x13a c:/nburn/gcc-m68k/bin/../m68k-unknown-elf/sysroot/lib/m54455\libc.a(lib_a-bsearch.o)
 .debug_line    0x0001d5c0      0x125 c:/nburn/gcc-m68k/bin/../m68k-unknown-elf/sysroot/lib/m54455\libc.a(lib_a-bzero.o)
 .debug_line    0x0001d6e5       0x87 c:/nburn/gcc-m68k/bin/../m68k-unknown-elf/sysroot/lib/m54455\libc.a(lib_a-cxa_atexit.o)
 .debug_line    0x0001d76c      0x144 c:/nburn/gcc-m68k/bin/../m68k-unknown-elf/sysroot/lib/m54455\libc.a(lib_a-errno.o)
 .debug_line    0x0001d8b0      0x1a3 c:/nburn/gcc-m68k/bin/../m68k-unknown-elf/sysroot/lib/m54455\libc.a(lib_a-fputc.o)
 .debug_line    0x0001da53      0x1d9 c:/nburn/gcc-m68k/bin/../m68k-unknown-elf/sysroot/lib/m54455\libc.a(lib_a-fputs.o)
 .debug_line    0x0001dc2c      0x2ac c:/nburn/gcc-m68k/bin/../m68k-unknown-elf/sysroot/lib/m54455\libc.a(lib_a-fvwrite.o)
 .debug_line    0x0001ded8      0x1d6 c:/nburn/gcc-m68k/bin/../m68k-unknown-elf/sysroot/lib/m54455\libc.a(lib_a-fwrite.o)
 .debug_line    0x0001e0ae      0x12a c:/nburn/gcc-m68k/bin/../m68k-unknown-elf/sysroot/lib/m54455\libc.a(lib_a-impure.o)
 .debug_line    0x0001e1d8       0xc0 c:/nburn/gcc-m68k/bin/../m68k-unknown-elf/sysroot/lib/m54455\libc.a(lib_a-isalnum.o)
 .debug_line    0x0001e298       0xc0 c:/nburn/gcc-m68k/bin/../m68k-unknown-elf/sysroot/lib/m54455\libc.a(lib_a-isspace.o)
 .debug_line    0x0001e358      0x188 c:/nburn/gcc-m68k/bin/../m68k-unknown-elf/sysroot/lib/m54455\libc.a(lib_a-malloc.o)
 .debug_line    0x0001e4e0      0x2ff c:/nburn/gcc-m68k/bin/../m68k-unknown-elf/sysroot/lib/m54455\libc.a(lib_a-mallocr.o)
 .debug_line    0x0001e7df      0x129 c:/nburn/gcc-m68k/bin/../m68k-unknown-elf/sysroot/lib/m54455\libc.a(lib_a-memchr.o)
 .debug_line    0x0001e908      0x12a c:/nburn/gcc-m68k/bin/../m68k-unknown-elf/sysroot/lib/m54455\libc.a(lib_a-memcmp.o)
 .debug_line    0x0001ea32      0x133 c:/nburn/gcc-m68k/bin/../m68k-unknown-elf/sysroot/lib/m54455\libc.a(lib_a-memmove.o)
 .debug_line    0x0001eb65      0x1cb c:/nburn/gcc-m68k/bin/../m68k-unknown-elf/sysroot/lib/m54455\libc.a(lib_a-putc.o)
 .debug_line    0x0001ed30      0x1d2 c:/nburn/gcc-m68k/bin/../m68k-unknown-elf/sysroot/lib/m54455\libc.a(lib_a-puts.o)
 .debug_line    0x0001ef02      0x18b c:/nburn/gcc-m68k/bin/../m68k-unknown-elf/sysroot/lib/m54455\libc.a(lib_a-rand.o)
 .debug_line    0x0001f08d      0x185 c:/nburn/gcc-m68k/bin/../m68k-unknown-elf/sysroot/lib/m54455\libc.a(lib_a-realloc.o)
 .debug_line    0x0001f212      0x27b c:/nburn/gcc-m68k/bin/../m68k-unknown-elf/sysroot/lib/m54455\libc.a(lib_a-reallocr.o)
 .debug_line    0x0001f48d      0x1a0 c:/nburn/gcc-m68k/bin/../m68k-unknown-elf/sysroot/lib/m54455\libc.a(lib_a-rget.o)
 .debug_line    0x0001f62d       0x84 c:/nburn/gcc-m68k/bin/../m68k-unknown-elf/sysroot/lib/m54455\libc.a(lib_a-setjmp.o)
 .debug_line    0x0001f6b1      0x1fa c:/nburn/gcc-m68k/bin/../m68k-unknown-elf/sysroot/lib/m54455\libc.a(lib_a-setvbuf.o)
 .debug_line    0x0001f8ab      0x207 c:/nburn/gcc-m68k/bin/../m68k-unknown-elf/sysroot/lib/m54455\libc.a(lib_a-signal.o)
 .debug_line    0x0001fab2      0x19e c:/nburn/gcc-m68k/bin/../m68k-unknown-elf/sysroot/lib/m54455\libc.a(lib_a-signalr.o)
 .debug_line    0x0001fc50       0xc5 c:/nburn/gcc-m68k/bin/../m68k-unknown-elf/sysroot/lib/m54455\libc.a(lib_a-strcat.o)
 .debug_line    0x0001fd15       0xcc c:/nburn/gcc-m68k/bin/../m68k-unknown-elf/sysroot/lib/m54455\libc.a(lib_a-strcmp.o)
 .debug_line    0x0001fde1       0xc8 c:/nburn/gcc-m68k/bin/../m68k-unknown-elf/sysroot/lib/m54455\libc.a(lib_a-strcpy.o)
 .debug_line    0x0001fea9      0x12f c:/nburn/gcc-m68k/bin/../m68k-unknown-elf/sysroot/lib/m54455\libc.a(lib_a-strlen.o)
 .debug_line    0x0001ffd8      0x136 c:/nburn/gcc-m68k/bin/../m68k-unknown-elf/sysroot/lib/m54455\libc.a(lib_a-strncmp.o)
 .debug_line    0x0002010e      0x12e c:/nburn/gcc-m68k/bin/../m68k-unknown-elf/sysroot/lib/m54455\libc.a(lib_a-strncpy.o)
 .debug_line    0x0002023c      0x12f c:/nburn/gcc-m68k/bin/../m68k-unknown-elf/sysroot/lib/m54455\libc.a(lib_a-strstr.o)
 .debug_line    0x0002036b      0x219 c:/nburn/gcc-m68k/bin/../m68k-unknown-elf/sysroot/lib/m54455\libc.a(lib_a-strtol.o)
 .debug_line    0x00020584       0xcf c:/nburn/gcc-m68k/bin/../m68k-unknown-elf/sysroot/lib/m54455\libc.a(lib_a-tolower.o)
 .debug_line    0x00020653       0xcf c:/nburn/gcc-m68k/bin/../m68k-unknown-elf/sysroot/lib/m54455\libc.a(lib_a-toupper.o)
 .debug_line    0x00020722      0x1dc c:/nburn/gcc-m68k/bin/../m68k-unknown-elf/sysroot/lib/m54455\libc.a(lib_a-wbuf.o)
 .debug_line    0x000208fe      0x1ec c:/nburn/gcc-m68k/bin/../m68k-unknown-elf/sysroot/lib/m54455\libc.a(lib_a-wsetup.o)
 .debug_line    0x00020aea      0x16a c:/nburn/gcc-m68k/bin/../m68k-unknown-elf/sysroot/lib/m54455\libc.a(lib_a-__atexit.o)
 .debug_line    0x00020c54       0x64 c:/nburn/gcc-m68k/bin/../m68k-unknown-elf/sysroot/lib/m54455\libc.a(lib_a-ctype_.o)
 .debug_line    0x00020cb8      0x246 c:/nburn/gcc-m68k/bin/../m68k-unknown-elf/sysroot/lib/m54455\libc.a(lib_a-fflush.o)
 .debug_line    0x00020efe      0x24f c:/nburn/gcc-m68k/bin/../m68k-unknown-elf/sysroot/lib/m54455\libc.a(lib_a-findfp.o)
 .debug_line    0x0002114d      0x1fe c:/nburn/gcc-m68k/bin/../m68k-unknown-elf/sysroot/lib/m54455\libc.a(lib_a-freer.o)
 .debug_line    0x0002134b      0x1d6 c:/nburn/gcc-m68k/bin/../m68k-unknown-elf/sysroot/lib/m54455\libc.a(lib_a-fwalk.o)
 .debug_line    0x00021521      0x1f9 c:/nburn/gcc-m68k/bin/../m68k-unknown-elf/sysroot/lib/m54455\libc.a(lib_a-makebuf.o)
 .debug_line    0x0002171a      0x1ed c:/nburn/gcc-m68k/bin/../m68k-unknown-elf/sysroot/lib/m54455\libc.a(lib_a-refill.o)
 .debug_line    0x00021907      0x1c6 c:/nburn/gcc-m68k/bin/../m68k-unknown-elf/sysroot/lib/m54455\libc.a(lib_a-stdio.o)
 .debug_line    0x00021acd      0x198 c:/nburn/gcc-m68k/bin/../m68k-unknown-elf/sysroot/lib/m54455\libc.a(lib_a-writer.o)
 .debug_line    0x00021c65      0x198 c:/nburn/gcc-m68k/bin/../m68k-unknown-elf/sysroot/lib/m54455\libc.a(lib_a-closer.o)
 .debug_line    0x00021dfd      0x1bf c:/nburn/gcc-m68k/bin/../m68k-unknown-elf/sysroot/lib/m54455\libc.a(lib_a-fclose.o)
 .debug_line    0x00021fbc      0x1a1 c:/nburn/gcc-m68k/bin/../m68k-unknown-elf/sysroot/lib/m54455\libc.a(lib_a-fstatr.o)
 .debug_line    0x0002215d      0x199 c:/nburn/gcc-m68k/bin/../m68k-unknown-elf/sysroot/lib/m54455\libc.a(lib_a-isattyr.o)
 .debug_line    0x000222f6      0x198 c:/nburn/gcc-m68k/bin/../m68k-unknown-elf/sysroot/lib/m54455\libc.a(lib_a-lseekr.o)
 .debug_line    0x0002248e      0x197 c:/nburn/gcc-m68k/bin/../m68k-unknown-elf/sysroot/lib/m54455\libc.a(lib_a-readr.o)

.debug_frame    0x00000000     0xeeb8
 *(.debug_frame)
 .debug_frame   0x00000000      0x1ac main.od
 .debug_frame   0x000001ac      0x134 Utility.od
 .debug_frame   0x000002e0      0x134 Nav.od
 .debug_frame   0x00000414      0x198 Logger.od
 .debug_frame   0x000005ac      0x160 Drivers\servodrive.od
 .debug_frame   0x0000070c       0xfc Drivers\pwm.od
 .debug_frame   0x00000808      0x46c Drivers\introspec.od
 .debug_frame   0x00000c74       0x4c Drivers\dsm2.od
 .debug_frame   0x00000cc0       0xb4 Drivers\SpinningLidar.od
 .debug_frame   0x00000d74       0xc0 Drivers\Odometer.od
 .debug_frame   0x00000e34       0x40 Drivers\MadgwickFilter.od
 .debug_frame   0x00000e74      0x350 Drivers\MPU9250.od
 .debug_frame   0x000011c4       0xa8 Drivers\LidarPWM.od
 .debug_frame   0x0000126c       0xd4 Drivers\LCD.od
 .debug_frame   0x00001340      0x1dc Drivers\IMUSetupAndSample.od
 .debug_frame   0x0000151c       0x44 htmldata.od
 .debug_frame   0x00001560      0x4e0 C:\Nburn/lib/DBNANO54415.a(serial.od)
 .debug_frame   0x00001a40       0xa4 C:\Nburn/lib/DBNANO54415.a(pins.od)
 .debug_frame   0x00001ae4       0x74 C:\Nburn/lib/DBNANO54415.a(SimpleAD.od)
 .debug_frame   0x00001b58      0x168 C:\Nburn/lib/DBNANO54415.a(FlashOps.od)
 .debug_frame   0x00001cc0      0x3a0 C:\Nburn/lib/DBNANO54415.a(HiResTimer.od)
 .debug_frame   0x00002060       0x2c C:\Nburn/lib/DBNANO54415.a(netwait.od)
 .debug_frame   0x0000208c       0xec C:\Nburn/lib/DBNANO54415.a(pin_irq.od)
 .debug_frame   0x00002178      0x7d0 C:\Nburn/lib/DBNANO54415.a(dbethernet.od)
 .debug_frame   0x00002948      0x188 C:\Nburn/lib/DBNANO54415.a(bsp.od)
 .debug_frame   0x00002ad0       0x8c C:\Nburn/lib/DBNANO54415.a(localio.od)
 .debug_frame   0x00002b5c       0x44 C:\Nburn/lib/DBNANO54415.a(userparam.od)
 .debug_frame   0x00002ba0      0x250 C:\Nburn/lib/DBNANO54415.a(multichanneli2c.od)
 .debug_frame   0x00002df0       0x5c C:\Nburn/lib/DBNANO54415.a(defpins.od)
 .debug_frame   0x00002e4c      0x5b4 C:\Nburn/lib/DBNANO54415.a(ethernet.od)
 .debug_frame   0x00003400      0x1a0 C:\Nburn/lib/DBNANO54415.a(etherprint.od)
 .debug_frame   0x000035a0       0xa0 C:\Nburn/lib/DBNANO54415.a(emulticast.od)
 .debug_frame   0x00003640      0x238 C:\Nburn/lib/DBNANO54415.a(SPIFlash.od)
 .debug_frame   0x00003878       0x5c C:\Nburn/lib/DBNANO54415.a(ethernetauxdb.od)
 .debug_frame   0x000038d4      0x11c C:\Nburn/lib/DBNANO54415.a(ether2nd.od)
 .debug_frame   0x000039f0      0x16c C:\Nburn/lib/DBNANO54415.a(etherswitch.od)
 .debug_frame   0x00003b5c      0x5c0 C:\Nburn/lib/DBNANO54415.a(i2c_class.od)
 .debug_frame   0x0000411c       0x44 C:\Nburn/lib/DBNetBurner.a(main.od)
 .debug_frame   0x00004160       0x78 C:\Nburn/lib/DBNetBurner.a(ucosmcfc.od)
 .debug_frame   0x000041d8      0x4b8 C:\Nburn/lib/DBNetBurner.a(ucos.od)
 .debug_frame   0x00004690       0x2c C:\Nburn/lib/DBNetBurner.a(cppmain.od)
 .debug_frame   0x000046bc       0x8c C:\Nburn/lib/DBNetBurner.a(debugtrap.od)
 .debug_frame   0x00004748      0x180 C:\Nburn/lib/DBNetBurner.a(ucosmain.od)
 .debug_frame   0x000048c8      0x19c C:\Nburn/lib/DBNetBurner.a(fileio.od)
 .debug_frame   0x00004a64      0x164 C:\Nburn/lib/DBNetBurner.a(system.od)
 .debug_frame   0x00004bc8      0x3a0 C:\Nburn/lib/DBNetBurner.a(utils.od)
 .debug_frame   0x00004f68      0x59c C:\Nburn/lib/DBNetBurner.a(ip.od)
 .debug_frame   0x00005504      0x440 C:\Nburn/lib/DBNetBurner.a(buffers.od)
 .debug_frame   0x00005944      0x624 C:\Nburn/lib/DBNetBurner.a(arp.od)
 .debug_frame   0x00005f68      0x6f8 C:\Nburn/lib/DBNetBurner.a(udp.od)
 .debug_frame   0x00006660      0x554 C:\Nburn/lib/DBNetBurner.a(ftpd.od)
 .debug_frame   0x00006bb4     0x14a0 C:\Nburn/lib/DBNetBurner.a(tcp.od)
 .debug_frame   0x00008054      0x134 C:\Nburn/lib/DBNetBurner.a(extraio.od)
 .debug_frame   0x00008188      0x158 C:\Nburn/lib/DBNetBurner.a(http.od)
 .debug_frame   0x000082e0      0x328 C:\Nburn/lib/DBNetBurner.a(httpinternal.od)
 .debug_frame   0x00008608       0x2c C:\Nburn/lib/DBNetBurner.a(httpstricmp.od)
 .debug_frame   0x00008634      0x198 C:\Nburn/lib/DBNetBurner.a(htmldecomp.od)
 .debug_frame   0x000087cc      0x308 C:\Nburn/lib/DBNetBurner.a(iosys.od)
 .debug_frame   0x00008ad4       0x2c C:\Nburn/lib/DBNetBurner.a(new_ops.od)
 .debug_frame   0x00008b00      0x250 C:\Nburn/lib/DBNetBurner.a(autoip.od)
 .debug_frame   0x00008d50      0x77c C:\Nburn/lib/DBNetBurner.a(dhcpc.od)
 .debug_frame   0x000094cc       0x34 C:\Nburn/lib/DBNetBurner.a(netrx.od)
 .debug_frame   0x00009500      0x284 C:\Nburn/lib/DBNetBurner.a(netinterface.od)
 .debug_frame   0x00009784       0x8c C:\Nburn/lib/DBNetBurner.a(multiconfig.od)
 .debug_frame   0x00009810       0x80 C:\Nburn/lib/DBNetBurner.a(taskmon.od)
 .debug_frame   0x00009890       0xdc C:\Nburn/lib/DBNetBurner.a(smarttrap.od)
 .debug_frame   0x0000996c       0xf4 C:\Nburn/lib/DBNetBurner.a(autoupdate.od)
 .debug_frame   0x00009a60       0xbc C:\Nburn/lib/DBNetBurner.a(device.od)
 .debug_frame   0x00009b1c      0x17c C:\Nburn/lib/DBNetBurner.a(base64.od)
 .debug_frame   0x00009c98      0x228 C:\Nburn/lib/DBNetBurner.a(nbiprintf.od)
 .debug_frame   0x00009ec0       0x2c C:\Nburn/lib/DBNetBurner.a(nbprintf.od)
 .debug_frame   0x00009eec       0x60 C:\Nburn/lib/DBNetBurner.a(nbsiprintf.od)
 .debug_frame   0x00009f4c      0x104 C:\Nburn/lib/DBNetBurner.a(nbsprintf.od)
 .debug_frame   0x0000a050       0x2c C:\Nburn/lib/DBNetBurner.a(weakumain.od)
 .debug_frame   0x0000a07c       0x2c C:\Nburn/lib/DBNetBurner.a(cusermain.od)
 .debug_frame   0x0000a0a8       0x2c C:\Nburn/lib/DBNetBurner.a(fdprintf.od)
 .debug_frame   0x0000a0d4      0x30c C:\Nburn/lib/DBNetBurner.a(ipv6_addr.od)
 .debug_frame   0x0000a3e0      0x244 C:\Nburn/lib/DBNetBurner.a(ipv6_tcp.od)
 .debug_frame   0x0000a624     0x13f8 C:\Nburn/lib/DBNetBurner.a(ipv6_ip.od)
 .debug_frame   0x0000ba1c      0x2ec C:\Nburn/lib/DBNetBurner.a(ipv6_udp.od)
 .debug_frame   0x0000bd08       0x44 C:\Nburn/lib/DBNetBurner.a(ipv6_printhelp.od)
 .debug_frame   0x0000bd4c      0x14c C:\Nburn/lib/DBNetBurner.a(ipv6_extensions.od)
 .debug_frame   0x0000be98      0x1d0 C:\Nburn/lib/DBNetBurner.a(ipv6_multicast.od)
 .debug_frame   0x0000c068      0x1e4 C:\Nburn/lib/DBNetBurner.a(ipv6_show.od)
 .debug_frame   0x0000c24c      0x6a8 C:\Nburn/lib/DBNetBurner.a(ipv6_dhcp.od)
 .debug_frame   0x0000c8f4      0x408 C:\Nburn/lib/DBNetBurner.a(multicast.od)
 .debug_frame   0x0000ccfc      0x10c C:\Nburn/lib/DBNetBurner.a(random.od)
 .debug_frame   0x0000ce08      0x134 C:\Nburn/lib/DBNetBurner.a(nbfloatprint.od)
 .debug_frame   0x0000cf3c       0x44 C:\Nburn/lib/DBNetBurner.a(fdiprintf.od)
 .debug_frame   0x0000cf80      0x158 C:\Nburn/lib/DBNetBurner.a(md5c.od)
 .debug_frame   0x0000d0d8      0x680 c:/nburn/gcc-m68k/bin/../m68k-unknown-elf/sysroot/lib/m54455\libstdc++.a(cp-demangle.o)
 .debug_frame   0x0000d758       0x30 c:/nburn/gcc-m68k/bin/../m68k-unknown-elf/sysroot/lib/m54455\libm.a(lib_a-s_cos.o)
 .debug_frame   0x0000d788       0x30 c:/nburn/gcc-m68k/bin/../m68k-unknown-elf/sysroot/lib/m54455\libm.a(lib_a-s_fpclassify.o)
 .debug_frame   0x0000d7b8       0x34 c:/nburn/gcc-m68k/bin/../m68k-unknown-elf/sysroot/lib/m54455\libm.a(lib_a-s_modf.o)
 .debug_frame   0x0000d7ec       0x34 c:/nburn/gcc-m68k/bin/../m68k-unknown-elf/sysroot/lib/m54455\libm.a(lib_a-s_round.o)
 .debug_frame   0x0000d820       0x30 c:/nburn/gcc-m68k/bin/../m68k-unknown-elf/sysroot/lib/m54455\libm.a(lib_a-s_sin.o)
 .debug_frame   0x0000d850       0x2c c:/nburn/gcc-m68k/bin/../m68k-unknown-elf/sysroot/lib/m54455\libm.a(lib_a-w_atan2.o)
 .debug_frame   0x0000d87c       0x40 c:/nburn/gcc-m68k/bin/../m68k-unknown-elf/sysroot/lib/m54455\libm.a(lib_a-w_pow.o)
 .debug_frame   0x0000d8bc       0x34 c:/nburn/gcc-m68k/bin/../m68k-unknown-elf/sysroot/lib/m54455\libm.a(lib_a-w_sqrt.o)
 .debug_frame   0x0000d8f0       0x30 c:/nburn/gcc-m68k/bin/../m68k-unknown-elf/sysroot/lib/m54455\libm.a(lib_a-wf_asin.o)
 .debug_frame   0x0000d920       0x2c c:/nburn/gcc-m68k/bin/../m68k-unknown-elf/sysroot/lib/m54455\libm.a(lib_a-wf_atan2.o)
 .debug_frame   0x0000d94c       0x30 c:/nburn/gcc-m68k/bin/../m68k-unknown-elf/sysroot/lib/m54455\libm.a(lib_a-wf_sqrt.o)
 .debug_frame   0x0000d97c       0x3c c:/nburn/gcc-m68k/bin/../m68k-unknown-elf/sysroot/lib/m54455\libm.a(lib_a-e_atan2.o)
 .debug_frame   0x0000d9b8       0x40 c:/nburn/gcc-m68k/bin/../m68k-unknown-elf/sysroot/lib/m54455\libm.a(lib_a-e_pow.o)
 .debug_frame   0x0000d9f8       0x40 c:/nburn/gcc-m68k/bin/../m68k-unknown-elf/sysroot/lib/m54455\libm.a(lib_a-e_rem_pio2.o)
 .debug_frame   0x0000da38       0x3c c:/nburn/gcc-m68k/bin/../m68k-unknown-elf/sysroot/lib/m54455\libm.a(lib_a-e_sqrt.o)
 .debug_frame   0x0000da74       0x40 c:/nburn/gcc-m68k/bin/../m68k-unknown-elf/sysroot/lib/m54455\libm.a(lib_a-ef_asin.o)
 .debug_frame   0x0000dab4       0x34 c:/nburn/gcc-m68k/bin/../m68k-unknown-elf/sysroot/lib/m54455\libm.a(lib_a-ef_atan2.o)
 .debug_frame   0x0000dae8       0x34 c:/nburn/gcc-m68k/bin/../m68k-unknown-elf/sysroot/lib/m54455\libm.a(lib_a-ef_sqrt.o)
 .debug_frame   0x0000db1c       0x40 c:/nburn/gcc-m68k/bin/../m68k-unknown-elf/sysroot/lib/m54455\libm.a(lib_a-k_cos.o)
 .debug_frame   0x0000db5c       0x4c c:/nburn/gcc-m68k/bin/../m68k-unknown-elf/sysroot/lib/m54455\libm.a(lib_a-k_rem_pio2.o)
 .debug_frame   0x0000dba8       0x40 c:/nburn/gcc-m68k/bin/../m68k-unknown-elf/sysroot/lib/m54455\libm.a(lib_a-k_sin.o)
 .debug_frame   0x0000dbe8       0x40 c:/nburn/gcc-m68k/bin/../m68k-unknown-elf/sysroot/lib/m54455\libm.a(lib_a-s_atan.o)
 .debug_frame   0x0000dc28       0x30 c:/nburn/gcc-m68k/bin/../m68k-unknown-elf/sysroot/lib/m54455\libm.a(lib_a-s_fabs.o)
 .debug_frame   0x0000dc58       0x2c c:/nburn/gcc-m68k/bin/../m68k-unknown-elf/sysroot/lib/m54455\libm.a(lib_a-s_finite.o)
 .debug_frame   0x0000dc84       0x3c c:/nburn/gcc-m68k/bin/../m68k-unknown-elf/sysroot/lib/m54455\libm.a(lib_a-s_floor.o)
 .debug_frame   0x0000dcc0       0x2c c:/nburn/gcc-m68k/bin/../m68k-unknown-elf/sysroot/lib/m54455\libm.a(lib_a-s_matherr.o)
 .debug_frame   0x0000dcec       0x2c c:/nburn/gcc-m68k/bin/../m68k-unknown-elf/sysroot/lib/m54455\libm.a(lib_a-s_nan.o)
 .debug_frame   0x0000dd18       0x38 c:/nburn/gcc-m68k/bin/../m68k-unknown-elf/sysroot/lib/m54455\libm.a(lib_a-s_rint.o)
 .debug_frame   0x0000dd50       0x38 c:/nburn/gcc-m68k/bin/../m68k-unknown-elf/sysroot/lib/m54455\libm.a(lib_a-s_scalbn.o)
 .debug_frame   0x0000dd88       0x3c c:/nburn/gcc-m68k/bin/../m68k-unknown-elf/sysroot/lib/m54455\libm.a(lib_a-sf_atan.o)
 .debug_frame   0x0000ddc4       0x2c c:/nburn/gcc-m68k/bin/../m68k-unknown-elf/sysroot/lib/m54455\libm.a(lib_a-sf_fabs.o)
 .debug_frame   0x0000ddf0       0x2c c:/nburn/gcc-m68k/bin/../m68k-unknown-elf/sysroot/lib/m54455\libm.a(lib_a-sf_fpclassify.o)
 .debug_frame   0x0000de1c       0x30 c:/nburn/gcc-m68k/bin/../m68k-unknown-elf/sysroot/lib/m54455\libm.a(lib_a-s_copysign.o)
 .debug_frame   0x0000de4c       0x38 c:/nburn/gcc-m68k/bin/../lib/gcc/m68k-unknown-elf/5.2.0/m54455\libgcc.a(_muldi3.o)
 .debug_frame   0x0000de84       0x30 c:/nburn/gcc-m68k/bin/../lib/gcc/m68k-unknown-elf/5.2.0/m54455\libgcc.a(_fixunsdfsi.o)
 .debug_frame   0x0000deb4       0x38 c:/nburn/gcc-m68k/bin/../lib/gcc/m68k-unknown-elf/5.2.0/m54455\libgcc.a(_fixunsdfdi.o)
 .debug_frame   0x0000deec      0x130 c:/nburn/gcc-m68k/bin/../lib/gcc/m68k-unknown-elf/5.2.0/m54455\libgcc.a(fpgnulib.o)
 .debug_frame   0x0000e01c       0x2c c:/nburn/gcc-m68k/bin/../m68k-unknown-elf/sysroot/lib/m54455\libc.a(lib_a-abort.o)
 .debug_frame   0x0000e048       0x2c c:/nburn/gcc-m68k/bin/../m68k-unknown-elf/sysroot/lib/m54455\libc.a(lib_a-atexit.o)
 .debug_frame   0x0000e074       0x44 c:/nburn/gcc-m68k/bin/../m68k-unknown-elf/sysroot/lib/m54455\libc.a(lib_a-atoi.o)
 .debug_frame   0x0000e0b8       0x38 c:/nburn/gcc-m68k/bin/../m68k-unknown-elf/sysroot/lib/m54455\libc.a(lib_a-bsearch.o)
 .debug_frame   0x0000e0f0       0x2c c:/nburn/gcc-m68k/bin/../m68k-unknown-elf/sysroot/lib/m54455\libc.a(lib_a-bzero.o)
 .debug_frame   0x0000e11c       0x2c c:/nburn/gcc-m68k/bin/../m68k-unknown-elf/sysroot/lib/m54455\libc.a(lib_a-cxa_atexit.o)
 .debug_frame   0x0000e148       0x2c c:/nburn/gcc-m68k/bin/../m68k-unknown-elf/sysroot/lib/m54455\libc.a(lib_a-errno.o)
 .debug_frame   0x0000e174       0x4c c:/nburn/gcc-m68k/bin/../m68k-unknown-elf/sysroot/lib/m54455\libc.a(lib_a-fputc.o)
 .debug_frame   0x0000e1c0       0x48 c:/nburn/gcc-m68k/bin/../m68k-unknown-elf/sysroot/lib/m54455\libc.a(lib_a-fputs.o)
 .debug_frame   0x0000e208       0x40 c:/nburn/gcc-m68k/bin/../m68k-unknown-elf/sysroot/lib/m54455\libc.a(lib_a-fvwrite.o)
 .debug_frame   0x0000e248       0x50 c:/nburn/gcc-m68k/bin/../m68k-unknown-elf/sysroot/lib/m54455\libc.a(lib_a-fwrite.o)
 .debug_frame   0x0000e298       0x2c c:/nburn/gcc-m68k/bin/../m68k-unknown-elf/sysroot/lib/m54455\libc.a(lib_a-isalnum.o)
 .debug_frame   0x0000e2c4       0x2c c:/nburn/gcc-m68k/bin/../m68k-unknown-elf/sysroot/lib/m54455\libc.a(lib_a-isspace.o)
 .debug_frame   0x0000e2f0       0x44 c:/nburn/gcc-m68k/bin/../m68k-unknown-elf/sysroot/lib/m54455\libc.a(lib_a-malloc.o)
 .debug_frame   0x0000e334       0x40 c:/nburn/gcc-m68k/bin/../m68k-unknown-elf/sysroot/lib/m54455\libc.a(lib_a-mallocr.o)
 .debug_frame   0x0000e374       0x30 c:/nburn/gcc-m68k/bin/../m68k-unknown-elf/sysroot/lib/m54455\libc.a(lib_a-memchr.o)
 .debug_frame   0x0000e3a4       0x30 c:/nburn/gcc-m68k/bin/../m68k-unknown-elf/sysroot/lib/m54455\libc.a(lib_a-memcmp.o)
 .debug_frame   0x0000e3d4       0x30 c:/nburn/gcc-m68k/bin/../m68k-unknown-elf/sysroot/lib/m54455\libc.a(lib_a-memmove.o)
 .debug_frame   0x0000e404       0x4c c:/nburn/gcc-m68k/bin/../m68k-unknown-elf/sysroot/lib/m54455\libc.a(lib_a-putc.o)
 .debug_frame   0x0000e450       0x48 c:/nburn/gcc-m68k/bin/../m68k-unknown-elf/sysroot/lib/m54455\libc.a(lib_a-puts.o)
 .debug_frame   0x0000e498       0x48 c:/nburn/gcc-m68k/bin/../m68k-unknown-elf/sysroot/lib/m54455\libc.a(lib_a-rand.o)
 .debug_frame   0x0000e4e0       0x2c c:/nburn/gcc-m68k/bin/../m68k-unknown-elf/sysroot/lib/m54455\libc.a(lib_a-realloc.o)
 .debug_frame   0x0000e50c       0x40 c:/nburn/gcc-m68k/bin/../m68k-unknown-elf/sysroot/lib/m54455\libc.a(lib_a-reallocr.o)
 .debug_frame   0x0000e54c       0x48 c:/nburn/gcc-m68k/bin/../m68k-unknown-elf/sysroot/lib/m54455\libc.a(lib_a-rget.o)
 .debug_frame   0x0000e594       0x38 c:/nburn/gcc-m68k/bin/../m68k-unknown-elf/sysroot/lib/m54455\libc.a(lib_a-setvbuf.o)
 .debug_frame   0x0000e5cc       0xe4 c:/nburn/gcc-m68k/bin/../m68k-unknown-elf/sysroot/lib/m54455\libc.a(lib_a-signal.o)
 .debug_frame   0x0000e6b0       0x44 c:/nburn/gcc-m68k/bin/../m68k-unknown-elf/sysroot/lib/m54455\libc.a(lib_a-signalr.o)
 .debug_frame   0x0000e6f4       0x30 c:/nburn/gcc-m68k/bin/../m68k-unknown-elf/sysroot/lib/m54455\libc.a(lib_a-strcat.o)
 .debug_frame   0x0000e724       0x30 c:/nburn/gcc-m68k/bin/../m68k-unknown-elf/sysroot/lib/m54455\libc.a(lib_a-strcmp.o)
 .debug_frame   0x0000e754       0x2c c:/nburn/gcc-m68k/bin/../m68k-unknown-elf/sysroot/lib/m54455\libc.a(lib_a-strcpy.o)
 .debug_frame   0x0000e780       0x2c c:/nburn/gcc-m68k/bin/../m68k-unknown-elf/sysroot/lib/m54455\libc.a(lib_a-strlen.o)
 .debug_frame   0x0000e7ac       0x34 c:/nburn/gcc-m68k/bin/../m68k-unknown-elf/sysroot/lib/m54455\libc.a(lib_a-strncmp.o)
 .debug_frame   0x0000e7e0       0x30 c:/nburn/gcc-m68k/bin/../m68k-unknown-elf/sysroot/lib/m54455\libc.a(lib_a-strncpy.o)
 .debug_frame   0x0000e810       0x30 c:/nburn/gcc-m68k/bin/../m68k-unknown-elf/sysroot/lib/m54455\libc.a(lib_a-strstr.o)
 .debug_frame   0x0000e840       0x58 c:/nburn/gcc-m68k/bin/../m68k-unknown-elf/sysroot/lib/m54455\libc.a(lib_a-strtol.o)
 .debug_frame   0x0000e898       0x30 c:/nburn/gcc-m68k/bin/../m68k-unknown-elf/sysroot/lib/m54455\libc.a(lib_a-tolower.o)
 .debug_frame   0x0000e8c8       0x30 c:/nburn/gcc-m68k/bin/../m68k-unknown-elf/sysroot/lib/m54455\libc.a(lib_a-toupper.o)
 .debug_frame   0x0000e8f8       0x4c c:/nburn/gcc-m68k/bin/../m68k-unknown-elf/sysroot/lib/m54455\libc.a(lib_a-wbuf.o)
 .debug_frame   0x0000e944       0x34 c:/nburn/gcc-m68k/bin/../m68k-unknown-elf/sysroot/lib/m54455\libc.a(lib_a-wsetup.o)
 .debug_frame   0x0000e978       0x34 c:/nburn/gcc-m68k/bin/../m68k-unknown-elf/sysroot/lib/m54455\libc.a(lib_a-__atexit.o)
 .debug_frame   0x0000e9ac       0x6c c:/nburn/gcc-m68k/bin/../m68k-unknown-elf/sysroot/lib/m54455\libc.a(lib_a-fflush.o)
 .debug_frame   0x0000ea18      0x17c c:/nburn/gcc-m68k/bin/../m68k-unknown-elf/sysroot/lib/m54455\libc.a(lib_a-findfp.o)
 .debug_frame   0x0000eb94       0x5c c:/nburn/gcc-m68k/bin/../m68k-unknown-elf/sysroot/lib/m54455\libc.a(lib_a-freer.o)
 .debug_frame   0x0000ebf0       0x58 c:/nburn/gcc-m68k/bin/../m68k-unknown-elf/sysroot/lib/m54455\libc.a(lib_a-fwalk.o)
 .debug_frame   0x0000ec48       0x34 c:/nburn/gcc-m68k/bin/../m68k-unknown-elf/sysroot/lib/m54455\libc.a(lib_a-makebuf.o)
 .debug_frame   0x0000ec7c       0x4c c:/nburn/gcc-m68k/bin/../m68k-unknown-elf/sysroot/lib/m54455\libc.a(lib_a-refill.o)
 .debug_frame   0x0000ecc8       0x9c c:/nburn/gcc-m68k/bin/../m68k-unknown-elf/sysroot/lib/m54455\libc.a(lib_a-stdio.o)
 .debug_frame   0x0000ed64       0x2c c:/nburn/gcc-m68k/bin/../m68k-unknown-elf/sysroot/lib/m54455\libc.a(lib_a-writer.o)
 .debug_frame   0x0000ed90       0x2c c:/nburn/gcc-m68k/bin/../m68k-unknown-elf/sysroot/lib/m54455\libc.a(lib_a-closer.o)
 .debug_frame   0x0000edbc       0x4c c:/nburn/gcc-m68k/bin/../m68k-unknown-elf/sysroot/lib/m54455\libc.a(lib_a-fclose.o)
 .debug_frame   0x0000ee08       0x2c c:/nburn/gcc-m68k/bin/../m68k-unknown-elf/sysroot/lib/m54455\libc.a(lib_a-fstatr.o)
 .debug_frame   0x0000ee34       0x2c c:/nburn/gcc-m68k/bin/../m68k-unknown-elf/sysroot/lib/m54455\libc.a(lib_a-isattyr.o)
 .debug_frame   0x0000ee60       0x2c c:/nburn/gcc-m68k/bin/../m68k-unknown-elf/sysroot/lib/m54455\libc.a(lib_a-lseekr.o)
 .debug_frame   0x0000ee8c       0x2c c:/nburn/gcc-m68k/bin/../m68k-unknown-elf/sysroot/lib/m54455\libc.a(lib_a-readr.o)

.debug_str      0x00000000    0x27a66
 *(.debug_str)
 .debug_str     0x00000000     0x1378 main.od
                               0x14b5 (size before relaxing)
 .debug_str     0x00001378      0x151 Utility.od
                                0x366 (size before relaxing)
 .debug_str     0x000014c9      0x1eb Nav.od
                                0xaba (size before relaxing)
 .debug_str     0x000016b4     0x7661 Logger.od
                               0x7ce8 (size before relaxing)
 .debug_str     0x00008d15      0xe5b Drivers\servodrive.od
                               0x1653 (size before relaxing)
 .debug_str     0x00009b70      0x602 Drivers\pwm.od
                                0xac8 (size before relaxing)
 .debug_str     0x0000a172      0x856 Drivers\introspec.od
                               0x11c0 (size before relaxing)
 .debug_str     0x0000a9c8      0x4b1 Drivers\dsm2.od
                               0x186c (size before relaxing)
 .debug_str     0x0000ae79      0x232 Drivers\SpinningLidar.od
                                0x469 (size before relaxing)
 .debug_str     0x0000b0ab      0x143 Drivers\Odometer.od
                               0x1255 (size before relaxing)
 .debug_str     0x0000b1ee      0x107 Drivers\MadgwickFilter.od
                                0x2ab (size before relaxing)
 .debug_str     0x0000b2f5      0x16d Drivers\MPU9250.od
                                0xfc4 (size before relaxing)
 .debug_str     0x0000b462      0x15c Drivers\LidarPWM.od
                               0x123b (size before relaxing)
 .debug_str     0x0000b5be       0xf5 Drivers\LCD.od
                                0x2f5 (size before relaxing)
 .debug_str     0x0000b6b3      0x201 Drivers\IMUSetupAndSample.od
                               0x1258 (size before relaxing)
 .debug_str     0x0000b8b4      0x12f htmldata.od
                                0x2a6 (size before relaxing)
 .debug_str     0x0000b9e3      0x87e C:\Nburn/lib/DBNANO54415.a(serial.od)
                               0x2cdb (size before relaxing)
 .debug_str     0x0000c261      0x87e C:\Nburn/lib/DBNANO54415.a(pins.od)
                                0x8a0 (size before relaxing)
 .debug_str     0x0000c261       0x75 C:\Nburn/lib/DBNANO54415.a(SimpleAD.od)
                               0x1096 (size before relaxing)
 .debug_str     0x0000c2d6      0x4fb C:\Nburn/lib/DBNANO54415.a(FlashOps.od)
                                0xe43 (size before relaxing)
 .debug_str     0x0000c7d1      0x280 C:\Nburn/lib/DBNANO54415.a(HiResTimer.od)
                               0x1aa1 (size before relaxing)
 .debug_str     0x0000ca51       0x4d C:\Nburn/lib/DBNANO54415.a(netwait.od)
                                0x159 (size before relaxing)
 .debug_str     0x0000ca9e       0xf4 C:\Nburn/lib/DBNANO54415.a(pin_irq.od)
                               0x1321 (size before relaxing)
 .debug_str     0x0000cb92     0x2156 C:\Nburn/lib/DBNANO54415.a(dbethernet.od)
                               0x3c61 (size before relaxing)
 .debug_str     0x0000ece8      0x214 C:\Nburn/lib/DBNANO54415.a(bsp.od)
                               0x1d34 (size before relaxing)
 .debug_str     0x0000eefc       0xb0 C:\Nburn/lib/DBNANO54415.a(localio.od)
                               0x1af0 (size before relaxing)
 .debug_str     0x0000efac       0x6e C:\Nburn/lib/DBNANO54415.a(userparam.od)
                                0x1d2 (size before relaxing)
 .debug_str     0x0000f01a      0xa68 C:\Nburn/lib/DBNANO54415.a(multichanneli2c.od)
                               0x10bd (size before relaxing)
 .debug_str     0x0000fa82       0x2f C:\Nburn/lib/DBNANO54415.a(defpins.od)
                                0x2d2 (size before relaxing)
 .debug_str     0x0000fab1      0x3f9 C:\Nburn/lib/DBNANO54415.a(ethernet.od)
                               0x3916 (size before relaxing)
 .debug_str     0x0000feaa       0xe6 C:\Nburn/lib/DBNANO54415.a(etherprint.od)
                               0x2313 (size before relaxing)
 .debug_str     0x0000ff90       0x98 C:\Nburn/lib/DBNANO54415.a(emulticast.od)
                               0x1de2 (size before relaxing)
 .debug_str     0x00010028       0x56 C:\Nburn/lib/DBNANO54415.a(SPIFlash.od)
                               0x195e (size before relaxing)
 .debug_str     0x0001007e       0x92 C:\Nburn/lib/DBNANO54415.a(ethernetauxdb.od)
                                0x2b1 (size before relaxing)
 .debug_str     0x00010110       0xf1 C:\Nburn/lib/DBNANO54415.a(ether2nd.od)
                               0x1f4c (size before relaxing)
 .debug_str     0x00010201      0x218 C:\Nburn/lib/DBNANO54415.a(etherswitch.od)
                               0x23dd (size before relaxing)
 .debug_str     0x00010419       0x16 C:\Nburn/lib/DBNANO54415.a(weak_autoenet_var.od)
                                 0xa9 (size before relaxing)
 .debug_str     0x0001042f      0x2fb C:\Nburn/lib/DBNANO54415.a(i2c_class.od)
                               0x249d (size before relaxing)
 .debug_str     0x0001072a       0x8c C:\Nburn/lib/DBNetBurner.a(main.od)
                                 0xb9 (size before relaxing)
 .debug_str     0x000107b6      0x195 C:\Nburn/lib/DBNetBurner.a(ucosmcfc.od)
                                0x2e9 (size before relaxing)
 .debug_str     0x0001094b      0x3bf C:\Nburn/lib/DBNetBurner.a(ucos.od)
                                0x9cc (size before relaxing)
 .debug_str     0x00010d0a       0x1c C:\Nburn/lib/DBNetBurner.a(cppmain.od)
                                0x16d (size before relaxing)
 .debug_str     0x00010d26      0x118 C:\Nburn/lib/DBNetBurner.a(debugtrap.od)
                                0x20f (size before relaxing)
 .debug_str     0x00010e3e      0x110 C:\Nburn/lib/DBNetBurner.a(ucosmain.od)
                                0x9cc (size before relaxing)
 .debug_str     0x00010f4e      0x1c9 C:\Nburn/lib/DBNetBurner.a(fileio.od)
                                0x73f (size before relaxing)
 .debug_str     0x00011117      0x1de C:\Nburn/lib/DBNetBurner.a(system.od)
                                0xc03 (size before relaxing)
 .debug_str     0x000112f5      0x51a C:\Nburn/lib/DBNetBurner.a(utils.od)
                                0xec2 (size before relaxing)
 .debug_str     0x0001180f      0xae2 C:\Nburn/lib/DBNetBurner.a(ip.od)
                               0x23d9 (size before relaxing)
 .debug_str     0x000122f1      0x3cb C:\Nburn/lib/DBNetBurner.a(buffers.od)
                               0x1256 (size before relaxing)
 .debug_str     0x000126bc      0x61a C:\Nburn/lib/DBNetBurner.a(arp.od)
                               0x2255 (size before relaxing)
 .debug_str     0x00012cd6     0x1471 C:\Nburn/lib/DBNetBurner.a(udp.od)
                               0x2d80 (size before relaxing)
 .debug_str     0x00014147      0x55a C:\Nburn/lib/DBNetBurner.a(ftpd.od)
                                0xe1e (size before relaxing)
 .debug_str     0x000146a1     0x586c C:\Nburn/lib/DBNetBurner.a(tcp.od)
                               0x86b2 (size before relaxing)
 .debug_str     0x00019f0d      0x1fc C:\Nburn/lib/DBNetBurner.a(extraio.od)
                                0x3b5 (size before relaxing)
 .debug_str     0x0001a109      0x35e C:\Nburn/lib/DBNetBurner.a(http.od)
                                0xde4 (size before relaxing)
 .debug_str     0x0001a467      0x6a7 C:\Nburn/lib/DBNetBurner.a(httpinternal.od)
                               0x1284 (size before relaxing)
 .debug_str     0x0001ab0e       0x3c C:\Nburn/lib/DBNetBurner.a(httpstricmp.od)
                                0x138 (size before relaxing)
 .debug_str     0x0001ab4a      0x3a9 C:\Nburn/lib/DBNetBurner.a(htmldecomp.od)
                                0x7a1 (size before relaxing)
 .debug_str     0x0001aef3      0x37f C:\Nburn/lib/DBNetBurner.a(iosys.od)
                                0x80e (size before relaxing)
 .debug_str     0x0001b272       0xac C:\Nburn/lib/DBNetBurner.a(new_ops.od)
                                0x221 (size before relaxing)
 .debug_str     0x0001b31e       0xb6 C:\Nburn/lib/DBNetBurner.a(autoip.od)
                               0x1522 (size before relaxing)
 .debug_str     0x0001b3d4      0x954 C:\Nburn/lib/DBNetBurner.a(dhcpc.od)
                               0x3005 (size before relaxing)
 .debug_str     0x0001bd28       0x69 C:\Nburn/lib/DBNetBurner.a(netrx.od)
                                0x435 (size before relaxing)
 .debug_str     0x0001bd91      0x3cf C:\Nburn/lib/DBNetBurner.a(netinterface.od)
                               0x1975 (size before relaxing)
 .debug_str     0x0001c160       0x66 C:\Nburn/lib/DBNetBurner.a(multiconfig.od)
                               0x1546 (size before relaxing)
 .debug_str     0x0001c1c6       0xe3 C:\Nburn/lib/DBNetBurner.a(taskmon.od)
                               0x18f9 (size before relaxing)
 .debug_str     0x0001c2a9      0x198 C:\Nburn/lib/DBNetBurner.a(smarttrap.od)
                                0x426 (size before relaxing)
 .debug_str     0x0001c441      0x1d8 C:\Nburn/lib/DBNetBurner.a(autoupdate.od)
                               0x19e5 (size before relaxing)
 .debug_str     0x0001c619       0xae C:\Nburn/lib/DBNetBurner.a(device.od)
                                0x434 (size before relaxing)
 .debug_str     0x0001c6c7      0x1b5 C:\Nburn/lib/DBNetBurner.a(base64.od)
                                0x41b (size before relaxing)
 .debug_str     0x0001c87c      0x337 C:\Nburn/lib/DBNetBurner.a(nbiprintf.od)
                                0xd0d (size before relaxing)
 .debug_str     0x0001cbb3        0xd C:\Nburn/lib/DBNetBurner.a(nbprintf.od)
                                0x1c2 (size before relaxing)
 .debug_str     0x0001cbc0       0x64 C:\Nburn/lib/DBNetBurner.a(nbsiprintf.od)
                                0x1d2 (size before relaxing)
 .debug_str     0x0001cc24       0x83 C:\Nburn/lib/DBNetBurner.a(nbsprintf.od)
                                0x68e (size before relaxing)
 .debug_str     0x0001cca7       0x1c C:\Nburn/lib/DBNetBurner.a(weakumain.od)
                                 0xa2 (size before relaxing)
 .debug_str     0x0001ccc3       0x1c C:\Nburn/lib/DBNetBurner.a(cusermain.od)
                                 0x99 (size before relaxing)
 .debug_str     0x0001ccdf       0x27 C:\Nburn/lib/DBNetBurner.a(fdprintf.od)
                                0x1d5 (size before relaxing)
 .debug_str     0x0001cd06       0x16 C:\Nburn/lib/DBNetBurner.a(websocket_handler.od)
                                0xa5f (size before relaxing)
 .debug_str     0x0001cd1c       0xde C:\Nburn/lib/DBNetBurner.a(ipv6_addr.od)
                                0xa59 (size before relaxing)
 .debug_str     0x0001cdfa      0x1ba C:\Nburn/lib/DBNetBurner.a(ipv6_tcp.od)
                               0x623a (size before relaxing)
 .debug_str     0x0001cfb4     0x18b5 C:\Nburn/lib/DBNetBurner.a(ipv6_ip.od)
                               0x7765 (size before relaxing)
 .debug_str     0x0001e869       0xd9 C:\Nburn/lib/DBNetBurner.a(ipv6_udp.od)
                               0x4f59 (size before relaxing)
 .debug_str     0x0001e942       0x20 C:\Nburn/lib/DBNetBurner.a(ipv6_printhelp.od)
                                0x968 (size before relaxing)
 .debug_str     0x0001e962       0xc0 C:\Nburn/lib/DBNetBurner.a(ipv6_extensions.od)
                               0x4f58 (size before relaxing)
 .debug_str     0x0001ea22      0x16f C:\Nburn/lib/DBNetBurner.a(ipv6_multicast.od)
                               0x5089 (size before relaxing)
 .debug_str     0x0001eb91       0xc3 C:\Nburn/lib/DBNetBurner.a(ipv6_show.od)
                               0x5262 (size before relaxing)
 .debug_str     0x0001ec54      0x568 C:\Nburn/lib/DBNetBurner.a(ipv6_dhcp.od)
                               0x55fb (size before relaxing)
 .debug_str     0x0001f1bc      0x24f C:\Nburn/lib/DBNetBurner.a(multicast.od)
                               0x5434 (size before relaxing)
 .debug_str     0x0001f40b      0x3b8 C:\Nburn/lib/DBNetBurner.a(random.od)
                                0x5a7 (size before relaxing)
 .debug_str     0x0001f7c3      0x21b C:\Nburn/lib/DBNetBurner.a(nbfloatprint.od)
                                0x3d1 (size before relaxing)
 .debug_str     0x0001f9de       0x4c C:\Nburn/lib/DBNetBurner.a(fdiprintf.od)
                                0x19e (size before relaxing)
 .debug_str     0x0001fa2a       0x6b C:\Nburn/lib/DBNetBurner.a(md5c.od)
                                0x4f8 (size before relaxing)
 .debug_str     0x0001fa95      0x1d4 c:/nburn/gcc-m68k/bin/../m68k-unknown-elf/sysroot/lib/m54455\libstdc++.a(pure.o)
                                0x28d (size before relaxing)
 .debug_str     0x0001fc69      0x4e3 c:/nburn/gcc-m68k/bin/../m68k-unknown-elf/sysroot/lib/m54455\libstdc++.a(eh_terminate.o)
                                0x828 (size before relaxing)
 .debug_str     0x0002014c       0xe5 c:/nburn/gcc-m68k/bin/../m68k-unknown-elf/sysroot/lib/m54455\libstdc++.a(del_op.o)
                                0x2c1 (size before relaxing)
 .debug_str     0x00020231       0xe7 c:/nburn/gcc-m68k/bin/../m68k-unknown-elf/sysroot/lib/m54455\libstdc++.a(del_ops.o)
                                0x199 (size before relaxing)
 .debug_str     0x00020318       0xe0 c:/nburn/gcc-m68k/bin/../m68k-unknown-elf/sysroot/lib/m54455\libstdc++.a(eh_unex_handler.o)
                                0x264 (size before relaxing)
 .debug_str     0x000203f8       0xe0 c:/nburn/gcc-m68k/bin/../m68k-unknown-elf/sysroot/lib/m54455\libstdc++.a(eh_term_handler.o)
                                0x261 (size before relaxing)
 .debug_str     0x000204d8      0x3d5 c:/nburn/gcc-m68k/bin/../m68k-unknown-elf/sysroot/lib/m54455\libstdc++.a(eh_catch.o)
                                0x6eb (size before relaxing)
 .debug_str     0x000208ad      0x66d c:/nburn/gcc-m68k/bin/../m68k-unknown-elf/sysroot/lib/m54455\libstdc++.a(eh_personality.o)
                                0xd22 (size before relaxing)
 .debug_str     0x00020f1a      0x38a c:/nburn/gcc-m68k/bin/../m68k-unknown-elf/sysroot/lib/m54455\libstdc++.a(eh_exception.o)
                                0x4ed (size before relaxing)
 .debug_str     0x000212a4       0xd6 c:/nburn/gcc-m68k/bin/../m68k-unknown-elf/sysroot/lib/m54455\libstdc++.a(eh_globals.o)
                                0x5c1 (size before relaxing)
 .debug_str     0x0002137a      0x213 c:/nburn/gcc-m68k/bin/../m68k-unknown-elf/sysroot/lib/m54455\libstdc++.a(vterminate.o)
                                0x860 (size before relaxing)
 .debug_str     0x0002158d      0x1ea c:/nburn/gcc-m68k/bin/../m68k-unknown-elf/sysroot/lib/m54455\libstdc++.a(eh_alloc.o)
                                0x9ab (size before relaxing)
 .debug_str     0x00021777     0x16b6 c:/nburn/gcc-m68k/bin/../m68k-unknown-elf/sysroot/lib/m54455\libstdc++.a(cp-demangle.o)
                               0x19c6 (size before relaxing)
 .debug_str     0x00022e2d      0x1bc c:/nburn/gcc-m68k/bin/../m68k-unknown-elf/sysroot/lib/m54455\libstdc++.a(eh_throw.o)
                                0x6fc (size before relaxing)
 .debug_str     0x00022fe9       0xd0 c:/nburn/gcc-m68k/bin/../m68k-unknown-elf/sysroot/lib/m54455\libstdc++.a(eh_type.o)
                                0x564 (size before relaxing)
 .debug_str     0x000230b9      0x6d7 c:/nburn/gcc-m68k/bin/../m68k-unknown-elf/sysroot/lib/m54455\libstdc++.a(si_class_type_info.o)
                                0x830 (size before relaxing)
 .debug_str     0x00023790       0xd0 c:/nburn/gcc-m68k/bin/../m68k-unknown-elf/sysroot/lib/m54455\libstdc++.a(eh_call.o)
                                0x61b (size before relaxing)
 .debug_str     0x00023860      0x4db c:/nburn/gcc-m68k/bin/../m68k-unknown-elf/sysroot/lib/m54455\libstdc++.a(class_type_info.o)
                                0x972 (size before relaxing)
 .debug_str     0x00023d3b      0x26d c:/nburn/gcc-m68k/bin/../m68k-unknown-elf/sysroot/lib/m54455\libstdc++.a(tinfo.o)
                                0x49d (size before relaxing)
 .debug_str     0x00023fa8       0xb6 c:/nburn/gcc-m68k/bin/../m68k-unknown-elf/sysroot/lib/m54455\libm.a(lib_a-s_cos.o)
                                0x161 (size before relaxing)
 .debug_str     0x0002405e       0x85 c:/nburn/gcc-m68k/bin/../m68k-unknown-elf/sysroot/lib/m54455\libm.a(lib_a-s_fpclassify.o)
                                0x174 (size before relaxing)
 .debug_str     0x000240e3       0x53 c:/nburn/gcc-m68k/bin/../m68k-unknown-elf/sysroot/lib/m54455\libm.a(lib_a-s_modf.o)
                                0x179 (size before relaxing)
 .debug_str     0x00024136       0x6c c:/nburn/gcc-m68k/bin/../m68k-unknown-elf/sysroot/lib/m54455\libm.a(lib_a-s_round.o)
                                0x197 (size before relaxing)
 .debug_str     0x000241a2       0x41 c:/nburn/gcc-m68k/bin/../m68k-unknown-elf/sysroot/lib/m54455\libm.a(lib_a-s_sin.o)
                                0x161 (size before relaxing)
 .debug_str     0x000241e3       0x53 c:/nburn/gcc-m68k/bin/../m68k-unknown-elf/sysroot/lib/m54455\libm.a(lib_a-w_atan2.o)
                                0x142 (size before relaxing)
 .debug_str     0x00024236       0xd2 c:/nburn/gcc-m68k/bin/../m68k-unknown-elf/sysroot/lib/m54455\libm.a(lib_a-w_pow.o)
                                0x1d4 (size before relaxing)
 .debug_str     0x00024308       0x51 c:/nburn/gcc-m68k/bin/../m68k-unknown-elf/sysroot/lib/m54455\libm.a(lib_a-w_sqrt.o)
                                0x1dd (size before relaxing)
 .debug_str     0x00024359       0x67 c:/nburn/gcc-m68k/bin/../m68k-unknown-elf/sysroot/lib/m54455\libm.a(lib_a-wf_asin.o)
                                0x1e6 (size before relaxing)
 .debug_str     0x000243c0       0x55 c:/nburn/gcc-m68k/bin/../m68k-unknown-elf/sysroot/lib/m54455\libm.a(lib_a-wf_atan2.o)
                                0x145 (size before relaxing)
 .debug_str     0x00024415       0x53 c:/nburn/gcc-m68k/bin/../m68k-unknown-elf/sysroot/lib/m54455\libm.a(lib_a-wf_sqrt.o)
                                0x1e0 (size before relaxing)
 .debug_str     0x00024468       0x6b c:/nburn/gcc-m68k/bin/../m68k-unknown-elf/sysroot/lib/m54455\libm.a(lib_a-e_atan2.o)
                                0x1a6 (size before relaxing)
 .debug_str     0x000244d3       0x9a c:/nburn/gcc-m68k/bin/../m68k-unknown-elf/sysroot/lib/m54455\libm.a(lib_a-e_pow.o)
                                0x1f1 (size before relaxing)
 .debug_str     0x0002456d       0xad c:/nburn/gcc-m68k/bin/../m68k-unknown-elf/sysroot/lib/m54455\libm.a(lib_a-e_rem_pio2.o)
                                0x1fa (size before relaxing)
 .debug_str     0x0002461a       0x42 c:/nburn/gcc-m68k/bin/../m68k-unknown-elf/sysroot/lib/m54455\libm.a(lib_a-e_sqrt.o)
                                0x186 (size before relaxing)
 .debug_str     0x0002465c       0x7b c:/nburn/gcc-m68k/bin/../m68k-unknown-elf/sysroot/lib/m54455\libm.a(lib_a-ef_asin.o)
                                0x1af (size before relaxing)
 .debug_str     0x000246d7       0x4a c:/nburn/gcc-m68k/bin/../m68k-unknown-elf/sysroot/lib/m54455\libm.a(lib_a-ef_atan2.o)
                                0x1a8 (size before relaxing)
 .debug_str     0x00024721       0x43 c:/nburn/gcc-m68k/bin/../m68k-unknown-elf/sysroot/lib/m54455\libm.a(lib_a-ef_sqrt.o)
                                0x181 (size before relaxing)
 .debug_str     0x00024764       0x41 c:/nburn/gcc-m68k/bin/../m68k-unknown-elf/sysroot/lib/m54455\libm.a(lib_a-k_cos.o)
                                0x174 (size before relaxing)
 .debug_str     0x000247a5       0x7b c:/nburn/gcc-m68k/bin/../m68k-unknown-elf/sysroot/lib/m54455\libm.a(lib_a-k_rem_pio2.o)
                                0x192 (size before relaxing)
 .debug_str     0x00024820       0x41 c:/nburn/gcc-m68k/bin/../m68k-unknown-elf/sysroot/lib/m54455\libm.a(lib_a-k_sin.o)
                                0x146 (size before relaxing)
 .debug_str     0x00024861       0x50 c:/nburn/gcc-m68k/bin/../m68k-unknown-elf/sysroot/lib/m54455\libm.a(lib_a-s_atan.o)
                                0x185 (size before relaxing)
 .debug_str     0x000248b1       0x42 c:/nburn/gcc-m68k/bin/../m68k-unknown-elf/sysroot/lib/m54455\libm.a(lib_a-s_fabs.o)
                                0x168 (size before relaxing)
 .debug_str     0x000248f3       0x46 c:/nburn/gcc-m68k/bin/../m68k-unknown-elf/sysroot/lib/m54455\libm.a(lib_a-s_finite.o)
                                0x14b (size before relaxing)
 .debug_str     0x00024939       0x43 c:/nburn/gcc-m68k/bin/../m68k-unknown-elf/sysroot/lib/m54455\libm.a(lib_a-s_floor.o)
                                0x179 (size before relaxing)
 .debug_str     0x0002497c       0x47 c:/nburn/gcc-m68k/bin/../m68k-unknown-elf/sysroot/lib/m54455\libm.a(lib_a-s_lib_ver.o)
                                0x18b (size before relaxing)
 .debug_str     0x000249c3       0x47 c:/nburn/gcc-m68k/bin/../m68k-unknown-elf/sysroot/lib/m54455\libm.a(lib_a-s_matherr.o)
                                0x15d (size before relaxing)
 .debug_str     0x00024a0a       0x43 c:/nburn/gcc-m68k/bin/../m68k-unknown-elf/sysroot/lib/m54455\libm.a(lib_a-s_nan.o)
                                0x133 (size before relaxing)
 .debug_str     0x00024a4d       0x4a c:/nburn/gcc-m68k/bin/../m68k-unknown-elf/sysroot/lib/m54455\libm.a(lib_a-s_rint.o)
                                0x17a (size before relaxing)
 .debug_str     0x00024a97       0x5c c:/nburn/gcc-m68k/bin/../m68k-unknown-elf/sysroot/lib/m54455\libm.a(lib_a-s_scalbn.o)
                                0x19d (size before relaxing)
 .debug_str     0x00024af3       0x43 c:/nburn/gcc-m68k/bin/../m68k-unknown-elf/sysroot/lib/m54455\libm.a(lib_a-sf_atan.o)
                                0x186 (size before relaxing)
 .debug_str     0x00024b36       0x43 c:/nburn/gcc-m68k/bin/../m68k-unknown-elf/sysroot/lib/m54455\libm.a(lib_a-sf_fabs.o)
                                0x163 (size before relaxing)
 .debug_str     0x00024b79       0x4b c:/nburn/gcc-m68k/bin/../m68k-unknown-elf/sysroot/lib/m54455\libm.a(lib_a-sf_fpclassify.o)
                                0x14d (size before relaxing)
 .debug_str     0x00024bc4       0x48 c:/nburn/gcc-m68k/bin/../m68k-unknown-elf/sysroot/lib/m54455\libm.a(lib_a-s_copysign.o)
                                0x16d (size before relaxing)
 .debug_str     0x00024c0c      0x13f c:/nburn/gcc-m68k/bin/../lib/gcc/m68k-unknown-elf/5.2.0/m54455\libgcc.a(_muldi3.o)
                                0x1fd (size before relaxing)
 .debug_str     0x00024d4b       0x14 c:/nburn/gcc-m68k/bin/../lib/gcc/m68k-unknown-elf/5.2.0/m54455\libgcc.a(_fixunsdfsi.o)
                                0x1eb (size before relaxing)
 .debug_str     0x00024d5f       0x15 c:/nburn/gcc-m68k/bin/../lib/gcc/m68k-unknown-elf/5.2.0/m54455\libgcc.a(_fixunsdfdi.o)
                                0x1ec (size before relaxing)
 .debug_str     0x00024d74       0xc2 c:/nburn/gcc-m68k/bin/../lib/gcc/m68k-unknown-elf/5.2.0/m54455\libgcc.a(_udivdi3.o)
                                0x254 (size before relaxing)
 .debug_str     0x00024e36        0xa c:/nburn/gcc-m68k/bin/../lib/gcc/m68k-unknown-elf/5.2.0/m54455\libgcc.a(_umoddi3.o)
                                0x254 (size before relaxing)
 .debug_str     0x00024e40       0xe8 c:/nburn/gcc-m68k/bin/../lib/gcc/m68k-unknown-elf/5.2.0/m54455\libgcc.a(fpgnulib.o)
                                0x19d (size before relaxing)
 .debug_str     0x00024f28     0x1282 c:/nburn/gcc-m68k/bin/../lib/gcc/m68k-unknown-elf/5.2.0/m54455\libgcc.a(unwind-dw2.o)
                               0x17ec (size before relaxing)
 .debug_str     0x000261aa      0x3f1 c:/nburn/gcc-m68k/bin/../lib/gcc/m68k-unknown-elf/5.2.0/m54455\libgcc.a(unwind-dw2-fde.o)
                                0x75a (size before relaxing)
 .debug_str     0x0002659b       0x49 c:/nburn/gcc-m68k/bin/../m68k-unknown-elf/sysroot/lib/m54455\libc.a(lib_a-abort.o)
                                0x131 (size before relaxing)
 .debug_str     0x000265e4       0x88 c:/nburn/gcc-m68k/bin/../m68k-unknown-elf/sysroot/lib/m54455\libc.a(lib_a-atexit.o)
                                0x16b (size before relaxing)
 .debug_str     0x0002666c       0x54 c:/nburn/gcc-m68k/bin/../m68k-unknown-elf/sysroot/lib/m54455\libc.a(lib_a-atoi.o)
                                0x4fb (size before relaxing)
 .debug_str     0x000266c0       0x52 c:/nburn/gcc-m68k/bin/../m68k-unknown-elf/sysroot/lib/m54455\libc.a(lib_a-bsearch.o)
                                0x168 (size before relaxing)
 .debug_str     0x00026712       0x49 c:/nburn/gcc-m68k/bin/../m68k-unknown-elf/sysroot/lib/m54455\libc.a(lib_a-bzero.o)
                                0x133 (size before relaxing)
 .debug_str     0x0002675b       0x55 c:/nburn/gcc-m68k/bin/../m68k-unknown-elf/sysroot/lib/m54455\libc.a(lib_a-cxa_atexit.o)
                                0x175 (size before relaxing)
 .debug_str     0x000267b0       0x42 c:/nburn/gcc-m68k/bin/../m68k-unknown-elf/sysroot/lib/m54455\libc.a(lib_a-errno.o)
                                0x4f1 (size before relaxing)
 .debug_str     0x000267f2       0x6b c:/nburn/gcc-m68k/bin/../m68k-unknown-elf/sysroot/lib/m54455\libc.a(lib_a-fputc.o)
                                0x529 (size before relaxing)
 .debug_str     0x0002685d       0x9a c:/nburn/gcc-m68k/bin/../m68k-unknown-elf/sysroot/lib/m54455\libc.a(lib_a-fputs.o)
                                0x573 (size before relaxing)
 .debug_str     0x000268f7       0x95 c:/nburn/gcc-m68k/bin/../m68k-unknown-elf/sysroot/lib/m54455\libc.a(lib_a-fvwrite.o)
                                0x59b (size before relaxing)
 .debug_str     0x0002698c       0x54 c:/nburn/gcc-m68k/bin/../m68k-unknown-elf/sysroot/lib/m54455\libc.a(lib_a-fwrite.o)
                                0x573 (size before relaxing)
 .debug_str     0x000269e0       0x62 c:/nburn/gcc-m68k/bin/../m68k-unknown-elf/sysroot/lib/m54455\libc.a(lib_a-impure.o)
                                0x509 (size before relaxing)
 .debug_str     0x00026a42       0x5a c:/nburn/gcc-m68k/bin/../m68k-unknown-elf/sysroot/lib/m54455\libc.a(lib_a-isalnum.o)
                                 0x9d (size before relaxing)
 .debug_str     0x00026a9c       0x4c c:/nburn/gcc-m68k/bin/../m68k-unknown-elf/sysroot/lib/m54455\libc.a(lib_a-isspace.o)
                                 0x9d (size before relaxing)
 .debug_str     0x00026ae8       0x49 c:/nburn/gcc-m68k/bin/../m68k-unknown-elf/sysroot/lib/m54455\libc.a(lib_a-malloc.o)
                                0x51c (size before relaxing)
 .debug_str     0x00026b31      0x1fb c:/nburn/gcc-m68k/bin/../m68k-unknown-elf/sysroot/lib/m54455\libc.a(lib_a-mallocr.o)
                                0x705 (size before relaxing)
 .debug_str     0x00026d2c       0x4d c:/nburn/gcc-m68k/bin/../m68k-unknown-elf/sysroot/lib/m54455\libc.a(lib_a-memchr.o)
                                0x13e (size before relaxing)
 .debug_str     0x00026d79       0x44 c:/nburn/gcc-m68k/bin/../m68k-unknown-elf/sysroot/lib/m54455\libc.a(lib_a-memcmp.o)
                                0x12e (size before relaxing)
 .debug_str     0x00026dbd       0x4e c:/nburn/gcc-m68k/bin/../m68k-unknown-elf/sysroot/lib/m54455\libc.a(lib_a-memmove.o)
                                0x149 (size before relaxing)
 .debug_str     0x00026e0b       0x4b c:/nburn/gcc-m68k/bin/../m68k-unknown-elf/sysroot/lib/m54455\libc.a(lib_a-putc.o)
                                0x523 (size before relaxing)
 .debug_str     0x00026e56       0x49 c:/nburn/gcc-m68k/bin/../m68k-unknown-elf/sysroot/lib/m54455\libc.a(lib_a-puts.o)
                                0x558 (size before relaxing)
 .debug_str     0x00026e9f       0x42 c:/nburn/gcc-m68k/bin/../m68k-unknown-elf/sysroot/lib/m54455\libc.a(lib_a-rand.o)
                                0x4ff (size before relaxing)
 .debug_str     0x00026ee1       0x45 c:/nburn/gcc-m68k/bin/../m68k-unknown-elf/sysroot/lib/m54455\libc.a(lib_a-realloc.o)
                                0x50d (size before relaxing)
 .debug_str     0x00026f26       0x39 c:/nburn/gcc-m68k/bin/../m68k-unknown-elf/sysroot/lib/m54455\libc.a(lib_a-reallocr.o)
                                0x5d9 (size before relaxing)
 .debug_str     0x00026f5f       0x5f c:/nburn/gcc-m68k/bin/../m68k-unknown-elf/sysroot/lib/m54455\libc.a(lib_a-rget.o)
                                0x523 (size before relaxing)
 .debug_str     0x00026fbe       0x44 c:/nburn/gcc-m68k/bin/../m68k-unknown-elf/sysroot/lib/m54455\libc.a(lib_a-setvbuf.o)
                                0x539 (size before relaxing)
 .debug_str     0x00027002       0xaa c:/nburn/gcc-m68k/bin/../m68k-unknown-elf/sysroot/lib/m54455\libc.a(lib_a-signal.o)
                                0x577 (size before relaxing)
 .debug_str     0x000270ac       0x44 c:/nburn/gcc-m68k/bin/../m68k-unknown-elf/sysroot/lib/m54455\libc.a(lib_a-signalr.o)
                                0x503 (size before relaxing)
 .debug_str     0x000270f0       0x4b c:/nburn/gcc-m68k/bin/../m68k-unknown-elf/sysroot/lib/m54455\libc.a(lib_a-strcat.o)
                                0x127 (size before relaxing)
 .debug_str     0x0002713b       0x44 c:/nburn/gcc-m68k/bin/../m68k-unknown-elf/sysroot/lib/m54455\libc.a(lib_a-strcmp.o)
                                0x127 (size before relaxing)
 .debug_str     0x0002717f       0x4a c:/nburn/gcc-m68k/bin/../m68k-unknown-elf/sysroot/lib/m54455\libc.a(lib_a-strcpy.o)
                                0x132 (size before relaxing)
 .debug_str     0x000271c9       0x4a c:/nburn/gcc-m68k/bin/../m68k-unknown-elf/sysroot/lib/m54455\libc.a(lib_a-strlen.o)
                                0x134 (size before relaxing)
 .debug_str     0x00027213       0x45 c:/nburn/gcc-m68k/bin/../m68k-unknown-elf/sysroot/lib/m54455\libc.a(lib_a-strncmp.o)
                                0x130 (size before relaxing)
 .debug_str     0x00027258       0x63 c:/nburn/gcc-m68k/bin/../m68k-unknown-elf/sysroot/lib/m54455\libc.a(lib_a-strncpy.o)
                                0x14c (size before relaxing)
 .debug_str     0x000272bb       0x5c c:/nburn/gcc-m68k/bin/../m68k-unknown-elf/sysroot/lib/m54455\libc.a(lib_a-strstr.o)
                                0x13f (size before relaxing)
 .debug_str     0x00027317       0x5e c:/nburn/gcc-m68k/bin/../m68k-unknown-elf/sysroot/lib/m54455\libc.a(lib_a-strtol.o)
                                0x52e (size before relaxing)
 .debug_str     0x00027375       0x4c c:/nburn/gcc-m68k/bin/../m68k-unknown-elf/sysroot/lib/m54455\libc.a(lib_a-tolower.o)
                                 0x9d (size before relaxing)
 .debug_str     0x000273c1       0x4c c:/nburn/gcc-m68k/bin/../m68k-unknown-elf/sysroot/lib/m54455\libc.a(lib_a-toupper.o)
                                 0x9d (size before relaxing)
 .debug_str     0x0002740d       0x49 c:/nburn/gcc-m68k/bin/../m68k-unknown-elf/sysroot/lib/m54455\libc.a(lib_a-wbuf.o)
                                0x52d (size before relaxing)
 .debug_str     0x00027456       0x50 c:/nburn/gcc-m68k/bin/../m68k-unknown-elf/sysroot/lib/m54455\libc.a(lib_a-wsetup.o)
                                0x528 (size before relaxing)
 .debug_str     0x000274a6       0x46 c:/nburn/gcc-m68k/bin/../m68k-unknown-elf/sysroot/lib/m54455\libc.a(lib_a-__atexit.o)
                                0x542 (size before relaxing)
 .debug_str     0x000274ec       0x4b c:/nburn/gcc-m68k/bin/../m68k-unknown-elf/sysroot/lib/m54455\libc.a(lib_a-ctype_.o)
                                 0xa5 (size before relaxing)
 .debug_str     0x00027537       0x6c c:/nburn/gcc-m68k/bin/../m68k-unknown-elf/sysroot/lib/m54455\libc.a(lib_a-fflush.o)
                                0x569 (size before relaxing)
 .debug_str     0x000275a3      0x116 c:/nburn/gcc-m68k/bin/../m68k-unknown-elf/sysroot/lib/m54455\libc.a(lib_a-findfp.o)
                                0x61f (size before relaxing)
 .debug_str     0x000276b9       0x2e c:/nburn/gcc-m68k/bin/../m68k-unknown-elf/sysroot/lib/m54455\libc.a(lib_a-freer.o)
                                0x64f (size before relaxing)
 .debug_str     0x000276e7       0x51 c:/nburn/gcc-m68k/bin/../m68k-unknown-elf/sysroot/lib/m54455\libc.a(lib_a-fwalk.o)
                                0x50e (size before relaxing)
 .debug_str     0x00027738       0x62 c:/nburn/gcc-m68k/bin/../m68k-unknown-elf/sysroot/lib/m54455\libc.a(lib_a-makebuf.o)
                                0x60b (size before relaxing)
 .debug_str     0x0002779a       0x55 c:/nburn/gcc-m68k/bin/../m68k-unknown-elf/sysroot/lib/m54455\libc.a(lib_a-refill.o)
                                0x564 (size before relaxing)
 .debug_str     0x000277ef       0x92 c:/nburn/gcc-m68k/bin/../m68k-unknown-elf/sysroot/lib/m54455\libc.a(lib_a-stdio.o)
                                0x554 (size before relaxing)
 .debug_str     0x00027881       0x43 c:/nburn/gcc-m68k/bin/../m68k-unknown-elf/sysroot/lib/m54455\libc.a(lib_a-writer.o)
                                0x4fa (size before relaxing)
 .debug_str     0x000278c4       0x43 c:/nburn/gcc-m68k/bin/../m68k-unknown-elf/sysroot/lib/m54455\libc.a(lib_a-closer.o)
                                0x4f3 (size before relaxing)
 .debug_str     0x00027907       0x4d c:/nburn/gcc-m68k/bin/../m68k-unknown-elf/sysroot/lib/m54455\libc.a(lib_a-fclose.o)
                                0x556 (size before relaxing)
 .debug_str     0x00027954       0x49 c:/nburn/gcc-m68k/bin/../m68k-unknown-elf/sysroot/lib/m54455\libc.a(lib_a-fstatr.o)
                                0x5df (size before relaxing)
 .debug_str     0x0002799d       0x44 c:/nburn/gcc-m68k/bin/../m68k-unknown-elf/sysroot/lib/m54455\libc.a(lib_a-isattyr.o)
                                0x4f6 (size before relaxing)
 .debug_str     0x000279e1       0x43 c:/nburn/gcc-m68k/bin/../m68k-unknown-elf/sysroot/lib/m54455\libc.a(lib_a-lseekr.o)
                                0x4fa (size before relaxing)
 .debug_str     0x00027a24       0x42 c:/nburn/gcc-m68k/bin/../m68k-unknown-elf/sysroot/lib/m54455\libc.a(lib_a-readr.o)
                                0x4f7 (size before relaxing)

.debug_loc      0x00000000    0x255ab
 *(.debug_loc)
 .debug_loc     0x00000000      0x200 main.od
 .debug_loc     0x00000200      0x160 Utility.od
 .debug_loc     0x00000360      0x160 Nav.od
 .debug_loc     0x000004c0      0x200 Logger.od
 .debug_loc     0x000006c0      0x1a0 Drivers\servodrive.od
 .debug_loc     0x00000860      0x120 Drivers\pwm.od
 .debug_loc     0x00000980      0x580 Drivers\introspec.od
 .debug_loc     0x00000f00       0x40 Drivers\dsm2.od
 .debug_loc     0x00000f40       0xc0 Drivers\SpinningLidar.od
 .debug_loc     0x00001000       0xe0 Drivers\Odometer.od
 .debug_loc     0x000010e0       0x20 Drivers\MadgwickFilter.od
 .debug_loc     0x00001100      0x400 Drivers\MPU9250.od
 .debug_loc     0x00001500       0xc0 Drivers\LidarPWM.od
 .debug_loc     0x000015c0      0x100 Drivers\LCD.od
 .debug_loc     0x000016c0      0x240 Drivers\IMUSetupAndSample.od
 .debug_loc     0x00001900       0x40 htmldata.od
 .debug_loc     0x00001940      0x620 C:\Nburn/lib/DBNANO54415.a(serial.od)
 .debug_loc     0x00001f60       0xc0 C:\Nburn/lib/DBNANO54415.a(pins.od)
 .debug_loc     0x00002020       0x80 C:\Nburn/lib/DBNANO54415.a(SimpleAD.od)
 .debug_loc     0x000020a0      0x1c0 C:\Nburn/lib/DBNANO54415.a(FlashOps.od)
 .debug_loc     0x00002260      0x480 C:\Nburn/lib/DBNANO54415.a(HiResTimer.od)
 .debug_loc     0x000026e0       0x20 C:\Nburn/lib/DBNANO54415.a(netwait.od)
 .debug_loc     0x00002700      0x120 C:\Nburn/lib/DBNANO54415.a(pin_irq.od)
 .debug_loc     0x00002820      0xa20 C:\Nburn/lib/DBNANO54415.a(dbethernet.od)
 .debug_loc     0x00003240      0x1e0 C:\Nburn/lib/DBNANO54415.a(bsp.od)
 .debug_loc     0x00003420       0xa0 C:\Nburn/lib/DBNANO54415.a(localio.od)
 .debug_loc     0x000034c0       0x40 C:\Nburn/lib/DBNANO54415.a(userparam.od)
 .debug_loc     0x00003500      0x2e0 C:\Nburn/lib/DBNANO54415.a(multichanneli2c.od)
 .debug_loc     0x000037e0       0x60 C:\Nburn/lib/DBNANO54415.a(defpins.od)
 .debug_loc     0x00003840      0x740 C:\Nburn/lib/DBNANO54415.a(ethernet.od)
 .debug_loc     0x00003f80      0x200 C:\Nburn/lib/DBNANO54415.a(etherprint.od)
 .debug_loc     0x00004180       0xa0 C:\Nburn/lib/DBNANO54415.a(emulticast.od)
 .debug_loc     0x00004220      0x2c0 C:\Nburn/lib/DBNANO54415.a(SPIFlash.od)
 .debug_loc     0x000044e0       0x60 C:\Nburn/lib/DBNANO54415.a(ethernetauxdb.od)
 .debug_loc     0x00004540      0x160 C:\Nburn/lib/DBNANO54415.a(ether2nd.od)
 .debug_loc     0x000046a0      0x1c0 C:\Nburn/lib/DBNANO54415.a(etherswitch.od)
 .debug_loc     0x00004860      0x780 C:\Nburn/lib/DBNANO54415.a(i2c_class.od)
 .debug_loc     0x00004fe0       0x40 C:\Nburn/lib/DBNetBurner.a(main.od)
 .debug_loc     0x00005020       0x80 C:\Nburn/lib/DBNetBurner.a(ucosmcfc.od)
 .debug_loc     0x000050a0      0x600 C:\Nburn/lib/DBNetBurner.a(ucos.od)
 .debug_loc     0x000056a0       0x20 C:\Nburn/lib/DBNetBurner.a(cppmain.od)
 .debug_loc     0x000056c0       0xa0 C:\Nburn/lib/DBNetBurner.a(debugtrap.od)
 .debug_loc     0x00005760      0x1e0 C:\Nburn/lib/DBNetBurner.a(ucosmain.od)
 .debug_loc     0x00005940      0x200 C:\Nburn/lib/DBNetBurner.a(fileio.od)
 .debug_loc     0x00005b40      0x1c0 C:\Nburn/lib/DBNetBurner.a(system.od)
 .debug_loc     0x00005d00      0x480 C:\Nburn/lib/DBNetBurner.a(utils.od)
 .debug_loc     0x00006180      0x6e0 C:\Nburn/lib/DBNetBurner.a(ip.od)
 .debug_loc     0x00006860      0x560 C:\Nburn/lib/DBNetBurner.a(buffers.od)
 .debug_loc     0x00006dc0      0x7c0 C:\Nburn/lib/DBNetBurner.a(arp.od)
 .debug_loc     0x00007580      0x8c0 C:\Nburn/lib/DBNetBurner.a(udp.od)
 .debug_loc     0x00007e40      0x6a0 C:\Nburn/lib/DBNetBurner.a(ftpd.od)
 .debug_loc     0x000084e0     0x1980 C:\Nburn/lib/DBNetBurner.a(tcp.od)
 .debug_loc     0x00009e60      0x180 C:\Nburn/lib/DBNetBurner.a(extraio.od)
 .debug_loc     0x00009fe0      0x1a0 C:\Nburn/lib/DBNetBurner.a(http.od)
 .debug_loc     0x0000a180      0x400 C:\Nburn/lib/DBNetBurner.a(httpinternal.od)
 .debug_loc     0x0000a580       0x20 C:\Nburn/lib/DBNetBurner.a(httpstricmp.od)
 .debug_loc     0x0000a5a0      0x200 C:\Nburn/lib/DBNetBurner.a(htmldecomp.od)
 .debug_loc     0x0000a7a0      0x3e0 C:\Nburn/lib/DBNetBurner.a(iosys.od)
 .debug_loc     0x0000ab80       0x20 C:\Nburn/lib/DBNetBurner.a(new_ops.od)
 .debug_loc     0x0000aba0      0x2e0 C:\Nburn/lib/DBNetBurner.a(autoip.od)
 .debug_loc     0x0000ae80      0x9a0 C:\Nburn/lib/DBNetBurner.a(dhcpc.od)
 .debug_loc     0x0000b820       0x20 C:\Nburn/lib/DBNetBurner.a(netrx.od)
 .debug_loc     0x0000b840      0x320 C:\Nburn/lib/DBNetBurner.a(netinterface.od)
 .debug_loc     0x0000bb60       0xa0 C:\Nburn/lib/DBNetBurner.a(multiconfig.od)
 .debug_loc     0x0000bc00       0x80 C:\Nburn/lib/DBNetBurner.a(taskmon.od)
 .debug_loc     0x0000bc80      0x100 C:\Nburn/lib/DBNetBurner.a(smarttrap.od)
 .debug_loc     0x0000bd80      0x120 C:\Nburn/lib/DBNetBurner.a(autoupdate.od)
 .debug_loc     0x0000bea0       0xe0 C:\Nburn/lib/DBNetBurner.a(device.od)
 .debug_loc     0x0000bf80      0x1c0 C:\Nburn/lib/DBNetBurner.a(base64.od)
 .debug_loc     0x0000c140      0x2a0 C:\Nburn/lib/DBNetBurner.a(nbiprintf.od)
 .debug_loc     0x0000c3e0       0x20 C:\Nburn/lib/DBNetBurner.a(nbprintf.od)
 .debug_loc     0x0000c400       0x60 C:\Nburn/lib/DBNetBurner.a(nbsiprintf.od)
 .debug_loc     0x0000c460      0x140 C:\Nburn/lib/DBNetBurner.a(nbsprintf.od)
 .debug_loc     0x0000c5a0       0x20 C:\Nburn/lib/DBNetBurner.a(weakumain.od)
 .debug_loc     0x0000c5c0       0x20 C:\Nburn/lib/DBNetBurner.a(cusermain.od)
 .debug_loc     0x0000c5e0       0x20 C:\Nburn/lib/DBNetBurner.a(fdprintf.od)
 .debug_loc     0x0000c600      0x380 C:\Nburn/lib/DBNetBurner.a(ipv6_addr.od)
 .debug_loc     0x0000c980      0x2e0 C:\Nburn/lib/DBNetBurner.a(ipv6_tcp.od)
 .debug_loc     0x0000cc60     0x19a0 C:\Nburn/lib/DBNetBurner.a(ipv6_ip.od)
 .debug_loc     0x0000e600      0x3a0 C:\Nburn/lib/DBNetBurner.a(ipv6_udp.od)
 .debug_loc     0x0000e9a0       0x40 C:\Nburn/lib/DBNetBurner.a(ipv6_printhelp.od)
 .debug_loc     0x0000e9e0      0x1a0 C:\Nburn/lib/DBNetBurner.a(ipv6_extensions.od)
 .debug_loc     0x0000eb80      0x240 C:\Nburn/lib/DBNetBurner.a(ipv6_multicast.od)
 .debug_loc     0x0000edc0      0x260 C:\Nburn/lib/DBNetBurner.a(ipv6_show.od)
 .debug_loc     0x0000f020      0x860 C:\Nburn/lib/DBNetBurner.a(ipv6_dhcp.od)
 .debug_loc     0x0000f880      0x520 C:\Nburn/lib/DBNetBurner.a(multicast.od)
 .debug_loc     0x0000fda0      0x140 C:\Nburn/lib/DBNetBurner.a(random.od)
 .debug_loc     0x0000fee0      0x160 C:\Nburn/lib/DBNetBurner.a(nbfloatprint.od)
 .debug_loc     0x00010040       0x40 C:\Nburn/lib/DBNetBurner.a(fdiprintf.od)
 .debug_loc     0x00010080      0x1a0 C:\Nburn/lib/DBNetBurner.a(md5c.od)
 .debug_loc     0x00010220       0x40 c:/nburn/gcc-m68k/bin/../m68k-unknown-elf/sysroot/lib/m54455\libstdc++.a(eh_terminate.o)
 .debug_loc     0x00010260      0x14f c:/nburn/gcc-m68k/bin/../m68k-unknown-elf/sysroot/lib/m54455\libstdc++.a(eh_catch.o)
 .debug_loc     0x000103af      0xf23 c:/nburn/gcc-m68k/bin/../m68k-unknown-elf/sysroot/lib/m54455\libstdc++.a(eh_personality.o)
 .debug_loc     0x000112d2       0xb8 c:/nburn/gcc-m68k/bin/../m68k-unknown-elf/sysroot/lib/m54455\libstdc++.a(vterminate.o)
 .debug_loc     0x0001138a      0x2d5 c:/nburn/gcc-m68k/bin/../m68k-unknown-elf/sysroot/lib/m54455\libstdc++.a(eh_alloc.o)
 .debug_loc     0x0001165f     0x3784 c:/nburn/gcc-m68k/bin/../m68k-unknown-elf/sysroot/lib/m54455\libstdc++.a(cp-demangle.o)
 .debug_loc     0x00014de3       0x5c c:/nburn/gcc-m68k/bin/../m68k-unknown-elf/sysroot/lib/m54455\libstdc++.a(eh_throw.o)
 .debug_loc     0x00014e3f       0x7d c:/nburn/gcc-m68k/bin/../m68k-unknown-elf/sysroot/lib/m54455\libstdc++.a(eh_type.o)
 .debug_loc     0x00014ebc      0x10b c:/nburn/gcc-m68k/bin/../m68k-unknown-elf/sysroot/lib/m54455\libstdc++.a(si_class_type_info.o)
 .debug_loc     0x00014fc7      0x14b c:/nburn/gcc-m68k/bin/../m68k-unknown-elf/sysroot/lib/m54455\libstdc++.a(class_type_info.o)
 .debug_loc     0x00015112       0x3a c:/nburn/gcc-m68k/bin/../m68k-unknown-elf/sysroot/lib/m54455\libm.a(lib_a-s_cos.o)
 .debug_loc     0x0001514c       0x6a c:/nburn/gcc-m68k/bin/../m68k-unknown-elf/sysroot/lib/m54455\libm.a(lib_a-s_fpclassify.o)
 .debug_loc     0x000151b6      0x1c5 c:/nburn/gcc-m68k/bin/../m68k-unknown-elf/sysroot/lib/m54455\libm.a(lib_a-s_modf.o)
 .debug_loc     0x0001537b      0x1f3 c:/nburn/gcc-m68k/bin/../m68k-unknown-elf/sysroot/lib/m54455\libm.a(lib_a-s_round.o)
 .debug_loc     0x0001556e       0x3a c:/nburn/gcc-m68k/bin/../m68k-unknown-elf/sysroot/lib/m54455\libm.a(lib_a-s_sin.o)
 .debug_loc     0x000155a8       0xf4 c:/nburn/gcc-m68k/bin/../m68k-unknown-elf/sysroot/lib/m54455\libm.a(lib_a-w_pow.o)
 .debug_loc     0x0001569c       0x48 c:/nburn/gcc-m68k/bin/../m68k-unknown-elf/sysroot/lib/m54455\libm.a(lib_a-w_sqrt.o)
 .debug_loc     0x000156e4       0x1e c:/nburn/gcc-m68k/bin/../m68k-unknown-elf/sysroot/lib/m54455\libm.a(lib_a-wf_asin.o)
 .debug_loc     0x00015702       0x29 c:/nburn/gcc-m68k/bin/../m68k-unknown-elf/sysroot/lib/m54455\libm.a(lib_a-wf_sqrt.o)
 .debug_loc     0x0001572b      0x40f c:/nburn/gcc-m68k/bin/../m68k-unknown-elf/sysroot/lib/m54455\libm.a(lib_a-e_atan2.o)
 .debug_loc     0x00015b3a      0xc56 c:/nburn/gcc-m68k/bin/../m68k-unknown-elf/sysroot/lib/m54455\libm.a(lib_a-e_pow.o)
 .debug_loc     0x00016790      0x413 c:/nburn/gcc-m68k/bin/../m68k-unknown-elf/sysroot/lib/m54455\libm.a(lib_a-e_rem_pio2.o)
 .debug_loc     0x00016ba3      0x282 c:/nburn/gcc-m68k/bin/../m68k-unknown-elf/sysroot/lib/m54455\libm.a(lib_a-e_sqrt.o)
 .debug_loc     0x00016e25      0x4df c:/nburn/gcc-m68k/bin/../m68k-unknown-elf/sysroot/lib/m54455\libm.a(lib_a-ef_asin.o)
 .debug_loc     0x00017304      0x33d c:/nburn/gcc-m68k/bin/../m68k-unknown-elf/sysroot/lib/m54455\libm.a(lib_a-ef_atan2.o)
 .debug_loc     0x00017641      0x17b c:/nburn/gcc-m68k/bin/../m68k-unknown-elf/sysroot/lib/m54455\libm.a(lib_a-ef_sqrt.o)
 .debug_loc     0x000177bc      0x12c c:/nburn/gcc-m68k/bin/../m68k-unknown-elf/sysroot/lib/m54455\libm.a(lib_a-k_cos.o)
 .debug_loc     0x000178e8      0xa3a c:/nburn/gcc-m68k/bin/../m68k-unknown-elf/sysroot/lib/m54455\libm.a(lib_a-k_rem_pio2.o)
 .debug_loc     0x00018322       0x4b c:/nburn/gcc-m68k/bin/../m68k-unknown-elf/sysroot/lib/m54455\libm.a(lib_a-k_sin.o)
 .debug_loc     0x0001836d      0x264 c:/nburn/gcc-m68k/bin/../m68k-unknown-elf/sysroot/lib/m54455\libm.a(lib_a-s_atan.o)
 .debug_loc     0x000185d1       0x14 c:/nburn/gcc-m68k/bin/../m68k-unknown-elf/sysroot/lib/m54455\libm.a(lib_a-s_fabs.o)
 .debug_loc     0x000185e5      0x143 c:/nburn/gcc-m68k/bin/../m68k-unknown-elf/sysroot/lib/m54455\libm.a(lib_a-s_floor.o)
 .debug_loc     0x00018728      0x3c5 c:/nburn/gcc-m68k/bin/../m68k-unknown-elf/sysroot/lib/m54455\libm.a(lib_a-s_rint.o)
 .debug_loc     0x00018aed      0x1cf c:/nburn/gcc-m68k/bin/../m68k-unknown-elf/sysroot/lib/m54455\libm.a(lib_a-s_scalbn.o)
 .debug_loc     0x00018cbc      0x28c c:/nburn/gcc-m68k/bin/../m68k-unknown-elf/sysroot/lib/m54455\libm.a(lib_a-sf_atan.o)
 .debug_loc     0x00018f48       0x2a c:/nburn/gcc-m68k/bin/../m68k-unknown-elf/sysroot/lib/m54455\libm.a(lib_a-sf_fabs.o)
 .debug_loc     0x00018f72       0x14 c:/nburn/gcc-m68k/bin/../m68k-unknown-elf/sysroot/lib/m54455\libm.a(lib_a-s_copysign.o)
 .debug_loc     0x00018f86       0x58 c:/nburn/gcc-m68k/bin/../lib/gcc/m68k-unknown-elf/5.2.0/m54455\libgcc.a(_muldi3.o)
 .debug_loc     0x00018fde       0x77 c:/nburn/gcc-m68k/bin/../lib/gcc/m68k-unknown-elf/5.2.0/m54455\libgcc.a(_fixunsdfdi.o)
 .debug_loc     0x00019055     0x162e c:/nburn/gcc-m68k/bin/../lib/gcc/m68k-unknown-elf/5.2.0/m54455\libgcc.a(_udivdi3.o)
 .debug_loc     0x0001a683      0xeb3 c:/nburn/gcc-m68k/bin/../lib/gcc/m68k-unknown-elf/5.2.0/m54455\libgcc.a(_umoddi3.o)
 .debug_loc     0x0001b536      0x6f6 c:/nburn/gcc-m68k/bin/../lib/gcc/m68k-unknown-elf/5.2.0/m54455\libgcc.a(fpgnulib.o)
 .debug_loc     0x0001bc2c     0x4f86 c:/nburn/gcc-m68k/bin/../lib/gcc/m68k-unknown-elf/5.2.0/m54455\libgcc.a(unwind-dw2.o)
 .debug_loc     0x00020bb2     0x1f1e c:/nburn/gcc-m68k/bin/../lib/gcc/m68k-unknown-elf/5.2.0/m54455\libgcc.a(unwind-dw2-fde.o)
 .debug_loc     0x00022ad0       0xa3 c:/nburn/gcc-m68k/bin/../m68k-unknown-elf/sysroot/lib/m54455\libc.a(lib_a-bsearch.o)
 .debug_loc     0x00022b73       0x54 c:/nburn/gcc-m68k/bin/../m68k-unknown-elf/sysroot/lib/m54455\libc.a(lib_a-bzero.o)
 .debug_loc     0x00022bc7       0x1f c:/nburn/gcc-m68k/bin/../m68k-unknown-elf/sysroot/lib/m54455\libc.a(lib_a-fputc.o)
 .debug_loc     0x00022be6       0x1f c:/nburn/gcc-m68k/bin/../m68k-unknown-elf/sysroot/lib/m54455\libc.a(lib_a-fputs.o)
 .debug_loc     0x00022c05      0x3ec c:/nburn/gcc-m68k/bin/../m68k-unknown-elf/sysroot/lib/m54455\libc.a(lib_a-fvwrite.o)
 .debug_loc     0x00022ff1       0x6f c:/nburn/gcc-m68k/bin/../m68k-unknown-elf/sysroot/lib/m54455\libc.a(lib_a-fwrite.o)
 .debug_loc     0x00023060      0x642 c:/nburn/gcc-m68k/bin/../m68k-unknown-elf/sysroot/lib/m54455\libc.a(lib_a-mallocr.o)
 .debug_loc     0x000236a2       0xac c:/nburn/gcc-m68k/bin/../m68k-unknown-elf/sysroot/lib/m54455\libc.a(lib_a-memchr.o)
 .debug_loc     0x0002374e       0xd3 c:/nburn/gcc-m68k/bin/../m68k-unknown-elf/sysroot/lib/m54455\libc.a(lib_a-memcmp.o)
 .debug_loc     0x00023821      0x13c c:/nburn/gcc-m68k/bin/../m68k-unknown-elf/sysroot/lib/m54455\libc.a(lib_a-memmove.o)
 .debug_loc     0x0002395d       0x6f c:/nburn/gcc-m68k/bin/../m68k-unknown-elf/sysroot/lib/m54455\libc.a(lib_a-putc.o)
 .debug_loc     0x000239cc       0x54 c:/nburn/gcc-m68k/bin/../m68k-unknown-elf/sysroot/lib/m54455\libc.a(lib_a-puts.o)
 .debug_loc     0x00023a20       0x13 c:/nburn/gcc-m68k/bin/../m68k-unknown-elf/sysroot/lib/m54455\libc.a(lib_a-rand.o)
 .debug_loc     0x00023a33      0xbeb c:/nburn/gcc-m68k/bin/../m68k-unknown-elf/sysroot/lib/m54455\libc.a(lib_a-reallocr.o)
 .debug_loc     0x0002461e       0x1f c:/nburn/gcc-m68k/bin/../m68k-unknown-elf/sysroot/lib/m54455\libc.a(lib_a-rget.o)
 .debug_loc     0x0002463d      0x153 c:/nburn/gcc-m68k/bin/../m68k-unknown-elf/sysroot/lib/m54455\libc.a(lib_a-setvbuf.o)
 .debug_loc     0x00024790       0x80 c:/nburn/gcc-m68k/bin/../m68k-unknown-elf/sysroot/lib/m54455\libc.a(lib_a-signal.o)
 .debug_loc     0x00024810       0x82 c:/nburn/gcc-m68k/bin/../m68k-unknown-elf/sysroot/lib/m54455\libc.a(lib_a-strcat.o)
 .debug_loc     0x00024892       0x68 c:/nburn/gcc-m68k/bin/../m68k-unknown-elf/sysroot/lib/m54455\libc.a(lib_a-strcmp.o)
 .debug_loc     0x000248fa       0x3d c:/nburn/gcc-m68k/bin/../m68k-unknown-elf/sysroot/lib/m54455\libc.a(lib_a-strcpy.o)
 .debug_loc     0x00024937       0x33 c:/nburn/gcc-m68k/bin/../m68k-unknown-elf/sysroot/lib/m54455\libc.a(lib_a-strlen.o)
 .debug_loc     0x0002496a       0xfc c:/nburn/gcc-m68k/bin/../m68k-unknown-elf/sysroot/lib/m54455\libc.a(lib_a-strncmp.o)
 .debug_loc     0x00024a66       0xa5 c:/nburn/gcc-m68k/bin/../m68k-unknown-elf/sysroot/lib/m54455\libc.a(lib_a-strncpy.o)
 .debug_loc     0x00024b0b       0x3d c:/nburn/gcc-m68k/bin/../m68k-unknown-elf/sysroot/lib/m54455\libc.a(lib_a-strstr.o)
 .debug_loc     0x00024b48      0x1eb c:/nburn/gcc-m68k/bin/../m68k-unknown-elf/sysroot/lib/m54455\libc.a(lib_a-strtol.o)
 .debug_loc     0x00024d33       0x8b c:/nburn/gcc-m68k/bin/../m68k-unknown-elf/sysroot/lib/m54455\libc.a(lib_a-wbuf.o)
 .debug_loc     0x00024dbe       0x13 c:/nburn/gcc-m68k/bin/../m68k-unknown-elf/sysroot/lib/m54455\libc.a(lib_a-wsetup.o)
 .debug_loc     0x00024dd1       0x85 c:/nburn/gcc-m68k/bin/../m68k-unknown-elf/sysroot/lib/m54455\libc.a(lib_a-__atexit.o)
 .debug_loc     0x00024e56      0x122 c:/nburn/gcc-m68k/bin/../m68k-unknown-elf/sysroot/lib/m54455\libc.a(lib_a-fflush.o)
 .debug_loc     0x00024f78       0x8b c:/nburn/gcc-m68k/bin/../m68k-unknown-elf/sysroot/lib/m54455\libc.a(lib_a-findfp.o)
 .debug_loc     0x00025003      0x347 c:/nburn/gcc-m68k/bin/../m68k-unknown-elf/sysroot/lib/m54455\libc.a(lib_a-freer.o)
 .debug_loc     0x0002534a       0xc6 c:/nburn/gcc-m68k/bin/../m68k-unknown-elf/sysroot/lib/m54455\libc.a(lib_a-fwalk.o)
 .debug_loc     0x00025410       0x81 c:/nburn/gcc-m68k/bin/../m68k-unknown-elf/sysroot/lib/m54455\libc.a(lib_a-makebuf.o)
 .debug_loc     0x00025491       0x3e c:/nburn/gcc-m68k/bin/../m68k-unknown-elf/sysroot/lib/m54455\libc.a(lib_a-refill.o)
 .debug_loc     0x000254cf       0x85 c:/nburn/gcc-m68k/bin/../m68k-unknown-elf/sysroot/lib/m54455\libc.a(lib_a-stdio.o)
 .debug_loc     0x00025554       0x57 c:/nburn/gcc-m68k/bin/../m68k-unknown-elf/sysroot/lib/m54455\libc.a(lib_a-fclose.o)

.comment        0x00000000       0x1c
 .comment       0x00000000       0x1c c:/nburn/gcc-m68k/bin/../lib/gcc/m68k-unknown-elf/5.2.0/m54455/crtbegin.o
                                 0x1d (size before relaxing)
 .comment       0x0000001c       0x1d main.od
 .comment       0x0000001c       0x1d Utility.od
 .comment       0x0000001c       0x1d Nav.od
 .comment       0x0000001c       0x1d Logger.od
 .comment       0x0000001c       0x1d Drivers\servodrive.od
 .comment       0x0000001c       0x1d Drivers\pwm.od
 .comment       0x0000001c       0x1d Drivers\introspec.od
 .comment       0x0000001c       0x1d Drivers\dsm2.od
 .comment       0x0000001c       0x1d Drivers\SpinningLidar.od
 .comment       0x0000001c       0x1d Drivers\Odometer.od
 .comment       0x0000001c       0x1d Drivers\MadgwickFilter.od
 .comment       0x0000001c       0x1d Drivers\MPU9250.od
 .comment       0x0000001c       0x1d Drivers\LidarPWM.od
 .comment       0x0000001c       0x1d Drivers\LCD.od
 .comment       0x0000001c       0x1d Drivers\IMUSetupAndSample.od
 .comment       0x0000001c       0x1d htmldata.od
 .comment       0x0000001c       0x1d C:\Nburn/lib/DBNANO54415.a(serial.od)
 .comment       0x0000001c       0x1d C:\Nburn/lib/DBNANO54415.a(pins.od)
 .comment       0x0000001c       0x1d C:\Nburn/lib/DBNANO54415.a(SimpleAD.od)
 .comment       0x0000001c       0x1d C:\Nburn/lib/DBNANO54415.a(FlashOps.od)
 .comment       0x0000001c       0x1d C:\Nburn/lib/DBNANO54415.a(HiResTimer.od)
 .comment       0x0000001c       0x1d C:\Nburn/lib/DBNANO54415.a(netwait.od)
 .comment       0x0000001c       0x1d C:\Nburn/lib/DBNANO54415.a(pin_irq.od)
 .comment       0x0000001c       0x1d C:\Nburn/lib/DBNANO54415.a(dbethernet.od)
 .comment       0x0000001c       0x1d C:\Nburn/lib/DBNANO54415.a(bsp.od)
 .comment       0x0000001c       0x1d C:\Nburn/lib/DBNANO54415.a(localio.od)
 .comment       0x0000001c       0x1d C:\Nburn/lib/DBNANO54415.a(userparam.od)
 .comment       0x0000001c       0x1d C:\Nburn/lib/DBNANO54415.a(multichanneli2c.od)
 .comment       0x0000001c       0x1d C:\Nburn/lib/DBNANO54415.a(defpins.od)
 .comment       0x0000001c       0x1d C:\Nburn/lib/DBNANO54415.a(ethernet.od)
 .comment       0x0000001c       0x1d C:\Nburn/lib/DBNANO54415.a(etherprint.od)
 .comment       0x0000001c       0x1d C:\Nburn/lib/DBNANO54415.a(emulticast.od)
 .comment       0x0000001c       0x1d C:\Nburn/lib/DBNANO54415.a(SPIFlash.od)
 .comment       0x0000001c       0x1d C:\Nburn/lib/DBNANO54415.a(ethernetauxdb.od)
 .comment       0x0000001c       0x1d C:\Nburn/lib/DBNANO54415.a(ether2nd.od)
 .comment       0x0000001c       0x1d C:\Nburn/lib/DBNANO54415.a(etherswitch.od)
 .comment       0x0000001c       0x1d C:\Nburn/lib/DBNANO54415.a(weak_autoenet_var.od)
 .comment       0x0000001c       0x1d C:\Nburn/lib/DBNANO54415.a(i2c_class.od)
 .comment       0x0000001c       0x1d C:\Nburn/lib/DBNetBurner.a(main.od)
 .comment       0x0000001c       0x1d C:\Nburn/lib/DBNetBurner.a(ucosmcfc.od)
 .comment       0x0000001c       0x1d C:\Nburn/lib/DBNetBurner.a(ucos.od)
 .comment       0x0000001c       0x1d C:\Nburn/lib/DBNetBurner.a(cppmain.od)
 .comment       0x0000001c       0x1d C:\Nburn/lib/DBNetBurner.a(debugtrap.od)
 .comment       0x0000001c       0x1d C:\Nburn/lib/DBNetBurner.a(ucosmain.od)
 .comment       0x0000001c       0x1d C:\Nburn/lib/DBNetBurner.a(fileio.od)
 .comment       0x0000001c       0x1d C:\Nburn/lib/DBNetBurner.a(system.od)
 .comment       0x0000001c       0x1d C:\Nburn/lib/DBNetBurner.a(utils.od)
 .comment       0x0000001c       0x1d C:\Nburn/lib/DBNetBurner.a(ip.od)
 .comment       0x0000001c       0x1d C:\Nburn/lib/DBNetBurner.a(buffers.od)
 .comment       0x0000001c       0x1d C:\Nburn/lib/DBNetBurner.a(arp.od)
 .comment       0x0000001c       0x1d C:\Nburn/lib/DBNetBurner.a(udp.od)
 .comment       0x0000001c       0x1d C:\Nburn/lib/DBNetBurner.a(ftpd.od)
 .comment       0x0000001c       0x1d C:\Nburn/lib/DBNetBurner.a(tcp.od)
 .comment       0x0000001c       0x1d C:\Nburn/lib/DBNetBurner.a(extraio.od)
 .comment       0x0000001c       0x1d C:\Nburn/lib/DBNetBurner.a(http.od)
 .comment       0x0000001c       0x1d C:\Nburn/lib/DBNetBurner.a(httpinternal.od)
 .comment       0x0000001c       0x1d C:\Nburn/lib/DBNetBurner.a(httpstricmp.od)
 .comment       0x0000001c       0x1d C:\Nburn/lib/DBNetBurner.a(htmldecomp.od)
 .comment       0x0000001c       0x1d C:\Nburn/lib/DBNetBurner.a(iosys.od)
 .comment       0x0000001c       0x1d C:\Nburn/lib/DBNetBurner.a(new_ops.od)
 .comment       0x0000001c       0x1d C:\Nburn/lib/DBNetBurner.a(autoip.od)
 .comment       0x0000001c       0x1d C:\Nburn/lib/DBNetBurner.a(dhcpc.od)
 .comment       0x0000001c       0x1d C:\Nburn/lib/DBNetBurner.a(netrx.od)
 .comment       0x0000001c       0x1d C:\Nburn/lib/DBNetBurner.a(netinterface.od)
 .comment       0x0000001c       0x1d C:\Nburn/lib/DBNetBurner.a(multiconfig.od)
 .comment       0x0000001c       0x1d C:\Nburn/lib/DBNetBurner.a(taskmon.od)
 .comment       0x0000001c       0x1d C:\Nburn/lib/DBNetBurner.a(smarttrap.od)
 .comment       0x0000001c       0x1d C:\Nburn/lib/DBNetBurner.a(autoupdate.od)
 .comment       0x0000001c       0x1d C:\Nburn/lib/DBNetBurner.a(device.od)
 .comment       0x0000001c       0x1d C:\Nburn/lib/DBNetBurner.a(base64.od)
 .comment       0x0000001c       0x1d C:\Nburn/lib/DBNetBurner.a(nbiprintf.od)
 .comment       0x0000001c       0x1d C:\Nburn/lib/DBNetBurner.a(nbprintf.od)
 .comment       0x0000001c       0x1d C:\Nburn/lib/DBNetBurner.a(nbsiprintf.od)
 .comment       0x0000001c       0x1d C:\Nburn/lib/DBNetBurner.a(nbsprintf.od)
 .comment       0x0000001c       0x1d C:\Nburn/lib/DBNetBurner.a(weakumain.od)
 .comment       0x0000001c       0x1d C:\Nburn/lib/DBNetBurner.a(cusermain.od)
 .comment       0x0000001c       0x1d C:\Nburn/lib/DBNetBurner.a(fdprintf.od)
 .comment       0x0000001c       0x1d C:\Nburn/lib/DBNetBurner.a(websocket_handler.od)
 .comment       0x0000001c       0x1d C:\Nburn/lib/DBNetBurner.a(ipv6_addr.od)
 .comment       0x0000001c       0x1d C:\Nburn/lib/DBNetBurner.a(ipv6_tcp.od)
 .comment       0x0000001c       0x1d C:\Nburn/lib/DBNetBurner.a(ipv6_ip.od)
 .comment       0x0000001c       0x1d C:\Nburn/lib/DBNetBurner.a(ipv6_udp.od)
 .comment       0x0000001c       0x1d C:\Nburn/lib/DBNetBurner.a(ipv6_printhelp.od)
 .comment       0x0000001c       0x1d C:\Nburn/lib/DBNetBurner.a(ipv6_extensions.od)
 .comment       0x0000001c       0x1d C:\Nburn/lib/DBNetBurner.a(ipv6_multicast.od)
 .comment       0x0000001c       0x1d C:\Nburn/lib/DBNetBurner.a(ipv6_show.od)
 .comment       0x0000001c       0x1d C:\Nburn/lib/DBNetBurner.a(ipv6_dhcp.od)
 .comment       0x0000001c       0x1d C:\Nburn/lib/DBNetBurner.a(multicast.od)
 .comment       0x0000001c       0x1d C:\Nburn/lib/DBNetBurner.a(random.od)
 .comment       0x0000001c       0x1d C:\Nburn/lib/DBNetBurner.a(nbfloatprint.od)
 .comment       0x0000001c       0x1d C:\Nburn/lib/DBNetBurner.a(fdiprintf.od)
 .comment       0x0000001c       0x1d C:\Nburn/lib/DBNetBurner.a(md5c.od)
 .comment       0x0000001c       0x1d c:/nburn/gcc-m68k/bin/../m68k-unknown-elf/sysroot/lib/m54455\libstdc++.a(pure.o)
 .comment       0x0000001c       0x1d c:/nburn/gcc-m68k/bin/../m68k-unknown-elf/sysroot/lib/m54455\libstdc++.a(eh_terminate.o)
 .comment       0x0000001c       0x1d c:/nburn/gcc-m68k/bin/../m68k-unknown-elf/sysroot/lib/m54455\libstdc++.a(del_op.o)
 .comment       0x0000001c       0x1d c:/nburn/gcc-m68k/bin/../m68k-unknown-elf/sysroot/lib/m54455\libstdc++.a(del_ops.o)
 .comment       0x0000001c       0x1d c:/nburn/gcc-m68k/bin/../m68k-unknown-elf/sysroot/lib/m54455\libstdc++.a(eh_unex_handler.o)
 .comment       0x0000001c       0x1d c:/nburn/gcc-m68k/bin/../m68k-unknown-elf/sysroot/lib/m54455\libstdc++.a(eh_term_handler.o)
 .comment       0x0000001c       0x1d c:/nburn/gcc-m68k/bin/../m68k-unknown-elf/sysroot/lib/m54455\libstdc++.a(eh_catch.o)
 .comment       0x0000001c       0x1d c:/nburn/gcc-m68k/bin/../m68k-unknown-elf/sysroot/lib/m54455\libstdc++.a(eh_personality.o)
 .comment       0x0000001c       0x1d c:/nburn/gcc-m68k/bin/../m68k-unknown-elf/sysroot/lib/m54455\libstdc++.a(eh_exception.o)
 .comment       0x0000001c       0x1d c:/nburn/gcc-m68k/bin/../m68k-unknown-elf/sysroot/lib/m54455\libstdc++.a(eh_globals.o)
 .comment       0x0000001c       0x1d c:/nburn/gcc-m68k/bin/../m68k-unknown-elf/sysroot/lib/m54455\libstdc++.a(vterminate.o)
 .comment       0x0000001c       0x1d c:/nburn/gcc-m68k/bin/../m68k-unknown-elf/sysroot/lib/m54455\libstdc++.a(eh_alloc.o)
 .comment       0x0000001c       0x1d c:/nburn/gcc-m68k/bin/../m68k-unknown-elf/sysroot/lib/m54455\libstdc++.a(cp-demangle.o)
 .comment       0x0000001c       0x1d c:/nburn/gcc-m68k/bin/../m68k-unknown-elf/sysroot/lib/m54455\libstdc++.a(eh_throw.o)
 .comment       0x0000001c       0x1d c:/nburn/gcc-m68k/bin/../m68k-unknown-elf/sysroot/lib/m54455\libstdc++.a(eh_type.o)
 .comment       0x0000001c       0x1d c:/nburn/gcc-m68k/bin/../m68k-unknown-elf/sysroot/lib/m54455\libstdc++.a(si_class_type_info.o)
 .comment       0x0000001c       0x1d c:/nburn/gcc-m68k/bin/../m68k-unknown-elf/sysroot/lib/m54455\libstdc++.a(eh_call.o)
 .comment       0x0000001c       0x1d c:/nburn/gcc-m68k/bin/../m68k-unknown-elf/sysroot/lib/m54455\libstdc++.a(class_type_info.o)
 .comment       0x0000001c       0x1d c:/nburn/gcc-m68k/bin/../m68k-unknown-elf/sysroot/lib/m54455\libstdc++.a(tinfo.o)
 .comment       0x0000001c       0x1d c:/nburn/gcc-m68k/bin/../m68k-unknown-elf/sysroot/lib/m54455\libm.a(lib_a-s_cos.o)
 .comment       0x0000001c       0x1d c:/nburn/gcc-m68k/bin/../m68k-unknown-elf/sysroot/lib/m54455\libm.a(lib_a-s_fpclassify.o)
 .comment       0x0000001c       0x1d c:/nburn/gcc-m68k/bin/../m68k-unknown-elf/sysroot/lib/m54455\libm.a(lib_a-s_modf.o)
 .comment       0x0000001c       0x1d c:/nburn/gcc-m68k/bin/../m68k-unknown-elf/sysroot/lib/m54455\libm.a(lib_a-s_round.o)
 .comment       0x0000001c       0x1d c:/nburn/gcc-m68k/bin/../m68k-unknown-elf/sysroot/lib/m54455\libm.a(lib_a-s_sin.o)
 .comment       0x0000001c       0x1d c:/nburn/gcc-m68k/bin/../m68k-unknown-elf/sysroot/lib/m54455\libm.a(lib_a-w_atan2.o)
 .comment       0x0000001c       0x1d c:/nburn/gcc-m68k/bin/../m68k-unknown-elf/sysroot/lib/m54455\libm.a(lib_a-w_pow.o)
 .comment       0x0000001c       0x1d c:/nburn/gcc-m68k/bin/../m68k-unknown-elf/sysroot/lib/m54455\libm.a(lib_a-w_sqrt.o)
 .comment       0x0000001c       0x1d c:/nburn/gcc-m68k/bin/../m68k-unknown-elf/sysroot/lib/m54455\libm.a(lib_a-wf_asin.o)
 .comment       0x0000001c       0x1d c:/nburn/gcc-m68k/bin/../m68k-unknown-elf/sysroot/lib/m54455\libm.a(lib_a-wf_atan2.o)
 .comment       0x0000001c       0x1d c:/nburn/gcc-m68k/bin/../m68k-unknown-elf/sysroot/lib/m54455\libm.a(lib_a-wf_sqrt.o)
 .comment       0x0000001c       0x1d c:/nburn/gcc-m68k/bin/../m68k-unknown-elf/sysroot/lib/m54455\libm.a(lib_a-e_atan2.o)
 .comment       0x0000001c       0x1d c:/nburn/gcc-m68k/bin/../m68k-unknown-elf/sysroot/lib/m54455\libm.a(lib_a-e_pow.o)
 .comment       0x0000001c       0x1d c:/nburn/gcc-m68k/bin/../m68k-unknown-elf/sysroot/lib/m54455\libm.a(lib_a-e_rem_pio2.o)
 .comment       0x0000001c       0x1d c:/nburn/gcc-m68k/bin/../m68k-unknown-elf/sysroot/lib/m54455\libm.a(lib_a-e_sqrt.o)
 .comment       0x0000001c       0x1d c:/nburn/gcc-m68k/bin/../m68k-unknown-elf/sysroot/lib/m54455\libm.a(lib_a-ef_asin.o)
 .comment       0x0000001c       0x1d c:/nburn/gcc-m68k/bin/../m68k-unknown-elf/sysroot/lib/m54455\libm.a(lib_a-ef_atan2.o)
 .comment       0x0000001c       0x1d c:/nburn/gcc-m68k/bin/../m68k-unknown-elf/sysroot/lib/m54455\libm.a(lib_a-ef_sqrt.o)
 .comment       0x0000001c       0x1d c:/nburn/gcc-m68k/bin/../m68k-unknown-elf/sysroot/lib/m54455\libm.a(lib_a-k_cos.o)
 .comment       0x0000001c       0x1d c:/nburn/gcc-m68k/bin/../m68k-unknown-elf/sysroot/lib/m54455\libm.a(lib_a-k_rem_pio2.o)
 .comment       0x0000001c       0x1d c:/nburn/gcc-m68k/bin/../m68k-unknown-elf/sysroot/lib/m54455\libm.a(lib_a-k_sin.o)
 .comment       0x0000001c       0x1d c:/nburn/gcc-m68k/bin/../m68k-unknown-elf/sysroot/lib/m54455\libm.a(lib_a-s_atan.o)
 .comment       0x0000001c       0x1d c:/nburn/gcc-m68k/bin/../m68k-unknown-elf/sysroot/lib/m54455\libm.a(lib_a-s_fabs.o)
 .comment       0x0000001c       0x1d c:/nburn/gcc-m68k/bin/../m68k-unknown-elf/sysroot/lib/m54455\libm.a(lib_a-s_finite.o)
 .comment       0x0000001c       0x1d c:/nburn/gcc-m68k/bin/../m68k-unknown-elf/sysroot/lib/m54455\libm.a(lib_a-s_floor.o)
 .comment       0x0000001c       0x1d c:/nburn/gcc-m68k/bin/../m68k-unknown-elf/sysroot/lib/m54455\libm.a(lib_a-s_lib_ver.o)
 .comment       0x0000001c       0x1d c:/nburn/gcc-m68k/bin/../m68k-unknown-elf/sysroot/lib/m54455\libm.a(lib_a-s_matherr.o)
 .comment       0x0000001c       0x1d c:/nburn/gcc-m68k/bin/../m68k-unknown-elf/sysroot/lib/m54455\libm.a(lib_a-s_nan.o)
 .comment       0x0000001c       0x1d c:/nburn/gcc-m68k/bin/../m68k-unknown-elf/sysroot/lib/m54455\libm.a(lib_a-s_rint.o)
 .comment       0x0000001c       0x1d c:/nburn/gcc-m68k/bin/../m68k-unknown-elf/sysroot/lib/m54455\libm.a(lib_a-s_scalbn.o)
 .comment       0x0000001c       0x1d c:/nburn/gcc-m68k/bin/../m68k-unknown-elf/sysroot/lib/m54455\libm.a(lib_a-sf_atan.o)
 .comment       0x0000001c       0x1d c:/nburn/gcc-m68k/bin/../m68k-unknown-elf/sysroot/lib/m54455\libm.a(lib_a-sf_fabs.o)
 .comment       0x0000001c       0x1d c:/nburn/gcc-m68k/bin/../m68k-unknown-elf/sysroot/lib/m54455\libm.a(lib_a-sf_fpclassify.o)
 .comment       0x0000001c       0x1d c:/nburn/gcc-m68k/bin/../m68k-unknown-elf/sysroot/lib/m54455\libm.a(lib_a-s_copysign.o)
 .comment       0x0000001c       0x1d c:/nburn/gcc-m68k/bin/../lib/gcc/m68k-unknown-elf/5.2.0/m54455\libgcc.a(_muldi3.o)
 .comment       0x0000001c       0x1d c:/nburn/gcc-m68k/bin/../lib/gcc/m68k-unknown-elf/5.2.0/m54455\libgcc.a(_fixunsdfsi.o)
 .comment       0x0000001c       0x1d c:/nburn/gcc-m68k/bin/../lib/gcc/m68k-unknown-elf/5.2.0/m54455\libgcc.a(_fixunsdfdi.o)
 .comment       0x0000001c       0x1d c:/nburn/gcc-m68k/bin/../lib/gcc/m68k-unknown-elf/5.2.0/m54455\libgcc.a(_udivdi3.o)
 .comment       0x0000001c       0x1d c:/nburn/gcc-m68k/bin/../lib/gcc/m68k-unknown-elf/5.2.0/m54455\libgcc.a(_umoddi3.o)
 .comment       0x0000001c       0x1d c:/nburn/gcc-m68k/bin/../lib/gcc/m68k-unknown-elf/5.2.0/m54455\libgcc.a(fpgnulib.o)
 .comment       0x0000001c       0x1d c:/nburn/gcc-m68k/bin/../lib/gcc/m68k-unknown-elf/5.2.0/m54455\libgcc.a(unwind-dw2.o)
 .comment       0x0000001c       0x1d c:/nburn/gcc-m68k/bin/../lib/gcc/m68k-unknown-elf/5.2.0/m54455\libgcc.a(unwind-dw2-fde.o)
 .comment       0x0000001c       0x1d c:/nburn/gcc-m68k/bin/../m68k-unknown-elf/sysroot/lib/m54455\libc.a(lib_a-abort.o)
 .comment       0x0000001c       0x1d c:/nburn/gcc-m68k/bin/../m68k-unknown-elf/sysroot/lib/m54455\libc.a(lib_a-atexit.o)
 .comment       0x0000001c       0x1d c:/nburn/gcc-m68k/bin/../m68k-unknown-elf/sysroot/lib/m54455\libc.a(lib_a-atoi.o)
 .comment       0x0000001c       0x1d c:/nburn/gcc-m68k/bin/../m68k-unknown-elf/sysroot/lib/m54455\libc.a(lib_a-bsearch.o)
 .comment       0x0000001c       0x1d c:/nburn/gcc-m68k/bin/../m68k-unknown-elf/sysroot/lib/m54455\libc.a(lib_a-bzero.o)
 .comment       0x0000001c       0x1d c:/nburn/gcc-m68k/bin/../m68k-unknown-elf/sysroot/lib/m54455\libc.a(lib_a-cxa_atexit.o)
 .comment       0x0000001c       0x1d c:/nburn/gcc-m68k/bin/../m68k-unknown-elf/sysroot/lib/m54455\libc.a(lib_a-errno.o)
 .comment       0x0000001c       0x1d c:/nburn/gcc-m68k/bin/../m68k-unknown-elf/sysroot/lib/m54455\libc.a(lib_a-fputc.o)
 .comment       0x0000001c       0x1d c:/nburn/gcc-m68k/bin/../m68k-unknown-elf/sysroot/lib/m54455\libc.a(lib_a-fputs.o)
 .comment       0x0000001c       0x1d c:/nburn/gcc-m68k/bin/../m68k-unknown-elf/sysroot/lib/m54455\libc.a(lib_a-fvwrite.o)
 .comment       0x0000001c       0x1d c:/nburn/gcc-m68k/bin/../m68k-unknown-elf/sysroot/lib/m54455\libc.a(lib_a-fwrite.o)
 .comment       0x0000001c       0x1d c:/nburn/gcc-m68k/bin/../m68k-unknown-elf/sysroot/lib/m54455\libc.a(lib_a-impure.o)
 .comment       0x0000001c       0x1d c:/nburn/gcc-m68k/bin/../m68k-unknown-elf/sysroot/lib/m54455\libc.a(lib_a-isalnum.o)
 .comment       0x0000001c       0x1d c:/nburn/gcc-m68k/bin/../m68k-unknown-elf/sysroot/lib/m54455\libc.a(lib_a-isspace.o)
 .comment       0x0000001c       0x1d c:/nburn/gcc-m68k/bin/../m68k-unknown-elf/sysroot/lib/m54455\libc.a(lib_a-malloc.o)
 .comment       0x0000001c       0x1d c:/nburn/gcc-m68k/bin/../m68k-unknown-elf/sysroot/lib/m54455\libc.a(lib_a-mallocr.o)
 .comment       0x0000001c       0x1d c:/nburn/gcc-m68k/bin/../m68k-unknown-elf/sysroot/lib/m54455\libc.a(lib_a-memchr.o)
 .comment       0x0000001c       0x1d c:/nburn/gcc-m68k/bin/../m68k-unknown-elf/sysroot/lib/m54455\libc.a(lib_a-memcmp.o)
 .comment       0x0000001c       0x1d c:/nburn/gcc-m68k/bin/../m68k-unknown-elf/sysroot/lib/m54455\libc.a(lib_a-memmove.o)
 .comment       0x0000001c       0x1d c:/nburn/gcc-m68k/bin/../m68k-unknown-elf/sysroot/lib/m54455\libc.a(lib_a-putc.o)
 .comment       0x0000001c       0x1d c:/nburn/gcc-m68k/bin/../m68k-unknown-elf/sysroot/lib/m54455\libc.a(lib_a-puts.o)
 .comment       0x0000001c       0x1d c:/nburn/gcc-m68k/bin/../m68k-unknown-elf/sysroot/lib/m54455\libc.a(lib_a-rand.o)
 .comment       0x0000001c       0x1d c:/nburn/gcc-m68k/bin/../m68k-unknown-elf/sysroot/lib/m54455\libc.a(lib_a-realloc.o)
 .comment       0x0000001c       0x1d c:/nburn/gcc-m68k/bin/../m68k-unknown-elf/sysroot/lib/m54455\libc.a(lib_a-reallocr.o)
 .comment       0x0000001c       0x1d c:/nburn/gcc-m68k/bin/../m68k-unknown-elf/sysroot/lib/m54455\libc.a(lib_a-rget.o)
 .comment       0x0000001c       0x1d c:/nburn/gcc-m68k/bin/../m68k-unknown-elf/sysroot/lib/m54455\libc.a(lib_a-setvbuf.o)
 .comment       0x0000001c       0x1d c:/nburn/gcc-m68k/bin/../m68k-unknown-elf/sysroot/lib/m54455\libc.a(lib_a-signal.o)
 .comment       0x0000001c       0x1d c:/nburn/gcc-m68k/bin/../m68k-unknown-elf/sysroot/lib/m54455\libc.a(lib_a-signalr.o)
 .comment       0x0000001c       0x1d c:/nburn/gcc-m68k/bin/../m68k-unknown-elf/sysroot/lib/m54455\libc.a(lib_a-strcat.o)
 .comment       0x0000001c       0x1d c:/nburn/gcc-m68k/bin/../m68k-unknown-elf/sysroot/lib/m54455\libc.a(lib_a-strcmp.o)
 .comment       0x0000001c       0x1d c:/nburn/gcc-m68k/bin/../m68k-unknown-elf/sysroot/lib/m54455\libc.a(lib_a-strcpy.o)
 .comment       0x0000001c       0x1d c:/nburn/gcc-m68k/bin/../m68k-unknown-elf/sysroot/lib/m54455\libc.a(lib_a-strlen.o)
 .comment       0x0000001c       0x1d c:/nburn/gcc-m68k/bin/../m68k-unknown-elf/sysroot/lib/m54455\libc.a(lib_a-strncmp.o)
 .comment       0x0000001c       0x1d c:/nburn/gcc-m68k/bin/../m68k-unknown-elf/sysroot/lib/m54455\libc.a(lib_a-strncpy.o)
 .comment       0x0000001c       0x1d c:/nburn/gcc-m68k/bin/../m68k-unknown-elf/sysroot/lib/m54455\libc.a(lib_a-strstr.o)
 .comment       0x0000001c       0x1d c:/nburn/gcc-m68k/bin/../m68k-unknown-elf/sysroot/lib/m54455\libc.a(lib_a-strtol.o)
 .comment       0x0000001c       0x1d c:/nburn/gcc-m68k/bin/../m68k-unknown-elf/sysroot/lib/m54455\libc.a(lib_a-tolower.o)
 .comment       0x0000001c       0x1d c:/nburn/gcc-m68k/bin/../m68k-unknown-elf/sysroot/lib/m54455\libc.a(lib_a-toupper.o)
 .comment       0x0000001c       0x1d c:/nburn/gcc-m68k/bin/../m68k-unknown-elf/sysroot/lib/m54455\libc.a(lib_a-wbuf.o)
 .comment       0x0000001c       0x1d c:/nburn/gcc-m68k/bin/../m68k-unknown-elf/sysroot/lib/m54455\libc.a(lib_a-wsetup.o)
 .comment       0x0000001c       0x1d c:/nburn/gcc-m68k/bin/../m68k-unknown-elf/sysroot/lib/m54455\libc.a(lib_a-__atexit.o)
 .comment       0x0000001c       0x1d c:/nburn/gcc-m68k/bin/../m68k-unknown-elf/sysroot/lib/m54455\libc.a(lib_a-ctype_.o)
 .comment       0x0000001c       0x1d c:/nburn/gcc-m68k/bin/../m68k-unknown-elf/sysroot/lib/m54455\libc.a(lib_a-fflush.o)
 .comment       0x0000001c       0x1d c:/nburn/gcc-m68k/bin/../m68k-unknown-elf/sysroot/lib/m54455\libc.a(lib_a-findfp.o)
 .comment       0x0000001c       0x1d c:/nburn/gcc-m68k/bin/../m68k-unknown-elf/sysroot/lib/m54455\libc.a(lib_a-freer.o)
 .comment       0x0000001c       0x1d c:/nburn/gcc-m68k/bin/../m68k-unknown-elf/sysroot/lib/m54455\libc.a(lib_a-fwalk.o)
 .comment       0x0000001c       0x1d c:/nburn/gcc-m68k/bin/../m68k-unknown-elf/sysroot/lib/m54455\libc.a(lib_a-makebuf.o)
 .comment       0x0000001c       0x1d c:/nburn/gcc-m68k/bin/../m68k-unknown-elf/sysroot/lib/m54455\libc.a(lib_a-refill.o)
 .comment       0x0000001c       0x1d c:/nburn/gcc-m68k/bin/../m68k-unknown-elf/sysroot/lib/m54455\libc.a(lib_a-stdio.o)
 .comment       0x0000001c       0x1d c:/nburn/gcc-m68k/bin/../m68k-unknown-elf/sysroot/lib/m54455\libc.a(lib_a-writer.o)
 .comment       0x0000001c       0x1d c:/nburn/gcc-m68k/bin/../m68k-unknown-elf/sysroot/lib/m54455\libc.a(lib_a-closer.o)
 .comment       0x0000001c       0x1d c:/nburn/gcc-m68k/bin/../m68k-unknown-elf/sysroot/lib/m54455\libc.a(lib_a-fclose.o)
 .comment       0x0000001c       0x1d c:/nburn/gcc-m68k/bin/../m68k-unknown-elf/sysroot/lib/m54455\libc.a(lib_a-fstatr.o)
 .comment       0x0000001c       0x1d c:/nburn/gcc-m68k/bin/../m68k-unknown-elf/sysroot/lib/m54455\libc.a(lib_a-isattyr.o)
 .comment       0x0000001c       0x1d c:/nburn/gcc-m68k/bin/../m68k-unknown-elf/sysroot/lib/m54455\libc.a(lib_a-lseekr.o)
 .comment       0x0000001c       0x1d c:/nburn/gcc-m68k/bin/../m68k-unknown-elf/sysroot/lib/m54455\libc.a(lib_a-readr.o)
 .comment       0x0000001c       0x1d c:/nburn/gcc-m68k/bin/../lib/gcc/m68k-unknown-elf/5.2.0/m54455/crtend.o

.debug_macinfo
 *(.debug_macinfo)

.debug_weaknames
 *(.debug_weaknames)

.debug_funcnames
 *(.debug_funcnames)

.debug_typenames
 *(.debug_typenames)

.debug_varnames
 *(.debug_varnames)
OUTPUT(AutoVeh18.elf elf32-m68k)

.debug_ranges   0x00000000     0x3828
 .debug_ranges  0x00000000       0x88 main.od
 .debug_ranges  0x00000088       0x60 Utility.od
 .debug_ranges  0x000000e8       0x60 Nav.od
 .debug_ranges  0x00000148       0x88 Logger.od
 .debug_ranges  0x000001d0       0x70 Drivers\servodrive.od
 .debug_ranges  0x00000240       0x50 Drivers\pwm.od
 .debug_ranges  0x00000290      0x168 Drivers\introspec.od
 .debug_ranges  0x000003f8       0x18 Drivers\dsm2.od
 .debug_ranges  0x00000410       0x38 Drivers\SpinningLidar.od
 .debug_ranges  0x00000448       0x58 Drivers\Odometer.od
 .debug_ranges  0x000004a0       0x10 Drivers\MadgwickFilter.od
 .debug_ranges  0x000004b0      0x108 Drivers\MPU9250.od
 .debug_ranges  0x000005b8       0x38 Drivers\LidarPWM.od
 .debug_ranges  0x000005f0       0x48 Drivers\LCD.od
 .debug_ranges  0x00000638       0x98 Drivers\IMUSetupAndSample.od
 .debug_ranges  0x000006d0       0x18 htmldata.od
 .debug_ranges  0x000006e8       0x28 C:\Nburn/lib/DBNANO54415.a(serial.od)
 .debug_ranges  0x00000710       0x30 C:\Nburn/lib/DBNANO54415.a(FlashOps.od)
 .debug_ranges  0x00000740       0x70 C:\Nburn/lib/DBNANO54415.a(HiResTimer.od)
 .debug_ranges  0x000007b0       0x20 C:\Nburn/lib/DBNANO54415.a(pin_irq.od)
 .debug_ranges  0x000007d0       0xa0 C:\Nburn/lib/DBNANO54415.a(dbethernet.od)
 .debug_ranges  0x00000870       0x50 C:\Nburn/lib/DBNANO54415.a(multichanneli2c.od)
 .debug_ranges  0x000008c0       0x20 C:\Nburn/lib/DBNANO54415.a(defpins.od)
 .debug_ranges  0x000008e0       0x78 C:\Nburn/lib/DBNANO54415.a(ethernet.od)
 .debug_ranges  0x00000958       0x90 C:\Nburn/lib/DBNANO54415.a(emulticast.od)
 .debug_ranges  0x000009e8       0x30 C:\Nburn/lib/DBNANO54415.a(ether2nd.od)
 .debug_ranges  0x00000a18       0x18 C:\Nburn/lib/DBNANO54415.a(etherswitch.od)
 .debug_ranges  0x00000a30       0xf8 C:\Nburn/lib/DBNANO54415.a(i2c_class.od)
 .debug_ranges  0x00000b28       0x30 C:\Nburn/lib/DBNetBurner.a(ucos.od)
 .debug_ranges  0x00000b58       0x30 C:\Nburn/lib/DBNetBurner.a(ucosmain.od)
 .debug_ranges  0x00000b88       0x38 C:\Nburn/lib/DBNetBurner.a(system.od)
 .debug_ranges  0x00000bc0       0x30 C:\Nburn/lib/DBNetBurner.a(utils.od)
 .debug_ranges  0x00000bf0       0xe0 C:\Nburn/lib/DBNetBurner.a(ip.od)
 .debug_ranges  0x00000cd0       0x90 C:\Nburn/lib/DBNetBurner.a(buffers.od)
 .debug_ranges  0x00000d60      0x118 C:\Nburn/lib/DBNetBurner.a(arp.od)
 .debug_ranges  0x00000e78       0xc0 C:\Nburn/lib/DBNetBurner.a(udp.od)
 .debug_ranges  0x00000f38       0x58 C:\Nburn/lib/DBNetBurner.a(ftpd.od)
 .debug_ranges  0x00000f90      0x268 C:\Nburn/lib/DBNetBurner.a(tcp.od)
 .debug_ranges  0x000011f8       0x68 C:\Nburn/lib/DBNetBurner.a(http.od)
 .debug_ranges  0x00001260       0x20 C:\Nburn/lib/DBNetBurner.a(httpinternal.od)
 .debug_ranges  0x00001280       0x28 C:\Nburn/lib/DBNetBurner.a(htmldecomp.od)
 .debug_ranges  0x000012a8       0x48 C:\Nburn/lib/DBNetBurner.a(iosys.od)
 .debug_ranges  0x000012f0       0x38 C:\Nburn/lib/DBNetBurner.a(autoip.od)
 .debug_ranges  0x00001328      0x110 C:\Nburn/lib/DBNetBurner.a(dhcpc.od)
 .debug_ranges  0x00001438       0x28 C:\Nburn/lib/DBNetBurner.a(netinterface.od)
 .debug_ranges  0x00001460       0x30 C:\Nburn/lib/DBNetBurner.a(multiconfig.od)
 .debug_ranges  0x00001490       0x18 C:\Nburn/lib/DBNetBurner.a(smarttrap.od)
 .debug_ranges  0x000014a8       0x28 C:\Nburn/lib/DBNetBurner.a(autoupdate.od)
 .debug_ranges  0x000014d0       0x20 C:\Nburn/lib/DBNetBurner.a(device.od)
 .debug_ranges  0x000014f0       0x38 C:\Nburn/lib/DBNetBurner.a(nbiprintf.od)
 .debug_ranges  0x00001528       0x58 C:\Nburn/lib/DBNetBurner.a(ipv6_addr.od)
 .debug_ranges  0x00001580       0x90 C:\Nburn/lib/DBNetBurner.a(ipv6_tcp.od)
 .debug_ranges  0x00001610      0x2e0 C:\Nburn/lib/DBNetBurner.a(ipv6_ip.od)
 .debug_ranges  0x000018f0       0x98 C:\Nburn/lib/DBNetBurner.a(ipv6_udp.od)
 .debug_ranges  0x00001988       0x48 C:\Nburn/lib/DBNetBurner.a(ipv6_extensions.od)
 .debug_ranges  0x000019d0       0x88 C:\Nburn/lib/DBNetBurner.a(ipv6_multicast.od)
 .debug_ranges  0x00001a58       0x48 C:\Nburn/lib/DBNetBurner.a(ipv6_show.od)
 .debug_ranges  0x00001aa0       0xd8 C:\Nburn/lib/DBNetBurner.a(ipv6_dhcp.od)
 .debug_ranges  0x00001b78       0xf0 C:\Nburn/lib/DBNetBurner.a(multicast.od)
 .debug_ranges  0x00001c68       0x38 C:\Nburn/lib/DBNetBurner.a(random.od)
 .debug_ranges  0x00001ca0       0x20 C:\Nburn/lib/DBNetBurner.a(md5c.od)
 .debug_ranges  0x00001cc0       0x18 c:/nburn/gcc-m68k/bin/../m68k-unknown-elf/sysroot/lib/m54455\libstdc++.a(pure.o)
 .debug_ranges  0x00001cd8       0x48 c:/nburn/gcc-m68k/bin/../m68k-unknown-elf/sysroot/lib/m54455\libstdc++.a(eh_terminate.o)
 .debug_ranges  0x00001d20       0x10 c:/nburn/gcc-m68k/bin/../m68k-unknown-elf/sysroot/lib/m54455\libstdc++.a(del_op.o)
 .debug_ranges  0x00001d30       0x10 c:/nburn/gcc-m68k/bin/../m68k-unknown-elf/sysroot/lib/m54455\libstdc++.a(del_ops.o)
 .debug_ranges  0x00001d40       0x40 c:/nburn/gcc-m68k/bin/../m68k-unknown-elf/sysroot/lib/m54455\libstdc++.a(eh_catch.o)
 .debug_ranges  0x00001d80      0x110 c:/nburn/gcc-m68k/bin/../m68k-unknown-elf/sysroot/lib/m54455\libstdc++.a(eh_personality.o)
 .debug_ranges  0x00001e90       0x58 c:/nburn/gcc-m68k/bin/../m68k-unknown-elf/sysroot/lib/m54455\libstdc++.a(eh_exception.o)
 .debug_ranges  0x00001ee8       0x10 c:/nburn/gcc-m68k/bin/../m68k-unknown-elf/sysroot/lib/m54455\libstdc++.a(eh_globals.o)
 .debug_ranges  0x00001ef8       0x40 c:/nburn/gcc-m68k/bin/../m68k-unknown-elf/sysroot/lib/m54455\libstdc++.a(vterminate.o)
 .debug_ranges  0x00001f38       0x58 c:/nburn/gcc-m68k/bin/../m68k-unknown-elf/sysroot/lib/m54455\libstdc++.a(eh_alloc.o)
 .debug_ranges  0x00001f90      0x4f8 c:/nburn/gcc-m68k/bin/../m68k-unknown-elf/sysroot/lib/m54455\libstdc++.a(cp-demangle.o)
 .debug_ranges  0x00002488       0x20 c:/nburn/gcc-m68k/bin/../m68k-unknown-elf/sysroot/lib/m54455\libstdc++.a(eh_throw.o)
 .debug_ranges  0x000024a8       0x10 c:/nburn/gcc-m68k/bin/../m68k-unknown-elf/sysroot/lib/m54455\libstdc++.a(eh_type.o)
 .debug_ranges  0x000024b8       0x78 c:/nburn/gcc-m68k/bin/../m68k-unknown-elf/sysroot/lib/m54455\libstdc++.a(si_class_type_info.o)
 .debug_ranges  0x00002530       0x10 c:/nburn/gcc-m68k/bin/../m68k-unknown-elf/sysroot/lib/m54455\libstdc++.a(eh_call.o)
 .debug_ranges  0x00002540       0x90 c:/nburn/gcc-m68k/bin/../m68k-unknown-elf/sysroot/lib/m54455\libstdc++.a(class_type_info.o)
 .debug_ranges  0x000025d0       0x30 c:/nburn/gcc-m68k/bin/../m68k-unknown-elf/sysroot/lib/m54455\libstdc++.a(tinfo.o)
 .debug_ranges  0x00002600       0x48 c:/nburn/gcc-m68k/bin/../m68k-unknown-elf/sysroot/lib/m54455\libm.a(lib_a-s_modf.o)
 .debug_ranges  0x00002648       0x18 c:/nburn/gcc-m68k/bin/../m68k-unknown-elf/sysroot/lib/m54455\libm.a(lib_a-s_round.o)
 .debug_ranges  0x00002660      0x1a0 c:/nburn/gcc-m68k/bin/../m68k-unknown-elf/sysroot/lib/m54455\libm.a(lib_a-e_pow.o)
 .debug_ranges  0x00002800       0x20 c:/nburn/gcc-m68k/bin/../m68k-unknown-elf/sysroot/lib/m54455\libm.a(lib_a-e_rem_pio2.o)
 .debug_ranges  0x00002820       0x18 c:/nburn/gcc-m68k/bin/../m68k-unknown-elf/sysroot/lib/m54455\libm.a(lib_a-e_sqrt.o)
 .debug_ranges  0x00002838       0x18 c:/nburn/gcc-m68k/bin/../m68k-unknown-elf/sysroot/lib/m54455\libm.a(lib_a-ef_asin.o)
 .debug_ranges  0x00002850       0x20 c:/nburn/gcc-m68k/bin/../m68k-unknown-elf/sysroot/lib/m54455\libm.a(lib_a-ef_sqrt.o)
 .debug_ranges  0x00002870       0x18 c:/nburn/gcc-m68k/bin/../m68k-unknown-elf/sysroot/lib/m54455\libm.a(lib_a-s_atan.o)
 .debug_ranges  0x00002888       0x18 c:/nburn/gcc-m68k/bin/../m68k-unknown-elf/sysroot/lib/m54455\libm.a(lib_a-s_fabs.o)
 .debug_ranges  0x000028a0       0x38 c:/nburn/gcc-m68k/bin/../m68k-unknown-elf/sysroot/lib/m54455\libm.a(lib_a-s_rint.o)
 .debug_ranges  0x000028d8       0x18 c:/nburn/gcc-m68k/bin/../m68k-unknown-elf/sysroot/lib/m54455\libm.a(lib_a-s_scalbn.o)
 .debug_ranges  0x000028f0       0x18 c:/nburn/gcc-m68k/bin/../m68k-unknown-elf/sysroot/lib/m54455\libm.a(lib_a-sf_fabs.o)
 .debug_ranges  0x00002908       0x20 c:/nburn/gcc-m68k/bin/../m68k-unknown-elf/sysroot/lib/m54455\libm.a(lib_a-s_copysign.o)
 .debug_ranges  0x00002928       0xf8 c:/nburn/gcc-m68k/bin/../lib/gcc/m68k-unknown-elf/5.2.0/m54455\libgcc.a(_udivdi3.o)
 .debug_ranges  0x00002a20       0xb0 c:/nburn/gcc-m68k/bin/../lib/gcc/m68k-unknown-elf/5.2.0/m54455\libgcc.a(_umoddi3.o)
 .debug_ranges  0x00002ad0       0x30 c:/nburn/gcc-m68k/bin/../lib/gcc/m68k-unknown-elf/5.2.0/m54455\libgcc.a(fpgnulib.o)
 .debug_ranges  0x00002b00      0x898 c:/nburn/gcc-m68k/bin/../lib/gcc/m68k-unknown-elf/5.2.0/m54455\libgcc.a(unwind-dw2.o)
 .debug_ranges  0x00003398      0x3d0 c:/nburn/gcc-m68k/bin/../lib/gcc/m68k-unknown-elf/5.2.0/m54455\libgcc.a(unwind-dw2-fde.o)
 .debug_ranges  0x00003768       0x18 c:/nburn/gcc-m68k/bin/../m68k-unknown-elf/sysroot/lib/m54455\libc.a(lib_a-fputs.o)
 .debug_ranges  0x00003780       0x60 c:/nburn/gcc-m68k/bin/../m68k-unknown-elf/sysroot/lib/m54455\libc.a(lib_a-reallocr.o)
 .debug_ranges  0x000037e0       0x18 c:/nburn/gcc-m68k/bin/../m68k-unknown-elf/sysroot/lib/m54455\libc.a(lib_a-signalr.o)
 .debug_ranges  0x000037f8       0x18 c:/nburn/gcc-m68k/bin/../m68k-unknown-elf/sysroot/lib/m54455\libc.a(lib_a-wsetup.o)
 .debug_ranges  0x00003810       0x18 c:/nburn/gcc-m68k/bin/../m68k-unknown-elf/sysroot/lib/m54455\libc.a(lib_a-fflush.o)
