Archive member included to satisfy reference by file (symbol)

C:\Nburn/lib/NANO54415.a(hardware_init.o)
                              c:/nburn/gcc-m68k/bin/../lib/gcc/m68k-unknown-elf/5.2.0/m54455\nb-crt0.o (hardware_init_hook)
C:\Nburn/lib/NANO54415.a(serial.o)
                              Drivers\dsm2.o (UartData)
C:\Nburn/lib/NANO54415.a(pins.o)
                              Drivers\IMUSetupAndSample.o (_ZN5PinIO3setEh)
C:\Nburn/lib/NANO54415.a(FlashOps.o)
                              C:\Nburn/lib/NANO54415.a(hardware_init.o) (CopySPIFlashImageOnBoot)
C:\Nburn/lib/NANO54415.a(HiResTimer.o)
                              Drivers\MPU9250.o (_ZN10HiResTimer4initEd)
C:\Nburn/lib/NANO54415.a(pin_irq.o)
                              Drivers\Odometer.o (_Z9SetPinIrqiiPFvvE)
C:\Nburn/lib/NANO54415.a(bsp.o)
                              Drivers\servodrive.o (_Z7SetIntcilii)
C:\Nburn/lib/NANO54415.a(localio.o)
                              C:\Nburn/lib/NANO54415.a(serial.o) (_Z13GetUartRecordi)
C:\Nburn/lib/NANO54415.a(multichanneli2c.o)
                              main.o (MultiChannel_I2CInit)
C:\Nburn/lib/NANO54415.a(bspa.o)
                              C:\Nburn/lib/NANO54415.a(bsp.o) (CatchNullWrites)
C:\Nburn/lib/NANO54415.a(defpins.o)
                              C:\Nburn/lib/NANO54415.a(bsp.o) (_Z14SetDefPinUsagev)
C:\Nburn/lib/NANO54415.a(SPIFlash.o)
                              C:\Nburn/lib/NANO54415.a(FlashOps.o) (_ZN8SPIFlashC1Ei)
C:\Nburn/lib/NANO54415.a(i2c_class.o)
                              C:\Nburn/lib/NANO54415.a(multichanneli2c.o) (_ZN10i2c_master4initEhh)
C:\Nburn/lib/NetBurner.a(ucosmcfa.o)
                              C:\Nburn/lib/NANO54415.a(bsp.o) (OSCtxSw)
C:\Nburn/lib/NetBurner.a(software_init.o)
                              c:/nburn/gcc-m68k/bin/../lib/gcc/m68k-unknown-elf/5.2.0/m54455\nb-crt0.o (software_init_hook)
C:\Nburn/lib/NetBurner.a(main.o)
                              c:/nburn/gcc-m68k/bin/../lib/gcc/m68k-unknown-elf/5.2.0/m54455\nb-crt0.o (main)
C:\Nburn/lib/NetBurner.a(ucosmcfc.o)
                              main.o (_Z17OSTaskCreatewNamePFvPvES_S_S_hPKc)
C:\Nburn/lib/NetBurner.a(ucos.o)
                              C:\Nburn/lib/NetBurner.a(ucosmcfc.o) (OSRdyTbl)
C:\Nburn/lib/NetBurner.a(cppmain.o)
                              C:\Nburn/lib/NetBurner.a(main.o) (cppmain)
C:\Nburn/lib/NetBurner.a(debugtrap.o)
                              C:\Nburn/lib/NANO54415.a(bsp.o) (_Z23SetAddressReadRangeTrapmm)
C:\Nburn/lib/NetBurner.a(ucosmain.o)
                              C:\Nburn/lib/NetBurner.a(software_init.o) (UCosSetup)
C:\Nburn/lib/NetBurner.a(fileio.o)
                              C:\Nburn/lib/NetBurner.a(ucosmain.o) (ioctl)
C:\Nburn/lib/NetBurner.a(system.o)
                              C:\Nburn/lib/NANO54415.a(serial.o) (rnd_collect)
C:\Nburn/lib/NetBurner.a(utils.o)
                              C:\Nburn/lib/NetBurner.a(system.o) (_Z7ShowIP47IPADDR4)
C:\Nburn/lib/NetBurner.a(ip.o)
                              main.o (_Z15InitializeStack7IPADDR4S_S_S_)
C:\Nburn/lib/NetBurner.a(buffers.o)
                              C:\Nburn/lib/NetBurner.a(utils.o) (_Z12GetFreeCountv)
C:\Nburn/lib/NetBurner.a(arp.o)
                              C:\Nburn/lib/NetBurner.a(ip.o) (_Z25GetInterfaceForMyAddress47IPADDR4)
C:\Nburn/lib/NetBurner.a(udp.o)
                              C:\Nburn/lib/NetBurner.a(ip.o) (_Z12process_udp4P11pool_bufferP5IPPKTt)
C:\Nburn/lib/NetBurner.a(ftpd.o)
                              Drivers\introspec.o (_Z9FTPDStartth)
C:\Nburn/lib/NetBurner.a(tcp.o)
                              C:\Nburn/lib/NetBurner.a(ip.o) (_Z7InitTCPv)
C:\Nburn/lib/NetBurner.a(extraio.o)
                              Drivers\introspec.o (_Z10GetExtraFDPvP14IoExpandStruct)
C:\Nburn/lib/NetBurner.a(http.o)
                              main.o (_Z9StartHTTPt)
C:\Nburn/lib/NetBurner.a(httpinternal.o)
                              C:\Nburn/lib/NetBurner.a(http.o) (_ZN12HTTP_Request11ProcessLineEPc)
C:\Nburn/lib/NetBurner.a(httpstricmp.o)
                              C:\Nburn/lib/NetBurner.a(httpinternal.o) (_Z11httpstricmpPKcS0_)
C:\Nburn/lib/NetBurner.a(htmldecomp.o)
                              C:\Nburn/lib/NetBurner.a(httpinternal.o) (_Z16SendFullResponsePKci)
C:\Nburn/lib/NetBurner.a(iosys.o)
                              C:\Nburn/lib/NANO54415.a(serial.o) (_Z12SetDataAvaili)
C:\Nburn/lib/NetBurner.a(new_ops.o)
                              Drivers\introspec.o (_Znwm)
C:\Nburn/lib/NetBurner.a(autoip.o)
                              C:\Nburn/lib/NetBurner.a(arp.o) (_ZN12AutoIPClient16addressCollisionEv)
C:\Nburn/lib/NetBurner.a(dhcpc.o)
                              main.o (_Z25GetDHCPAddressIfNecessaryib)
C:\Nburn/lib/NetBurner.a(netinterface.o)
                              C:\Nburn/lib/NetBurner.a(arp.o) (_Z14TransmitBufferP11pool_bufferi)
C:\Nburn/lib/NetBurner.a(taskmon.o)
                              main.o (_Z17EnableTaskMonitorv)
C:\Nburn/lib/NetBurner.a(smarttrap.o)
                              C:\Nburn/lib/NANO54415.a(bsp.o) (smart_trap_asm)
C:\Nburn/lib/NetBurner.a(autoupdate.o)
                              main.o (_Z16EnableAutoUpdatev)
C:\Nburn/lib/NetBurner.a(device.o)
                              C:\Nburn/lib/NetBurner.a(cppmain.o) (_Z19DeviceInitializeSemv)
C:\Nburn/lib/NetBurner.a(base64.o)
                              C:\Nburn/lib/NetBurner.a(htmldecomp.o) (_ZN6b64ctxC1EPci)
C:\Nburn/lib/NetBurner.a(nbiprintf.o)
                              main.o (iprintf)
C:\Nburn/lib/NetBurner.a(nbprintf.o)
                              main.o (printf)
C:\Nburn/lib/NetBurner.a(nbsiprintf.o)
                              C:\Nburn/lib/NetBurner.a(utils.o) (siprintf)
C:\Nburn/lib/NetBurner.a(nbsprintf.o)
                              tests.o (sprintf)
C:\Nburn/lib/NetBurner.a(weakumain.o)
                              C:\Nburn/lib/NetBurner.a(cppmain.o) (_Z8UserMainPv)
C:\Nburn/lib/NetBurner.a(cusermain.o)
                              C:\Nburn/lib/NetBurner.a(weakumain.o) (callcusermain)
C:\Nburn/lib/NetBurner.a(fdprintf.o)
                              C:\Nburn/lib/NetBurner.a(ftpd.o) (_Z8fdprintfiPKcz)
C:\Nburn/lib/NetBurner.a(websocket_handler.o)
                              C:\Nburn/lib/NetBurner.a(httpinternal.o) (TheWSHandler)
C:\Nburn/lib/NetBurner.a(ipv6_addr.o)
                              C:\Nburn/lib/NetBurner.a(tcp.o) (_ZNK7IPADDR65printEbb)
C:\Nburn/lib/NetBurner.a(ipv6_tcp.o)
                              C:\Nburn/lib/NetBurner.a(tcp.o) (_Z7IsMyIp6RK7IPADDR6)
C:\Nburn/lib/NetBurner.a(ipv6_ip.o)
                              C:\Nburn/lib/NetBurner.a(tcp.o) (_ZN25IPv6FrameProcessingStruct7releaseEv)
C:\Nburn/lib/NetBurner.a(ipv6_udp.o)
                              C:\Nburn/lib/NetBurner.a(udp.o) (_ZN9UDPPacket11SetUpUdpPktEP11pool_buffer)
C:\Nburn/lib/NetBurner.a(ipv6_printhelp.o)
                              C:\Nburn/lib/NetBurner.a(nbiprintf.o) (_ZN7IPADDR611GetPrintLenEb)
C:\Nburn/lib/NetBurner.a(ipv6_extensions.o)
                              C:\Nburn/lib/NetBurner.a(ipv6_ip.o) (_ZN13IPv6Interface19SendMLDRegistrationERK7IPADDR6b)
C:\Nburn/lib/NetBurner.a(ipv6_multicast.o)
                              C:\Nburn/lib/NetBurner.a(ipv6_ip.o) (_Z17ListeningForGroupRK7IPADDR6)
C:\Nburn/lib/NetBurner.a(ipv6_show.o)
                              C:\Nburn/lib/NetBurner.a(ipv6_ip.o) (_ZN11IPV6_PREFIX8ShowItemEv)
C:\Nburn/lib/NetBurner.a(ipv6_dhcp.o)
                              C:\Nburn/lib/NetBurner.a(ipv6_ip.o) (_ZN2NB2V66DHCPv610DHCPClient16ProcessDHCPAvailEP13IPv6Interfaceh)
C:\Nburn/lib/NetBurner.a(multicast.o)
                              C:\Nburn/lib/NetBurner.a(ipv6_multicast.o) (nPendingResponse)
C:\Nburn/lib/NetBurner.a(random.o)
                              C:\Nburn/lib/NetBurner.a(ipv6_dhcp.o) (_Z14GetRandomDwordv)
C:\Nburn/lib/NetBurner.a(netrx.o)
                              C:\Nburn/lib/NetBurner.a(ipv6_ip.o) (pIp6Func)
C:\Nburn/lib/NetBurner.a(nbfloatprint.o)
                              C:\Nburn/lib/NetBurner.a(nbprintf.o) (_Z14TheFloatPrintfcPFiPvPKciES_dR7pfstate)
C:\Nburn/lib/NetBurner.a(fdiprintf.o)
                              C:\Nburn/lib/NetBurner.a(fdprintf.o) (_Z11putafdcharsPvPKci)
C:\Nburn/lib/NetBurner.a(md5c.o)
                              C:\Nburn/lib/NetBurner.a(random.o) (_ZN7MD5_CTX8__UpdateEPKhj)
c:/nburn/gcc-m68k/bin/../m68k-unknown-elf/sysroot/lib/m54455\libstdc++.a(pure.o)
                              Drivers\introspec.o (__cxa_pure_virtual)
c:/nburn/gcc-m68k/bin/../m68k-unknown-elf/sysroot/lib/m54455\libstdc++.a(eh_terminate.o)
                              c:/nburn/gcc-m68k/bin/../m68k-unknown-elf/sysroot/lib/m54455\libstdc++.a(pure.o) (_ZSt9terminatev)
c:/nburn/gcc-m68k/bin/../m68k-unknown-elf/sysroot/lib/m54455\libstdc++.a(del_op.o)
                              Map.o (_ZdlPv)
c:/nburn/gcc-m68k/bin/../m68k-unknown-elf/sysroot/lib/m54455\libstdc++.a(del_ops.o)
                              Nav.o (_ZdlPvm)
c:/nburn/gcc-m68k/bin/../m68k-unknown-elf/sysroot/lib/m54455\libstdc++.a(eh_unex_handler.o)
                              c:/nburn/gcc-m68k/bin/../m68k-unknown-elf/sysroot/lib/m54455\libstdc++.a(eh_terminate.o) (_ZN10__cxxabiv120__unexpected_handlerE)
c:/nburn/gcc-m68k/bin/../m68k-unknown-elf/sysroot/lib/m54455\libstdc++.a(eh_term_handler.o)
                              c:/nburn/gcc-m68k/bin/../m68k-unknown-elf/sysroot/lib/m54455\libstdc++.a(eh_terminate.o) (_ZN10__cxxabiv119__terminate_handlerE)
c:/nburn/gcc-m68k/bin/../m68k-unknown-elf/sysroot/lib/m54455\libstdc++.a(eh_catch.o)
                              c:/nburn/gcc-m68k/bin/../m68k-unknown-elf/sysroot/lib/m54455\libstdc++.a(eh_terminate.o) (__cxa_begin_catch)
c:/nburn/gcc-m68k/bin/../m68k-unknown-elf/sysroot/lib/m54455\libstdc++.a(eh_personality.o)
                              c:/nburn/gcc-m68k/bin/../m68k-unknown-elf/sysroot/lib/m54455\libstdc++.a(eh_terminate.o) (__gxx_personality_v0)
c:/nburn/gcc-m68k/bin/../m68k-unknown-elf/sysroot/lib/m54455\libstdc++.a(eh_exception.o)
                              c:/nburn/gcc-m68k/bin/../m68k-unknown-elf/sysroot/lib/m54455\libstdc++.a(eh_personality.o) (_ZNSt13bad_exceptionD1Ev)
c:/nburn/gcc-m68k/bin/../m68k-unknown-elf/sysroot/lib/m54455\libstdc++.a(eh_globals.o)
                              c:/nburn/gcc-m68k/bin/../m68k-unknown-elf/sysroot/lib/m54455\libstdc++.a(eh_catch.o) (__cxa_get_globals_fast)
c:/nburn/gcc-m68k/bin/../m68k-unknown-elf/sysroot/lib/m54455\libstdc++.a(vterminate.o)
                              c:/nburn/gcc-m68k/bin/../m68k-unknown-elf/sysroot/lib/m54455\libstdc++.a(eh_term_handler.o) (_ZN9__gnu_cxx27__verbose_terminate_handlerEv)
c:/nburn/gcc-m68k/bin/../m68k-unknown-elf/sysroot/lib/m54455\libstdc++.a(eh_alloc.o)
                              c:/nburn/gcc-m68k/bin/../m68k-unknown-elf/sysroot/lib/m54455\libstdc++.a(eh_personality.o) (__cxa_allocate_exception)
c:/nburn/gcc-m68k/bin/../m68k-unknown-elf/sysroot/lib/m54455\libstdc++.a(cp-demangle.o)
                              c:/nburn/gcc-m68k/bin/../m68k-unknown-elf/sysroot/lib/m54455\libstdc++.a(vterminate.o) (__cxa_demangle)
c:/nburn/gcc-m68k/bin/../m68k-unknown-elf/sysroot/lib/m54455\libstdc++.a(eh_throw.o)
                              c:/nburn/gcc-m68k/bin/../m68k-unknown-elf/sysroot/lib/m54455\libstdc++.a(eh_personality.o) (__cxa_throw)
c:/nburn/gcc-m68k/bin/../m68k-unknown-elf/sysroot/lib/m54455\libstdc++.a(eh_type.o)
                              c:/nburn/gcc-m68k/bin/../m68k-unknown-elf/sysroot/lib/m54455\libstdc++.a(vterminate.o) (__cxa_current_exception_type)
c:/nburn/gcc-m68k/bin/../m68k-unknown-elf/sysroot/lib/m54455\libstdc++.a(si_class_type_info.o)
                              c:/nburn/gcc-m68k/bin/../m68k-unknown-elf/sysroot/lib/m54455\libstdc++.a(eh_exception.o) (_ZTVN10__cxxabiv120__si_class_type_infoE)
c:/nburn/gcc-m68k/bin/../m68k-unknown-elf/sysroot/lib/m54455\libstdc++.a(eh_call.o)
                              c:/nburn/gcc-m68k/bin/../m68k-unknown-elf/sysroot/lib/m54455\libstdc++.a(eh_personality.o) (__cxa_call_terminate)
c:/nburn/gcc-m68k/bin/../m68k-unknown-elf/sysroot/lib/m54455\libstdc++.a(class_type_info.o)
                              c:/nburn/gcc-m68k/bin/../m68k-unknown-elf/sysroot/lib/m54455\libstdc++.a(si_class_type_info.o) (_ZNK10__cxxabiv117__class_type_info11__do_upcastEPKS0_PPv)
c:/nburn/gcc-m68k/bin/../m68k-unknown-elf/sysroot/lib/m54455\libstdc++.a(tinfo.o)
                              c:/nburn/gcc-m68k/bin/../m68k-unknown-elf/sysroot/lib/m54455\libstdc++.a(class_type_info.o) (_ZNSt9type_infoD2Ev)
C:\Nburn/lib/NANO54415.a(ethernet.o)
                              C:\Nburn/lib/NetBurner.a(netinterface.o) (_Z20AddEthernetInterfacev)
C:\Nburn/lib/NANO54415.a(etherprint.o)
                              C:\Nburn/lib/NANO54415.a(ethernet.o) (_ZN12EthernetVars9EtherLinkEv)
C:\Nburn/lib/NANO54415.a(emulticast.o)
                              C:\Nburn/lib/NANO54415.a(ethernet.o) (_ZN12EthernetVars18EthEnableMulticastE6MACADR)
C:\Nburn/lib/NANO54415.a(ether2nd.o)
                              C:\Nburn/lib/NANO54415.a(ethernet.o) (_Z14Add2ndEthernetv)
C:\Nburn/lib/NANO54415.a(etherswitch.o)
                              C:\Nburn/lib/NANO54415.a(emulticast.o) (_Z14UpdateMacTableblPhjj)
C:\Nburn/lib/NANO54415.a(weak_autoenet_var.o)
                              C:\Nburn/lib/NANO54415.a(ethernet.o) (bAutomatic2ndEther)
C:\Nburn/lib/NetBurner.a(multiconfig.o)
                              C:\Nburn/lib/NANO54415.a(ether2nd.o) (_Z16SetupIFConfigRecR15_InterfaceBlock)
c:/nburn/gcc-m68k/bin/../m68k-unknown-elf/sysroot/lib/m54455\libm.a(lib_a-s_cos.o)
                              Nav.o (cos)
c:/nburn/gcc-m68k/bin/../m68k-unknown-elf/sysroot/lib/m54455\libm.a(lib_a-s_fpclassify.o)
                              C:\Nburn/lib/NetBurner.a(nbfloatprint.o) (__fpclassifyd)
c:/nburn/gcc-m68k/bin/../m68k-unknown-elf/sysroot/lib/m54455\libm.a(lib_a-s_modf.o)
                              C:\Nburn/lib/NetBurner.a(nbfloatprint.o) (modf)
c:/nburn/gcc-m68k/bin/../m68k-unknown-elf/sysroot/lib/m54455\libm.a(lib_a-s_round.o)
                              Drivers\SpinningLidar.o (round)
c:/nburn/gcc-m68k/bin/../m68k-unknown-elf/sysroot/lib/m54455\libm.a(lib_a-s_sin.o)
                              Nav.o (sin)
c:/nburn/gcc-m68k/bin/../m68k-unknown-elf/sysroot/lib/m54455\libm.a(lib_a-w_pow.o)
                              Drivers\MPU9250.o (pow)
c:/nburn/gcc-m68k/bin/../m68k-unknown-elf/sysroot/lib/m54455\libm.a(lib_a-wf_asin.o)
                              Drivers\IMUSetupAndSample.o (asinf)
c:/nburn/gcc-m68k/bin/../m68k-unknown-elf/sysroot/lib/m54455\libm.a(lib_a-wf_atan2.o)
                              Drivers\IMUSetupAndSample.o (atan2f)
c:/nburn/gcc-m68k/bin/../m68k-unknown-elf/sysroot/lib/m54455\libm.a(lib_a-wf_sqrt.o)
                              Drivers\MadgwickFilter.o (sqrtf)
c:/nburn/gcc-m68k/bin/../m68k-unknown-elf/sysroot/lib/m54455\libm.a(lib_a-e_pow.o)
                              c:/nburn/gcc-m68k/bin/../m68k-unknown-elf/sysroot/lib/m54455\libm.a(lib_a-w_pow.o) (__ieee754_pow)
c:/nburn/gcc-m68k/bin/../m68k-unknown-elf/sysroot/lib/m54455\libm.a(lib_a-e_rem_pio2.o)
                              c:/nburn/gcc-m68k/bin/../m68k-unknown-elf/sysroot/lib/m54455\libm.a(lib_a-s_cos.o) (__ieee754_rem_pio2)
c:/nburn/gcc-m68k/bin/../m68k-unknown-elf/sysroot/lib/m54455\libm.a(lib_a-e_sqrt.o)
                              c:/nburn/gcc-m68k/bin/../m68k-unknown-elf/sysroot/lib/m54455\libm.a(lib_a-e_pow.o) (__ieee754_sqrt)
c:/nburn/gcc-m68k/bin/../m68k-unknown-elf/sysroot/lib/m54455\libm.a(lib_a-ef_asin.o)
                              c:/nburn/gcc-m68k/bin/../m68k-unknown-elf/sysroot/lib/m54455\libm.a(lib_a-wf_asin.o) (__ieee754_asinf)
c:/nburn/gcc-m68k/bin/../m68k-unknown-elf/sysroot/lib/m54455\libm.a(lib_a-ef_atan2.o)
                              c:/nburn/gcc-m68k/bin/../m68k-unknown-elf/sysroot/lib/m54455\libm.a(lib_a-wf_atan2.o) (__ieee754_atan2f)
c:/nburn/gcc-m68k/bin/../m68k-unknown-elf/sysroot/lib/m54455\libm.a(lib_a-ef_sqrt.o)
                              c:/nburn/gcc-m68k/bin/../m68k-unknown-elf/sysroot/lib/m54455\libm.a(lib_a-wf_sqrt.o) (__ieee754_sqrtf)
c:/nburn/gcc-m68k/bin/../m68k-unknown-elf/sysroot/lib/m54455\libm.a(lib_a-k_cos.o)
                              c:/nburn/gcc-m68k/bin/../m68k-unknown-elf/sysroot/lib/m54455\libm.a(lib_a-s_cos.o) (__kernel_cos)
c:/nburn/gcc-m68k/bin/../m68k-unknown-elf/sysroot/lib/m54455\libm.a(lib_a-k_rem_pio2.o)
                              c:/nburn/gcc-m68k/bin/../m68k-unknown-elf/sysroot/lib/m54455\libm.a(lib_a-e_rem_pio2.o) (__kernel_rem_pio2)
c:/nburn/gcc-m68k/bin/../m68k-unknown-elf/sysroot/lib/m54455\libm.a(lib_a-k_sin.o)
                              c:/nburn/gcc-m68k/bin/../m68k-unknown-elf/sysroot/lib/m54455\libm.a(lib_a-s_cos.o) (__kernel_sin)
c:/nburn/gcc-m68k/bin/../m68k-unknown-elf/sysroot/lib/m54455\libm.a(lib_a-s_fabs.o)
                              c:/nburn/gcc-m68k/bin/../m68k-unknown-elf/sysroot/lib/m54455\libm.a(lib_a-e_pow.o) (fabs)
c:/nburn/gcc-m68k/bin/../m68k-unknown-elf/sysroot/lib/m54455\libm.a(lib_a-s_finite.o)
                              c:/nburn/gcc-m68k/bin/../m68k-unknown-elf/sysroot/lib/m54455\libm.a(lib_a-w_pow.o) (finite)
c:/nburn/gcc-m68k/bin/../m68k-unknown-elf/sysroot/lib/m54455\libm.a(lib_a-s_floor.o)
                              c:/nburn/gcc-m68k/bin/../m68k-unknown-elf/sysroot/lib/m54455\libm.a(lib_a-k_rem_pio2.o) (floor)
c:/nburn/gcc-m68k/bin/../m68k-unknown-elf/sysroot/lib/m54455\libm.a(lib_a-s_lib_ver.o)
                              c:/nburn/gcc-m68k/bin/../m68k-unknown-elf/sysroot/lib/m54455\libm.a(lib_a-w_pow.o) (__fdlib_version)
c:/nburn/gcc-m68k/bin/../m68k-unknown-elf/sysroot/lib/m54455\libm.a(lib_a-s_matherr.o)
                              c:/nburn/gcc-m68k/bin/../m68k-unknown-elf/sysroot/lib/m54455\libm.a(lib_a-w_pow.o) (matherr)
c:/nburn/gcc-m68k/bin/../m68k-unknown-elf/sysroot/lib/m54455\libm.a(lib_a-s_nan.o)
                              c:/nburn/gcc-m68k/bin/../m68k-unknown-elf/sysroot/lib/m54455\libm.a(lib_a-wf_asin.o) (nan)
c:/nburn/gcc-m68k/bin/../m68k-unknown-elf/sysroot/lib/m54455\libm.a(lib_a-s_rint.o)
                              c:/nburn/gcc-m68k/bin/../m68k-unknown-elf/sysroot/lib/m54455\libm.a(lib_a-w_pow.o) (rint)
c:/nburn/gcc-m68k/bin/../m68k-unknown-elf/sysroot/lib/m54455\libm.a(lib_a-s_scalbn.o)
                              c:/nburn/gcc-m68k/bin/../m68k-unknown-elf/sysroot/lib/m54455\libm.a(lib_a-e_pow.o) (scalbn)
c:/nburn/gcc-m68k/bin/../m68k-unknown-elf/sysroot/lib/m54455\libm.a(lib_a-sf_atan.o)
                              c:/nburn/gcc-m68k/bin/../m68k-unknown-elf/sysroot/lib/m54455\libm.a(lib_a-ef_atan2.o) (atanf)
c:/nburn/gcc-m68k/bin/../m68k-unknown-elf/sysroot/lib/m54455\libm.a(lib_a-sf_fabs.o)
                              c:/nburn/gcc-m68k/bin/../m68k-unknown-elf/sysroot/lib/m54455\libm.a(lib_a-wf_asin.o) (fabsf)
c:/nburn/gcc-m68k/bin/../m68k-unknown-elf/sysroot/lib/m54455\libm.a(lib_a-sf_fpclassify.o)
                              c:/nburn/gcc-m68k/bin/../m68k-unknown-elf/sysroot/lib/m54455\libm.a(lib_a-wf_asin.o) (__fpclassifyf)
c:/nburn/gcc-m68k/bin/../m68k-unknown-elf/sysroot/lib/m54455\libm.a(lib_a-s_copysign.o)
                              c:/nburn/gcc-m68k/bin/../m68k-unknown-elf/sysroot/lib/m54455\libm.a(lib_a-s_scalbn.o) (copysign)
c:/nburn/gcc-m68k/bin/../lib/gcc/m68k-unknown-elf/5.2.0/m54455\libgcc.a(_double.o)
                              Nav.o (__adddf3)
c:/nburn/gcc-m68k/bin/../lib/gcc/m68k-unknown-elf/5.2.0/m54455\libgcc.a(_float.o)
                              Utility.o (__addsf3)
c:/nburn/gcc-m68k/bin/../lib/gcc/m68k-unknown-elf/5.2.0/m54455\libgcc.a(_floatex.o)
                              c:/nburn/gcc-m68k/bin/../lib/gcc/m68k-unknown-elf/5.2.0/m54455\libgcc.a(_double.o) (_fpCCR)
c:/nburn/gcc-m68k/bin/../lib/gcc/m68k-unknown-elf/5.2.0/m54455\libgcc.a(_eqdf2.o)
                              Drivers\servodrive.o (__eqdf2)
c:/nburn/gcc-m68k/bin/../lib/gcc/m68k-unknown-elf/5.2.0/m54455\libgcc.a(_nedf2.o)
                              C:\Nburn/lib/NANO54415.a(HiResTimer.o) (__nedf2)
c:/nburn/gcc-m68k/bin/../lib/gcc/m68k-unknown-elf/5.2.0/m54455\libgcc.a(_gtdf2.o)
                              Nav.o (__gtdf2)
c:/nburn/gcc-m68k/bin/../lib/gcc/m68k-unknown-elf/5.2.0/m54455\libgcc.a(_gedf2.o)
                              Drivers\servodrive.o (__gedf2)
c:/nburn/gcc-m68k/bin/../lib/gcc/m68k-unknown-elf/5.2.0/m54455\libgcc.a(_ltdf2.o)
                              C:\Nburn/lib/NetBurner.a(nbfloatprint.o) (__ltdf2)
c:/nburn/gcc-m68k/bin/../lib/gcc/m68k-unknown-elf/5.2.0/m54455\libgcc.a(_ledf2.o)
                              Drivers\servodrive.o (__ledf2)
c:/nburn/gcc-m68k/bin/../lib/gcc/m68k-unknown-elf/5.2.0/m54455\libgcc.a(_eqsf2.o)
                              Drivers\MadgwickFilter.o (__eqsf2)
c:/nburn/gcc-m68k/bin/../lib/gcc/m68k-unknown-elf/5.2.0/m54455\libgcc.a(_gtsf2.o)
                              Utility.o (__gtsf2)
c:/nburn/gcc-m68k/bin/../lib/gcc/m68k-unknown-elf/5.2.0/m54455\libgcc.a(_ltsf2.o)
                              Utility.o (__ltsf2)
c:/nburn/gcc-m68k/bin/../lib/gcc/m68k-unknown-elf/5.2.0/m54455\libgcc.a(_muldi3.o)
                              C:\Nburn/lib/NetBurner.a(nbiprintf.o) (__muldi3)
c:/nburn/gcc-m68k/bin/../lib/gcc/m68k-unknown-elf/5.2.0/m54455\libgcc.a(_fixunsdfsi.o)
                              Logger.o (__fixunsdfsi)
c:/nburn/gcc-m68k/bin/../lib/gcc/m68k-unknown-elf/5.2.0/m54455\libgcc.a(_fixunsdfdi.o)
                              C:\Nburn/lib/NetBurner.a(nbfloatprint.o) (__fixunsdfdi)
c:/nburn/gcc-m68k/bin/../lib/gcc/m68k-unknown-elf/5.2.0/m54455\libgcc.a(_udivdi3.o)
                              C:\Nburn/lib/NetBurner.a(nbiprintf.o) (__udivdi3)
c:/nburn/gcc-m68k/bin/../lib/gcc/m68k-unknown-elf/5.2.0/m54455\libgcc.a(_umoddi3.o)
                              C:\Nburn/lib/NetBurner.a(nbiprintf.o) (__umoddi3)
c:/nburn/gcc-m68k/bin/../lib/gcc/m68k-unknown-elf/5.2.0/m54455\libgcc.a(fpgnulib.o)
                              Utility.o (__floatunsidf)
c:/nburn/gcc-m68k/bin/../lib/gcc/m68k-unknown-elf/5.2.0/m54455\libgcc.a(unwind-dw2.o)
                              c:/nburn/gcc-m68k/bin/../m68k-unknown-elf/sysroot/lib/m54455\libstdc++.a(eh_personality.o) (_Unwind_SetGR)
c:/nburn/gcc-m68k/bin/../lib/gcc/m68k-unknown-elf/5.2.0/m54455\libgcc.a(unwind-dw2-fde.o)
                              c:/nburn/gcc-m68k/bin/../lib/gcc/m68k-unknown-elf/5.2.0/m54455\libgcc.a(unwind-dw2.o) (_Unwind_Find_FDE)
c:/nburn/gcc-m68k/bin/../m68k-unknown-elf/sysroot/lib/m54455\libc.a(lib_a-abort.o)
                              c:/nburn/gcc-m68k/bin/../m68k-unknown-elf/sysroot/lib/m54455\libstdc++.a(eh_terminate.o) (abort)
c:/nburn/gcc-m68k/bin/../m68k-unknown-elf/sysroot/lib/m54455\libc.a(lib_a-atexit.o)
                              c:/nburn/gcc-m68k/bin/../lib/gcc/m68k-unknown-elf/5.2.0/m54455\nb-crt0.o (atexit)
c:/nburn/gcc-m68k/bin/../m68k-unknown-elf/sysroot/lib/m54455\libc.a(lib_a-atoi.o)
                              C:\Nburn/lib/NetBurner.a(ftpd.o) (atoi)
c:/nburn/gcc-m68k/bin/../m68k-unknown-elf/sysroot/lib/m54455\libc.a(lib_a-bsearch.o)
                              C:\Nburn/lib/NetBurner.a(htmldecomp.o) (bsearch)
c:/nburn/gcc-m68k/bin/../m68k-unknown-elf/sysroot/lib/m54455\libc.a(lib_a-cxa_atexit.o)
                              main.o (__cxa_atexit)
c:/nburn/gcc-m68k/bin/../m68k-unknown-elf/sysroot/lib/m54455\libc.a(lib_a-errno.o)
                              C:\Nburn/lib/NetBurner.a(fileio.o) (__errno)
c:/nburn/gcc-m68k/bin/../m68k-unknown-elf/sysroot/lib/m54455\libc.a(lib_a-fputc.o)
                              c:/nburn/gcc-m68k/bin/../m68k-unknown-elf/sysroot/lib/m54455\libstdc++.a(vterminate.o) (fputc)
c:/nburn/gcc-m68k/bin/../m68k-unknown-elf/sysroot/lib/m54455\libc.a(lib_a-fputs.o)
                              c:/nburn/gcc-m68k/bin/../m68k-unknown-elf/sysroot/lib/m54455\libstdc++.a(vterminate.o) (fputs)
c:/nburn/gcc-m68k/bin/../m68k-unknown-elf/sysroot/lib/m54455\libc.a(lib_a-fvwrite.o)
                              c:/nburn/gcc-m68k/bin/../m68k-unknown-elf/sysroot/lib/m54455\libc.a(lib_a-fputs.o) (__sfvwrite_r)
c:/nburn/gcc-m68k/bin/../m68k-unknown-elf/sysroot/lib/m54455\libc.a(lib_a-fwrite.o)
                              C:\Nburn/lib/NetBurner.a(nbsprintf.o) (fwrite)
c:/nburn/gcc-m68k/bin/../m68k-unknown-elf/sysroot/lib/m54455\libc.a(lib_a-impure.o)
                              C:\Nburn/lib/NetBurner.a(ucosmain.o) (_impure_ptr)
c:/nburn/gcc-m68k/bin/../m68k-unknown-elf/sysroot/lib/m54455\libc.a(lib_a-isalnum.o)
                              C:\Nburn/lib/NetBurner.a(httpinternal.o) (isalnum)
c:/nburn/gcc-m68k/bin/../m68k-unknown-elf/sysroot/lib/m54455\libc.a(lib_a-isspace.o)
                              C:\Nburn/lib/NetBurner.a(ftpd.o) (isspace)
c:/nburn/gcc-m68k/bin/../m68k-unknown-elf/sysroot/lib/m54455\libc.a(lib_a-malloc.o)
                              C:\Nburn/lib/NetBurner.a(new_ops.o) (malloc)
c:/nburn/gcc-m68k/bin/../m68k-unknown-elf/sysroot/lib/m54455\libc.a(lib_a-mallocr.o)
                              c:/nburn/gcc-m68k/bin/../m68k-unknown-elf/sysroot/lib/m54455\libc.a(lib_a-fvwrite.o) (_malloc_r)
c:/nburn/gcc-m68k/bin/../m68k-unknown-elf/sysroot/lib/m54455\libc.a(lib_a-memchr.o)
                              c:/nburn/gcc-m68k/bin/../m68k-unknown-elf/sysroot/lib/m54455\libc.a(lib_a-fvwrite.o) (memchr)
c:/nburn/gcc-m68k/bin/../m68k-unknown-elf/sysroot/lib/m54455\libc.a(lib_a-memcmp.o)
                              C:\Nburn/lib/NANO54415.a(FlashOps.o) (memcmp)
c:/nburn/gcc-m68k/bin/../m68k-unknown-elf/sysroot/lib/m54455\libc.a(lib_a-memmove.o)
                              c:/nburn/gcc-m68k/bin/../m68k-unknown-elf/sysroot/lib/m54455\libc.a(lib_a-fvwrite.o) (memmove)
c:/nburn/gcc-m68k/bin/../m68k-unknown-elf/sysroot/lib/m54455\libc.a(lib_a-putc.o)
                              c:/nburn/gcc-m68k/bin/../m68k-unknown-elf/sysroot/lib/m54455\libc.a(lib_a-fputc.o) (_putc_r)
c:/nburn/gcc-m68k/bin/../m68k-unknown-elf/sysroot/lib/m54455\libc.a(lib_a-puts.o)
                              Drivers\SpinningLidar.o (puts)
c:/nburn/gcc-m68k/bin/../m68k-unknown-elf/sysroot/lib/m54455\libc.a(lib_a-rand.o)
                              C:\Nburn/lib/NetBurner.a(autoip.o) (srand)
c:/nburn/gcc-m68k/bin/../m68k-unknown-elf/sysroot/lib/m54455\libc.a(lib_a-realloc.o)
                              c:/nburn/gcc-m68k/bin/../m68k-unknown-elf/sysroot/lib/m54455\libstdc++.a(cp-demangle.o) (realloc)
c:/nburn/gcc-m68k/bin/../m68k-unknown-elf/sysroot/lib/m54455\libc.a(lib_a-reallocr.o)
                              c:/nburn/gcc-m68k/bin/../m68k-unknown-elf/sysroot/lib/m54455\libc.a(lib_a-fvwrite.o) (_realloc_r)
c:/nburn/gcc-m68k/bin/../m68k-unknown-elf/sysroot/lib/m54455\libc.a(lib_a-rget.o)
                              C:\Nburn/lib/NetBurner.a(fileio.o) (__srget_r)
c:/nburn/gcc-m68k/bin/../m68k-unknown-elf/sysroot/lib/m54455\libc.a(lib_a-setvbuf.o)
                              C:\Nburn/lib/NetBurner.a(ucosmain.o) (setvbuf)
c:/nburn/gcc-m68k/bin/../m68k-unknown-elf/sysroot/lib/m54455\libc.a(lib_a-signal.o)
                              c:/nburn/gcc-m68k/bin/../m68k-unknown-elf/sysroot/lib/m54455\libc.a(lib_a-abort.o) (raise)
c:/nburn/gcc-m68k/bin/../m68k-unknown-elf/sysroot/lib/m54455\libc.a(lib_a-signalr.o)
                              c:/nburn/gcc-m68k/bin/../m68k-unknown-elf/sysroot/lib/m54455\libc.a(lib_a-signal.o) (_kill_r)
c:/nburn/gcc-m68k/bin/../m68k-unknown-elf/sysroot/lib/m54455\libc.a(lib_a-stpcpy.o)
                              Drivers\introspec.o (stpcpy)
c:/nburn/gcc-m68k/bin/../m68k-unknown-elf/sysroot/lib/m54455\libc.a(lib_a-strcat.o)
                              C:\Nburn/lib/NetBurner.a(ftpd.o) (strcat)
c:/nburn/gcc-m68k/bin/../m68k-unknown-elf/sysroot/lib/m54455\libc.a(lib_a-strcmp.o)
                              Drivers\introspec.o (strcmp)
c:/nburn/gcc-m68k/bin/../m68k-unknown-elf/sysroot/lib/m54455\libc.a(lib_a-strcpy.o)
                              Drivers\introspec.o (strcpy)
c:/nburn/gcc-m68k/bin/../m68k-unknown-elf/sysroot/lib/m54455\libc.a(lib_a-strlen.o)
                              Drivers\introspec.o (strlen)
c:/nburn/gcc-m68k/bin/../m68k-unknown-elf/sysroot/lib/m54455\libc.a(lib_a-strncmp.o)
                              c:/nburn/gcc-m68k/bin/../m68k-unknown-elf/sysroot/lib/m54455\libstdc++.a(cp-demangle.o) (strncmp)
c:/nburn/gcc-m68k/bin/../m68k-unknown-elf/sysroot/lib/m54455\libc.a(lib_a-strncpy.o)
                              C:\Nburn/lib/NetBurner.a(udp.o) (strncpy)
c:/nburn/gcc-m68k/bin/../m68k-unknown-elf/sysroot/lib/m54455\libc.a(lib_a-strstr.o)
                              C:\Nburn/lib/NetBurner.a(udp.o) (strstr)
c:/nburn/gcc-m68k/bin/../m68k-unknown-elf/sysroot/lib/m54455\libc.a(lib_a-strtol.o)
                              c:/nburn/gcc-m68k/bin/../m68k-unknown-elf/sysroot/lib/m54455\libc.a(lib_a-atoi.o) (_strtol_r)
c:/nburn/gcc-m68k/bin/../m68k-unknown-elf/sysroot/lib/m54455\libc.a(lib_a-tolower.o)
                              C:\Nburn/lib/NetBurner.a(htmldecomp.o) (tolower)
c:/nburn/gcc-m68k/bin/../m68k-unknown-elf/sysroot/lib/m54455\libc.a(lib_a-toupper.o)
                              C:\Nburn/lib/NetBurner.a(ftpd.o) (toupper)
c:/nburn/gcc-m68k/bin/../m68k-unknown-elf/sysroot/lib/m54455\libc.a(lib_a-wbuf.o)
                              C:\Nburn/lib/NetBurner.a(system.o) (__swbuf_r)
c:/nburn/gcc-m68k/bin/../m68k-unknown-elf/sysroot/lib/m54455\libc.a(lib_a-wsetup.o)
                              c:/nburn/gcc-m68k/bin/../m68k-unknown-elf/sysroot/lib/m54455\libc.a(lib_a-fvwrite.o) (__swsetup_r)
c:/nburn/gcc-m68k/bin/../m68k-unknown-elf/sysroot/lib/m54455\libc.a(lib_a-__atexit.o)
                              c:/nburn/gcc-m68k/bin/../m68k-unknown-elf/sysroot/lib/m54455\libc.a(lib_a-atexit.o) (__register_exitproc)
c:/nburn/gcc-m68k/bin/../m68k-unknown-elf/sysroot/lib/m54455\libc.a(lib_a-ctype_.o)
                              c:/nburn/gcc-m68k/bin/../m68k-unknown-elf/sysroot/lib/m54455\libc.a(lib_a-isalnum.o) (__ctype_ptr__)
c:/nburn/gcc-m68k/bin/../m68k-unknown-elf/sysroot/lib/m54455\libc.a(lib_a-fflush.o)
                              c:/nburn/gcc-m68k/bin/../m68k-unknown-elf/sysroot/lib/m54455\libc.a(lib_a-fvwrite.o) (_fflush_r)
c:/nburn/gcc-m68k/bin/../m68k-unknown-elf/sysroot/lib/m54455\libc.a(lib_a-findfp.o)
                              c:/nburn/gcc-m68k/bin/../m68k-unknown-elf/sysroot/lib/m54455\libc.a(lib_a-setvbuf.o) (_cleanup_r)
c:/nburn/gcc-m68k/bin/../m68k-unknown-elf/sysroot/lib/m54455\libc.a(lib_a-freer.o)
                              c:/nburn/gcc-m68k/bin/../m68k-unknown-elf/sysroot/lib/m54455\libc.a(lib_a-fvwrite.o) (_free_r)
c:/nburn/gcc-m68k/bin/../m68k-unknown-elf/sysroot/lib/m54455\libc.a(lib_a-fwalk.o)
                              c:/nburn/gcc-m68k/bin/../m68k-unknown-elf/sysroot/lib/m54455\libc.a(lib_a-findfp.o) (_fwalk)
c:/nburn/gcc-m68k/bin/../m68k-unknown-elf/sysroot/lib/m54455\libc.a(lib_a-makebuf.o)
                              c:/nburn/gcc-m68k/bin/../m68k-unknown-elf/sysroot/lib/m54455\libc.a(lib_a-wsetup.o) (__smakebuf_r)
c:/nburn/gcc-m68k/bin/../m68k-unknown-elf/sysroot/lib/m54455\libc.a(lib_a-refill.o)
                              c:/nburn/gcc-m68k/bin/../m68k-unknown-elf/sysroot/lib/m54455\libc.a(lib_a-rget.o) (__srefill_r)
c:/nburn/gcc-m68k/bin/../m68k-unknown-elf/sysroot/lib/m54455\libc.a(lib_a-stdio.o)
                              c:/nburn/gcc-m68k/bin/../m68k-unknown-elf/sysroot/lib/m54455\libc.a(lib_a-findfp.o) (__sread)
c:/nburn/gcc-m68k/bin/../m68k-unknown-elf/sysroot/lib/m54455\libc.a(lib_a-writer.o)
                              c:/nburn/gcc-m68k/bin/../m68k-unknown-elf/sysroot/lib/m54455\libc.a(lib_a-stdio.o) (_write_r)
c:/nburn/gcc-m68k/bin/../m68k-unknown-elf/sysroot/lib/m54455\libc.a(lib_a-closer.o)
                              c:/nburn/gcc-m68k/bin/../m68k-unknown-elf/sysroot/lib/m54455\libc.a(lib_a-stdio.o) (_close_r)
c:/nburn/gcc-m68k/bin/../m68k-unknown-elf/sysroot/lib/m54455\libc.a(lib_a-fclose.o)
                              c:/nburn/gcc-m68k/bin/../m68k-unknown-elf/sysroot/lib/m54455\libc.a(lib_a-findfp.o) (_fclose_r)
c:/nburn/gcc-m68k/bin/../m68k-unknown-elf/sysroot/lib/m54455\libc.a(lib_a-fstatr.o)
                              c:/nburn/gcc-m68k/bin/../m68k-unknown-elf/sysroot/lib/m54455\libc.a(lib_a-makebuf.o) (_fstat_r)
c:/nburn/gcc-m68k/bin/../m68k-unknown-elf/sysroot/lib/m54455\libc.a(lib_a-isattyr.o)
                              c:/nburn/gcc-m68k/bin/../m68k-unknown-elf/sysroot/lib/m54455\libc.a(lib_a-makebuf.o) (_isatty_r)
c:/nburn/gcc-m68k/bin/../m68k-unknown-elf/sysroot/lib/m54455\libc.a(lib_a-lseekr.o)
                              c:/nburn/gcc-m68k/bin/../m68k-unknown-elf/sysroot/lib/m54455\libc.a(lib_a-stdio.o) (_lseek_r)
c:/nburn/gcc-m68k/bin/../m68k-unknown-elf/sysroot/lib/m54455\libc.a(lib_a-readr.o)
                              c:/nburn/gcc-m68k/bin/../m68k-unknown-elf/sysroot/lib/m54455\libc.a(lib_a-stdio.o) (_read_r)

Discarded input sections

 .fini          0x00000000        0x6 c:/nburn/gcc-m68k/bin/../lib/gcc/m68k-unknown-elf/5.2.0/m54455/crtbegin.o
 .text          0x00000000        0x0 tests.o
 .data          0x00000000        0x0 tests.o
 .bss           0x00000000        0x0 tests.o
 .rodata.str1.1
                0x00000000        0x9 tests.o
 .text._ZN5tests14odoCalibrationEv
                0x00000000      0x134 tests.o
 .text._ZN5tests16moveForwardXFeetEi
                0x00000000       0x9c tests.o
 .debug_info    0x00000000      0x239 tests.o
 .debug_abbrev  0x00000000      0x162 tests.o
 .debug_loc     0x00000000      0x15c tests.o
 .debug_aranges
                0x00000000       0x28 tests.o
 .debug_ranges  0x00000000       0x48 tests.o
 .debug_line    0x00000000      0x10b tests.o
 .debug_str     0x00000000      0x297 tests.o
 .comment       0x00000000       0x1d tests.o
 .debug_frame   0x00000000       0x60 tests.o
 .text          0x00000000        0x0 main.o
 .data          0x00000000        0x0 main.o
 .bss           0x00000000        0x0 main.o
 .text          0x00000000        0x0 Utility.o
 .data          0x00000000        0x0 Utility.o
 .bss           0x00000000        0x0 Utility.o
 .rodata.str1.1
                0x00000000       0x49 Utility.o
 .text._ZN7Utility9countdownEiii
                0x00000000       0xd6 Utility.o
 .text._ZN7Utility9feetToOdoEd
                0x00000000       0x40 Utility.o
 .text._ZN7Utility7I2CScanEPb
                0x00000000       0xbe Utility.o
 .group         0x00000000        0x8 Nav.o
 .text          0x00000000        0x0 Nav.o
 .data          0x00000000        0x0 Nav.o
 .bss           0x00000000        0x0 Nav.o
 .group         0x00000000        0x8 Map.o
 .text          0x00000000        0x0 Map.o
 .data          0x00000000        0x0 Map.o
 .bss           0x00000000        0x0 Map.o
 .text._ZN3MapD2Ev
                0x00000000       0x28 Map.o
 .text._ZN3MapD0Ev
                0x00000000       0x3a Map.o
 .text._ZN3MapC2Ev
                0x00000000       0x1e Map.o
 .rodata._ZTV3Map
                0x00000000       0x10 Map.o
 .debug_info    0x00000000     0x1ed2 Map.o
 .debug_abbrev  0x00000000      0x4ee Map.o
 .debug_loc     0x00000000      0x232 Map.o
 .debug_aranges
                0x00000000       0x30 Map.o
 .debug_ranges  0x00000000       0x68 Map.o
 .debug_line    0x00000000      0x2db Map.o
 .debug_str     0x00000000     0x2bce Map.o
 .comment       0x00000000       0x1d Map.o
 .debug_frame   0x00000000       0x60 Map.o
 .group         0x00000000        0x8 Logger.o
 .group         0x00000000        0x8 Logger.o
 .group         0x00000000        0x8 Logger.o
 .group         0x00000000        0x8 Logger.o
 .text          0x00000000        0x0 Logger.o
 .data          0x00000000        0x0 Logger.o
 .bss           0x00000000        0x0 Logger.o
 .text._ZN6Logger8logWriteEPc
                0x00000000       0x1a Logger.o
 .text          0x00000000        0x0 Drivers\servodrive.o
 .data          0x00000000        0x0 Drivers\servodrive.o
 .bss           0x00000000        0x0 Drivers\servodrive.o
 .text._Z15SetServoHighRawii
                0x00000000       0x66 Drivers\servodrive.o
 .text._Z13GetServoCounti
                0x00000000       0x16 Drivers\servodrive.o
 .bss.IsrCorrections
                0x00000000        0x4 Drivers\servodrive.o
 .text          0x00000000        0x0 Drivers\pwm.o
 .data          0x00000000        0x0 Drivers\pwm.o
 .bss           0x00000000        0x0 Drivers\pwm.o
 .text._Z16InitializeModulev
                0x00000000       0x32 Drivers\pwm.o
 .text._Z16CenterAlignedPWMiiiii
                0x00000000      0x3ec Drivers\pwm.o
 .data.pwmOn    0x00000000        0x4 Drivers\pwm.o
 .data.startCnt
                0x00000000        0x4 Drivers\pwm.o
 .group         0x00000000        0x8 Drivers\introspec.o
 .text          0x00000000        0x0 Drivers\introspec.o
 .data          0x00000000        0x0 Drivers\introspec.o
 .bss           0x00000000        0x0 Drivers\introspec.o
 .text._Z9LogEXReadiPci
                0x00000000        0xa Drivers\introspec.o
 .text._Z10LogEXClosei
                0x00000000        0xa Drivers\introspec.o
 .text._Z10LogEXWriteiPKci
                0x00000000       0x3a Drivers\introspec.o
 .text._Z10LogRawDataPmS_
                0x00000000       0x32 Drivers\introspec.o
 .text._Z8LogEventb
                0x00000000       0x5e Drivers\introspec.o
 .text._Z8ClearLogv
                0x00000000       0x38 Drivers\introspec.o
 .text._Z13GetLogPercentv
                0x00000000       0x2c Drivers\introspec.o
 .text._Z13LogAppRecordsv
                0x00000000       0x86 Drivers\introspec.o
 .text          0x00000000        0x0 Drivers\dsm2.o
 .data          0x00000000        0x0 Drivers\dsm2.o
 .bss           0x00000000        0x0 Drivers\dsm2.o
 .text          0x00000000        0x0 Drivers\SpinningLidar.o
 .data          0x00000000        0x0 Drivers\SpinningLidar.o
 .bss           0x00000000        0x0 Drivers\SpinningLidar.o
 .text._ZN13SpinningLidar17LIDAR_ProcessCharEh.part.0
                0x00000000       0xaa Drivers\SpinningLidar.o
 .text._ZN13SpinningLidar12LidarTaskOldEPv
                0x00000000       0xd8 Drivers\SpinningLidar.o
 .text._ZN13SpinningLidar10readPacketEi
                0x00000000      0x160 Drivers\SpinningLidar.o
 .text._ZN13SpinningLidar17LIDAR_ProcessCharEh
                0x00000000       0x36 Drivers\SpinningLidar.o
 .text._ZN13SpinningLidar18LIDAR_ProcessChar2EPh
                0x00000000       0xa4 Drivers\SpinningLidar.o
 .bss._ZN13SpinningLidar17prevSampleQualityE
                0x00000000      0x5a0 Drivers\SpinningLidar.o
 .bss._ZN13SpinningLidar8prevDistE
                0x00000000      0xb40 Drivers\SpinningLidar.o
 .bss._ZN13SpinningLidar11packetIndexE
                0x00000000        0x4 Drivers\SpinningLidar.o
 .group         0x00000000        0x8 Drivers\Odometer.o
 .text          0x00000000        0x0 Drivers\Odometer.o
 .data          0x00000000        0x0 Drivers\Odometer.o
 .bss           0x00000000        0x0 Drivers\Odometer.o
 .text._ZN8Odometer10resetCountEv
                0x00000000        0xe Drivers\Odometer.o
 .text          0x00000000        0x0 Drivers\MadgwickFilter.o
 .data          0x00000000        0x0 Drivers\MadgwickFilter.o
 .bss           0x00000000        0x0 Drivers\MadgwickFilter.o
 .text          0x00000000        0x0 Drivers\MPU9250.o
 .data          0x00000000        0x0 Drivers\MPU9250.o
 .bss           0x00000000        0x0 Drivers\MPU9250.o
 .text._ZN7MPU925012resetMPU9250Ev
                0x00000000       0x58 Drivers\MPU9250.o
 .text._ZN7MPU925012getMPU9250IDEv
                0x00000000       0x2a Drivers\MPU9250.o
 .text._ZN7MPU925012getAK8963CIDEv
                0x00000000       0x28 Drivers\MPU9250.o
 .text._ZN7MPU925012gyromagSleepEv
                0x00000000       0xbe Drivers\MPU9250.o
 .text._ZN7MPU925017accelWakeOnMotionEv
                0x00000000      0x16a Drivers\MPU9250.o
 .text._ZN7MPU925011gyromagWakeEh
                0x00000000       0xba Drivers\MPU9250.o
 .text._ZN7MPU925015checkNewMagDataEv
                0x00000000       0x2e Drivers\MPU9250.o
 .text._ZN7MPU925021checkNewAccelGyroDataEv
                0x00000000       0x2e Drivers\MPU9250.o
 .text._ZN7MPU925017checkWakeOnMotionEv
                0x00000000       0x30 Drivers\MPU9250.o
 .text._ZN7MPU925013readAccelDataEPs
                0x00000000       0x66 Drivers\MPU9250.o
 .text._ZN7MPU925012readGyroDataEPs
                0x00000000       0x66 Drivers\MPU9250.o
 .text._ZN7MPU925016readGyroTempDataEv
                0x00000000       0x32 Drivers\MPU9250.o
 .text._ZN7MPU92509writeByteEhhh
                0x00000000       0x36 Drivers\MPU9250.o
 .text._ZN7MPU92509readBytesEhhhPh
                0x00000000       0x32 Drivers\MPU9250.o
 .text          0x00000000        0x0 Drivers\LidarPWM.o
 .data          0x00000000        0x0 Drivers\LidarPWM.o
 .bss           0x00000000        0x0 Drivers\LidarPWM.o
 .text._Z15GlobalTimerIniti
                0x00000000       0x68 Drivers\LidarPWM.o
 .text._Z12getLeftLidarv
                0x00000000       0x4e Drivers\LidarPWM.o
 .text._Z13getRightLidarv
                0x00000000       0x4e Drivers\LidarPWM.o
 .bss.LIDAR_VALUE_LEFT
                0x00000000        0x4 Drivers\LidarPWM.o
 .bss._ZL21LIDAR_LAST_START_LEFT
                0x00000000        0x4 Drivers\LidarPWM.o
 .bss._ZL16bLIDAR_MODE_LEFT
                0x00000000        0x1 Drivers\LidarPWM.o
 .group         0x00000000        0x8 Drivers\LCD.o
 .text          0x00000000        0x0 Drivers\LCD.o
 .data          0x00000000        0x0 Drivers\LCD.o
 .bss           0x00000000        0x0 Drivers\LCD.o
 .text._ZN3LCD10moveCursorEii
                0x00000000       0x54 Drivers\LCD.o
 .text          0x00000000        0x0 Drivers\IMUSetupAndSample.o
 .data          0x00000000        0x0 Drivers\IMUSetupAndSample.o
 .bss           0x00000000        0x0 Drivers\IMUSetupAndSample.o
 .bss.eInt      0x00000000        0xc Drivers\IMUSetupAndSample.o
 .bss.count     0x00000000        0x8 Drivers\IMUSetupAndSample.o
 .bss.delt_t    0x00000000        0x8 Drivers\IMUSetupAndSample.o
 .bss.Pressure  0x00000000        0x8 Drivers\IMUSetupAndSample.o
 .bss.Temperature
                0x00000000        0x8 Drivers\IMUSetupAndSample.o
 .bss.temperature
                0x00000000        0x4 Drivers\IMUSetupAndSample.o
 .bss.tempCount
                0x00000000        0x2 Drivers\IMUSetupAndSample.o
 .bss.gyroCount
                0x00000000        0x6 Drivers\IMUSetupAndSample.o
 .bss.accelCount
                0x00000000        0x6 Drivers\IMUSetupAndSample.o
 .bss.newMagData
                0x00000000        0x1 Drivers\IMUSetupAndSample.o
 .bss.newData   0x00000000        0x1 Drivers\IMUSetupAndSample.o
 .data.intPin   0x00000000        0x4 Drivers\IMUSetupAndSample.o
 .text          0x00000000        0x0 htmldata.o
 .data          0x00000000        0x0 htmldata.o
 .bss           0x00000000        0x0 htmldata.o
 .data          0x00000000        0x0 C:\Nburn/lib/NANO54415.a(hardware_init.o)
 .bss           0x00000000        0x0 C:\Nburn/lib/NANO54415.a(hardware_init.o)
 .text          0x00000000        0x0 C:\Nburn/lib/NANO54415.a(serial.o)
 .data          0x00000000        0x0 C:\Nburn/lib/NANO54415.a(serial.o)
 .bss           0x00000000        0x0 C:\Nburn/lib/NANO54415.a(serial.o)
 .text._Z20SerialEnableHwTxFlowii.part.2
                0x00000000      0x1de C:\Nburn/lib/NANO54415.a(serial.o)
 .text._Z20SerialEnableHwRxFlowii.part.3
                0x00000000      0x1c0 C:\Nburn/lib/NANO54415.a(serial.o)
 .text._Z11FdSerialMapi
                0x00000000       0x26 C:\Nburn/lib/NANO54415.a(serial.o)
 .text._Z14InitializeMapsv
                0x00000000       0x18 C:\Nburn/lib/NANO54415.a(serial.o)
 .text._Z15serwriteaddressic
                0x00000000       0xf8 C:\Nburn/lib/NANO54415.a(serial.o)
 .text._Z18SerialEnableTxFlowii
                0x00000000       0x3e C:\Nburn/lib/NANO54415.a(serial.o)
 .text._Z18SerialEnableRxFlowii
                0x00000000       0x42 C:\Nburn/lib/NANO54415.a(serial.o)
 .text._Z20Serial485HalfDupModeii
                0x00000000      0x2b0 C:\Nburn/lib/NANO54415.a(serial.o)
 .text._Z20SerialEnableHwTxFlowii
                0x00000000       0x20 C:\Nburn/lib/NANO54415.a(serial.o)
 .text._Z20SerialEnableHwRxFlowii
                0x00000000       0x20 C:\Nburn/lib/NANO54415.a(serial.o)
 .text._Z9SendBreakim
                0x00000000       0x70 C:\Nburn/lib/NANO54415.a(serial.o)
 .text._Z15GetUartErrorRegi
                0x00000000       0x86 C:\Nburn/lib/NANO54415.a(serial.o)
 .rodata.str1.1
                0x00000000      0x15a C:\Nburn/lib/NANO54415.a(serial.o)
 .text._Z15fShowSerialDataP7__sFILE
                0x00000000      0x254 C:\Nburn/lib/NANO54415.a(serial.o)
 .text._Z20SerialExpandRxBufferii
                0x00000000       0x4e C:\Nburn/lib/NANO54415.a(serial.o)
 .text._Z18SerialSendCompletei
                0x00000000       0x7e C:\Nburn/lib/NANO54415.a(serial.o)
 .bss.p2        0x00000000        0x4 C:\Nburn/lib/NANO54415.a(serial.o)
 .text          0x00000000        0x0 C:\Nburn/lib/NANO54415.a(pins.o)
 .data          0x00000000        0x0 C:\Nburn/lib/NANO54415.a(pins.o)
 .bss           0x00000000        0x0 C:\Nburn/lib/NANO54415.a(pins.o)
 .text._ZN5PinIO6toggleEv
                0x00000000      0x606 C:\Nburn/lib/NANO54415.a(pins.o)
 .text._ZN5PinIO5driveEv
                0x00000000      0x3fe C:\Nburn/lib/NANO54415.a(pins.o)
 .text._ZN5PinIO8readBackEv
                0x00000000      0x350 C:\Nburn/lib/NANO54415.a(pins.o)
 .bss.Pins      0x00000000        0x1 C:\Nburn/lib/NANO54415.a(pins.o)
 .text          0x00000000        0x0 C:\Nburn/lib/NANO54415.a(FlashOps.o)
 .data          0x00000000        0x0 C:\Nburn/lib/NANO54415.a(FlashOps.o)
 .bss           0x00000000        0x0 C:\Nburn/lib/NANO54415.a(FlashOps.o)
 .text._Z11InConfigRecPv
                0x00000000       0x24 C:\Nburn/lib/NANO54415.a(FlashOps.o)
 .text._Z10AddrAdjustPv
                0x00000000       0x54 C:\Nburn/lib/NANO54415.a(FlashOps.o)
 .text._Z19ReleaseSpiFlashCritv
                0x00000000       0x16 C:\Nburn/lib/NANO54415.a(FlashOps.o)
 .text._Z12FlashComparePKhS0_m
                0x00000000       0xbc C:\Nburn/lib/NANO54415.a(FlashOps.o)
 .bss.FlashCmpBuf
                0x00000000     0x2000 C:\Nburn/lib/NANO54415.a(FlashOps.o)
 .text          0x00000000        0x0 C:\Nburn/lib/NANO54415.a(HiResTimer.o)
 .data          0x00000000        0x0 C:\Nburn/lib/NANO54415.a(HiResTimer.o)
 .bss           0x00000000        0x0 C:\Nburn/lib/NANO54415.a(HiResTimer.o)
 .text._ZN10HiResTimer10delay_uSecEm
                0x00000000       0x94 C:\Nburn/lib/NANO54415.a(HiResTimer.o)
 .text._ZN10HiResTimer12pollingDelayEd
                0x00000000       0x76 C:\Nburn/lib/NANO54415.a(HiResTimer.o)
 .text._ZN10HiResTimer21pollingDelay_refTicksEm
                0x00000000       0x40 C:\Nburn/lib/NANO54415.a(HiResTimer.o)
 .text._ZN10HiResTimer14clockGeneratorEd
                0x00000000       0x6e C:\Nburn/lib/NANO54415.a(HiResTimer.o)
 .text._ZN10HiResTimer12releaseTimerEv
                0x00000000       0x1a C:\Nburn/lib/NANO54415.a(HiResTimer.o)
 .text._ZN10HiResTimeraSERKS_
                0x00000000       0x5c C:\Nburn/lib/NANO54415.a(HiResTimer.o)
 .rodata.str1.1
                0x00000000       0xcf C:\Nburn/lib/NANO54415.a(HiResTimer.o)
 .text._ZN10HiResTimer8toStringEv
                0x00000000       0x7a C:\Nburn/lib/NANO54415.a(HiResTimer.o)
 .bss._ZZN10HiResTimer8toStringEvE3buf
                0x00000000      0x100 C:\Nburn/lib/NANO54415.a(HiResTimer.o)
 .text          0x00000000        0x0 C:\Nburn/lib/NANO54415.a(pin_irq.o)
 .data          0x00000000        0x0 C:\Nburn/lib/NANO54415.a(pin_irq.o)
 .bss           0x00000000        0x0 C:\Nburn/lib/NANO54415.a(pin_irq.o)
 .text._Z9EnableIrqi
                0x00000000       0x52 C:\Nburn/lib/NANO54415.a(pin_irq.o)
 .text._Z10DisableIrqi
                0x00000000       0x52 C:\Nburn/lib/NANO54415.a(pin_irq.o)
 .text          0x00000000        0x0 C:\Nburn/lib/NANO54415.a(bsp.o)
 .data          0x00000000        0x0 C:\Nburn/lib/NANO54415.a(bsp.o)
 .bss           0x00000000        0x0 C:\Nburn/lib/NANO54415.a(bsp.o)
 .text._Z16fake_faultvectorv
                0x00000000       0x20 C:\Nburn/lib/NANO54415.a(bsp.o)
 .text.real_faultvector
                0x00000000       0x52 C:\Nburn/lib/NANO54415.a(bsp.o)
 .text._Z11C_DebugTrapv
                0x00000000        0x8 C:\Nburn/lib/NANO54415.a(bsp.o)
 .text._Z11isCacheablemm
                0x00000000        0xa C:\Nburn/lib/NANO54415.a(bsp.o)
 .text._Z6atexitPFvvE
                0x00000000        0xa C:\Nburn/lib/NANO54415.a(bsp.o)
 .text._Z9spaceleftv
                0x00000000       0x34 C:\Nburn/lib/NANO54415.a(bsp.o)
 .text._Z8getdipswv
                0x00000000        0xa C:\Nburn/lib/NANO54415.a(bsp.o)
 .text          0x00000000        0x0 C:\Nburn/lib/NANO54415.a(localio.o)
 .data          0x00000000        0x0 C:\Nburn/lib/NANO54415.a(localio.o)
 .bss           0x00000000        0x0 C:\Nburn/lib/NANO54415.a(localio.o)
 .text._Z10GetDefUartv
                0x00000000       0x3c C:\Nburn/lib/NANO54415.a(localio.o)
 .text._Z14LocalCharAvailv
                0x00000000       0x58 C:\Nburn/lib/NANO54415.a(localio.o)
 .text          0x00000000        0x0 C:\Nburn/lib/NANO54415.a(multichanneli2c.o)
 .data          0x00000000        0x0 C:\Nburn/lib/NANO54415.a(multichanneli2c.o)
 .bss           0x00000000        0x0 C:\Nburn/lib/NANO54415.a(multichanneli2c.o)
 .text.MultiChannel_I2CStart
                0x00000000       0x42 C:\Nburn/lib/NANO54415.a(multichanneli2c.o)
 .text.MultiChannel_I2CStop
                0x00000000       0x36 C:\Nburn/lib/NANO54415.a(multichanneli2c.o)
 .text.MultiChannel_I2CSend
                0x00000000       0x3c C:\Nburn/lib/NANO54415.a(multichanneli2c.o)
 .text.MultiChannel_I2CRead
                0x00000000       0x3a C:\Nburn/lib/NANO54415.a(multichanneli2c.o)
 .text.MultiChannel_I2CFillSlaveTXBuf
                0x00000000       0x30 C:\Nburn/lib/NANO54415.a(multichanneli2c.o)
 .text.MultiChannel_I2CGetByte
                0x00000000       0x24 C:\Nburn/lib/NANO54415.a(multichanneli2c.o)
 .text.MultiChannel_I2CRXAvail
                0x00000000       0x24 C:\Nburn/lib/NANO54415.a(multichanneli2c.o)
 .text.MultiChannel_I2CTXAvail
                0x00000000       0x24 C:\Nburn/lib/NANO54415.a(multichanneli2c.o)
 .data.bRestartSlaveTX
                0x00000000        0x1 C:\Nburn/lib/NANO54415.a(multichanneli2c.o)
 .bss.bRestarted
                0x00000000        0x1 C:\Nburn/lib/NANO54415.a(multichanneli2c.o)
 .bss.RnW       0x00000000        0x1 C:\Nburn/lib/NANO54415.a(multichanneli2c.o)
 .bss.bLastTX   0x00000000        0x1 C:\Nburn/lib/NANO54415.a(multichanneli2c.o)
 .bss.dummy     0x00000000        0x1 C:\Nburn/lib/NANO54415.a(multichanneli2c.o)
 .bss.pI2CRec   0x00000000        0x4 C:\Nburn/lib/NANO54415.a(multichanneli2c.o)
 .bss.I2CSlaveTXBuf
                0x00000000       0x41 C:\Nburn/lib/NANO54415.a(multichanneli2c.o)
 .bss.I2CSlaveRXBuf
                0x00000000       0x41 C:\Nburn/lib/NANO54415.a(multichanneli2c.o)
 .bss.I2C_SlaveRX_Callback
                0x00000000        0x4 C:\Nburn/lib/NANO54415.a(multichanneli2c.o)
 .bss.I2C_SlaveTX_NAK_Callback
                0x00000000        0x4 C:\Nburn/lib/NANO54415.a(multichanneli2c.o)
 .bss.I2C_SlaveTX_Callback
                0x00000000        0x4 C:\Nburn/lib/NANO54415.a(multichanneli2c.o)
 .data          0x00000000        0x0 C:\Nburn/lib/NANO54415.a(bspa.o)
 .bss           0x00000000        0x0 C:\Nburn/lib/NANO54415.a(bspa.o)
 .text          0x00000000        0x0 C:\Nburn/lib/NANO54415.a(defpins.o)
 .data          0x00000000        0x0 C:\Nburn/lib/NANO54415.a(defpins.o)
 .bss           0x00000000        0x0 C:\Nburn/lib/NANO54415.a(defpins.o)
 .text          0x00000000        0x0 C:\Nburn/lib/NANO54415.a(SPIFlash.o)
 .data          0x00000000        0x0 C:\Nburn/lib/NANO54415.a(SPIFlash.o)
 .bss           0x00000000        0x0 C:\Nburn/lib/NANO54415.a(SPIFlash.o)
 .text._ZN8SPIFlash9SendSPITXEhi
                0x00000000       0x74 C:\Nburn/lib/NANO54415.a(SPIFlash.o)
 .text._ZN8SPIFlash7DoSpiRxEv
                0x00000000       0x44 C:\Nburn/lib/NANO54415.a(SPIFlash.o)
 .text._ZN8SPIFlash8SpiStartEv
                0x00000000       0x1e C:\Nburn/lib/NANO54415.a(SPIFlash.o)
 .text._ZN8SPIFlash12SpiFrameWaitEv
                0x00000000       0x30 C:\Nburn/lib/NANO54415.a(SPIFlash.o)
 .text._ZN8SPIFlash11WriteEnableEb
                0x00000000        0x8 C:\Nburn/lib/NANO54415.a(SPIFlash.o)
 .text._ZN8SPIFlash11QFlushSPIRXEv
                0x00000000       0x44 C:\Nburn/lib/NANO54415.a(SPIFlash.o)
 .text._ZN8SPIFlash7JedecIdEv
                0x00000000      0x114 C:\Nburn/lib/NANO54415.a(SPIFlash.o)
 .text._ZN8SPIFlash9UniqueIdMEv
                0x00000000      0x232 C:\Nburn/lib/NANO54415.a(SPIFlash.o)
 .text._ZN8SPIFlash9UniqueIdLEv
                0x00000000      0x30e C:\Nburn/lib/NANO54415.a(SPIFlash.o)
 .text._ZN8SPIFlash6ReadSREv
                0x00000000      0x10c C:\Nburn/lib/NANO54415.a(SPIFlash.o)
 .text._ZN8SPIFlash7WriteSREh
                0x00000000      0x186 C:\Nburn/lib/NANO54415.a(SPIFlash.o)
 .text._ZN8SPIFlash12WriteEnabledEv
                0x00000000       0x18 C:\Nburn/lib/NANO54415.a(SPIFlash.o)
 .text._ZN8SPIFlash12WriteProtectEi
                0x00000000       0x4a C:\Nburn/lib/NANO54415.a(SPIFlash.o)
 .text          0x00000000        0x0 C:\Nburn/lib/NANO54415.a(i2c_class.o)
 .data          0x00000000        0x0 C:\Nburn/lib/NANO54415.a(i2c_class.o)
 .bss           0x00000000        0x0 C:\Nburn/lib/NANO54415.a(i2c_class.o)
 .text._Z15i2cModuleSwitchi
                0x00000000       0x28 C:\Nburn/lib/NANO54415.a(i2c_class.o)
 .text._ZN10i2c_master14fillSlaveTXBufEPhmb
                0x00000000      0x118 C:\Nburn/lib/NANO54415.a(i2c_class.o)
 .text._ZN10i2c_master7getByteEv
                0x00000000       0x54 C:\Nburn/lib/NANO54415.a(i2c_class.o)
 .text._ZN10i2c_master7RXAvailEv
                0x00000000       0x1a C:\Nburn/lib/NANO54415.a(i2c_class.o)
 .text._ZN10i2c_master7TXAvailEv
                0x00000000       0x36 C:\Nburn/lib/NANO54415.a(i2c_class.o)
 .text._ZN10i2c_master16SlaveTX_CallBackEv
                0x00000000       0x54 C:\Nburn/lib/NANO54415.a(i2c_class.o)
 .text._ZN10i2c_master20SlaveTX_NAK_CallBackEv
                0x00000000        0x8 C:\Nburn/lib/NANO54415.a(i2c_class.o)
 .data          0x00000000        0x0 C:\Nburn/lib/NetBurner.a(ucosmcfa.o)
 .bss           0x00000000        0x0 C:\Nburn/lib/NetBurner.a(ucosmcfa.o)
 .data          0x00000000        0x0 C:\Nburn/lib/NetBurner.a(software_init.o)
 .bss           0x00000000        0x0 C:\Nburn/lib/NetBurner.a(software_init.o)
 .text          0x00000000       0x34 C:\Nburn/lib/NetBurner.a(main.o)
 .data          0x00000000        0x0 C:\Nburn/lib/NetBurner.a(main.o)
 .bss           0x00000000        0x0 C:\Nburn/lib/NetBurner.a(main.o)
 .text          0x00000000        0x0 C:\Nburn/lib/NetBurner.a(ucosmcfc.o)
 .data          0x00000000        0x0 C:\Nburn/lib/NetBurner.a(ucosmcfc.o)
 .bss           0x00000000        0x0 C:\Nburn/lib/NetBurner.a(ucosmcfc.o)
 .text._Z12OSTaskCreatePFvPvES_S_S_h
                0x00000000       0x48 C:\Nburn/lib/NetBurner.a(ucosmcfc.o)
 .text          0x00000000        0x0 C:\Nburn/lib/NetBurner.a(ucos.o)
 .data          0x00000000        0x0 C:\Nburn/lib/NetBurner.a(ucos.o)
 .bss           0x00000000        0x0 C:\Nburn/lib/NetBurner.a(ucos.o)
 .text._Z15OSChangeTaskDlytt
                0x00000000       0x92 C:\Nburn/lib/NetBurner.a(ucos.o)
 .text._ZN7OS_MBOX4InitEPv
                0x00000000       0x5a C:\Nburn/lib/NetBurner.a(ucos.o)
 .text._ZN7OS_MBOX4PendEPPvm
                0x00000000      0x1ee C:\Nburn/lib/NetBurner.a(ucos.o)
 .text._ZN7OS_MBOX10PendNoWaitEPPv
                0x00000000       0x4a C:\Nburn/lib/NetBurner.a(ucos.o)
 .text._ZN7OS_MBOX4PostEPv
                0x00000000      0x16c C:\Nburn/lib/NetBurner.a(ucos.o)
 .text._ZN4OS_Q4InitEPPvh
                0x00000000       0x80 C:\Nburn/lib/NetBurner.a(ucos.o)
 .text._ZN4OS_Q4PendEPPvm
                0x00000000      0x22c C:\Nburn/lib/NetBurner.a(ucos.o)
 .text._ZN4OS_Q10PendNoWaitEPPv
                0x00000000       0x76 C:\Nburn/lib/NetBurner.a(ucos.o)
 .text._ZN4OS_Q4PostEPv
                0x00000000      0x19e C:\Nburn/lib/NetBurner.a(ucos.o)
 .text._ZN4OS_Q10PostUniqueEPv
                0x00000000       0x5a C:\Nburn/lib/NetBurner.a(ucos.o)
 .text._ZN4OS_Q9PostFirstEPv
                0x00000000      0x1ac C:\Nburn/lib/NetBurner.a(ucos.o)
 .text._ZN7OS_FIFO10PendNoWaitEPPV10os_fifo_el
                0x00000000       0x66 C:\Nburn/lib/NetBurner.a(ucos.o)
 .text._ZN7OS_FIFO9PostFirstEP10os_fifo_el
                0x00000000      0x160 C:\Nburn/lib/NetBurner.a(ucos.o)
 .text._ZN7OS_CRIT12LockAndEnterEm
                0x00000000       0x5c C:\Nburn/lib/NetBurner.a(ucos.o)
 .text._ZN7OS_CRIT14LeaveAndUnlockEv
                0x00000000       0x1a C:\Nburn/lib/NetBurner.a(ucos.o)
 .text._Z8OSTaskIDv
                0x00000000       0x12 C:\Nburn/lib/NetBurner.a(ucos.o)
 .text._Z9OSSetNamePKc
                0x00000000       0x14 C:\Nburn/lib/NetBurner.a(ucos.o)
 .text._Z10OSTaskNamev
                0x00000000       0x12 C:\Nburn/lib/NetBurner.a(ucos.o)
 .text          0x00000000        0x0 C:\Nburn/lib/NetBurner.a(cppmain.o)
 .data          0x00000000        0x0 C:\Nburn/lib/NetBurner.a(cppmain.o)
 .bss           0x00000000        0x0 C:\Nburn/lib/NetBurner.a(cppmain.o)
 .text          0x00000000        0x0 C:\Nburn/lib/NetBurner.a(debugtrap.o)
 .data          0x00000000        0x0 C:\Nburn/lib/NetBurner.a(debugtrap.o)
 .bss           0x00000000        0x0 C:\Nburn/lib/NetBurner.a(debugtrap.o)
 .text._Z6WDEBUGhm
                0x00000000       0x50 C:\Nburn/lib/NetBurner.a(debugtrap.o)
 .text._Z21SetAddressWrittenTrapm
                0x00000000       0xbc C:\Nburn/lib/NetBurner.a(debugtrap.o)
 .text._Z18SetAddressReadTrapm
                0x00000000       0xbc C:\Nburn/lib/NetBurner.a(debugtrap.o)
 .data          0x00000000        0x0 C:\Nburn/lib/NetBurner.a(ucosmain.o)
 .bss           0x00000000        0x0 C:\Nburn/lib/NetBurner.a(ucosmain.o)
 .text.balloc_lock
                0x00000000       0x1c C:\Nburn/lib/NetBurner.a(ucosmain.o)
 .text.balloc_unlock
                0x00000000       0x1a C:\Nburn/lib/NetBurner.a(ucosmain.o)
 .rodata.str1.1
                0x00000000       0x7b C:\Nburn/lib/NetBurner.a(ucosmain.o)
 .text._Z11OSDumpStackv
                0x00000000      0x178 C:\Nburn/lib/NetBurner.a(ucosmain.o)
 .text          0x00000000        0x0 C:\Nburn/lib/NetBurner.a(fileio.o)
 .data          0x00000000        0x0 C:\Nburn/lib/NetBurner.a(fileio.o)
 .bss           0x00000000        0x0 C:\Nburn/lib/NetBurner.a(fileio.o)
 .text.open     0x00000000       0x16 C:\Nburn/lib/NetBurner.a(fileio.o)
 .text.charavail
                0x00000000       0x2e C:\Nburn/lib/NetBurner.a(fileio.o)
 .text._Z5getsnPci
                0x00000000       0x72 C:\Nburn/lib/NetBurner.a(fileio.o)
 .text.fcntl    0x00000000        0xa C:\Nburn/lib/NetBurner.a(fileio.o)
 .text._Z7outbytec
                0x00000000       0x16 C:\Nburn/lib/NetBurner.a(fileio.o)
 .text          0x00000000        0x0 C:\Nburn/lib/NetBurner.a(system.o)
 .data          0x00000000        0x0 C:\Nburn/lib/NetBurner.a(system.o)
 .bss           0x00000000        0x0 C:\Nburn/lib/NetBurner.a(system.o)
 .text._Z14GetValidConfigi
                0x00000000       0x50 C:\Nburn/lib/NetBurner.a(system.o)
 .text._Z8ReadLinePci
                0x00000000      0x1bc C:\Nburn/lib/NetBurner.a(system.o)
 .rodata.str1.1
                0x00000000       0xd4 C:\Nburn/lib/NetBurner.a(system.o)
 .text._Z10IpQuestionPKcP7IPADDR4
                0x00000000       0xb8 C:\Nburn/lib/NetBurner.a(system.o)
 .text._Z10ShowChangePKcP7IPADDR4PKS1_
                0x00000000       0x5c C:\Nburn/lib/NetBurner.a(system.o)
 .text._Z11SetupDialogv
                0x00000000      0x150 C:\Nburn/lib/NetBurner.a(system.o)
 .text          0x00000000        0x0 C:\Nburn/lib/NetBurner.a(utils.o)
 .data          0x00000000        0x0 C:\Nburn/lib/NetBurner.a(utils.o)
 .bss           0x00000000        0x0 C:\Nburn/lib/NetBurner.a(utils.o)
 .text._fini    0x00000000        0xa C:\Nburn/lib/NetBurner.a(utils.o)
 .text._Z14DiagMenuPickerih
                0x00000000       0x36 C:\Nburn/lib/NetBurner.a(utils.o)
 .text._Z13sShowCountersPci
                0x00000000       0x9c C:\Nburn/lib/NetBurner.a(utils.o)
 .text._Z13fShowCountersP7__sFILE
                0x00000000       0xb4 C:\Nburn/lib/NetBurner.a(utils.o)
 .text._Z12ShowCountersv
                0x00000000       0xa8 C:\Nburn/lib/NetBurner.a(utils.o)
 .text._Z8fShowMacP7__sFILEP6MACADR
                0x00000000       0x46 C:\Nburn/lib/NetBurner.a(utils.o)
 .text._Z9snShowMacPcmP6MACADR
                0x00000000       0x4a C:\Nburn/lib/NetBurner.a(utils.o)
 .text._Z7MacToIDP6MACADRPc
                0x00000000       0x86 C:\Nburn/lib/NetBurner.a(utils.o)
 .text._Z8fShowIP4P7__sFILE7IPADDR4
                0x00000000       0x3a C:\Nburn/lib/NetBurner.a(utils.o)
 .text._Z10AsciiToIp4PKc
                0x00000000       0x78 C:\Nburn/lib/NetBurner.a(utils.o)
 .text._Z9ValidIPv4PKc
                0x00000000       0x82 C:\Nburn/lib/NetBurner.a(utils.o)
 .text._ZNK7IPADDR45printEv
                0x00000000       0x44 C:\Nburn/lib/NetBurner.a(utils.o)
 .text._ZNK7IPADDR47sprintfEPci
                0x00000000       0x48 C:\Nburn/lib/NetBurner.a(utils.o)
 .text._ZNK7IPADDR47fdprintEi
                0x00000000       0x36 C:\Nburn/lib/NetBurner.a(utils.o)
 .text._ZN7IPADDR412SetFromAsciiEPKc
                0x00000000       0x20 C:\Nburn/lib/NetBurner.a(utils.o)
 .text._Z9FancyDumpPhi
                0x00000000      0x126 C:\Nburn/lib/NetBurner.a(utils.o)
 .text.__builtin_delete
                0x00000000       0x16 C:\Nburn/lib/NetBurner.a(utils.o)
 .text._Z23convertBinaryToHexAsciiPhjS_j
                0x00000000       0x76 C:\Nburn/lib/NetBurner.a(utils.o)
 .text._Z23convertHexAsciiToBinaryPhjS_j
                0x00000000       0x84 C:\Nburn/lib/NetBurner.a(utils.o)
 .text._Z7bufnstrPKcS0_m
                0x00000000       0x7e C:\Nburn/lib/NetBurner.a(utils.o)
 .bss.static_buffer
                0x00000000       0x28 C:\Nburn/lib/NetBurner.a(utils.o)
 .rodata._ZL13counter_names
                0x00000000       0xb8 C:\Nburn/lib/NetBurner.a(utils.o)
 .bss.frames_rx_unknown
                0x00000000        0x4 C:\Nburn/lib/NetBurner.a(utils.o)
 .bss.enet_last_errlw
                0x00000000        0x4 C:\Nburn/lib/NetBurner.a(utils.o)
 .bss.frames_rx_ppp_errors
                0x00000000        0x4 C:\Nburn/lib/NetBurner.a(utils.o)
 .data          0x00000000        0x0 C:\Nburn/lib/NetBurner.a(ip.o)
 .bss           0x00000000        0x0 C:\Nburn/lib/NetBurner.a(ip.o)
 .text._Z7GetDataP5IPPKT
                0x00000000       0x34 C:\Nburn/lib/NetBurner.a(ip.o)
 .text._Z16InitializeCStack7IPADDR4S_S_S_
                0x00000000       0x42 C:\Nburn/lib/NetBurner.a(ip.o)
 .text._Z9KillStackv
                0x00000000        0xc C:\Nburn/lib/NetBurner.a(ip.o)
 .text._Z15PrepareIPOutputP11pool_buffer7IPADDR4t
                0x00000000       0x50 C:\Nburn/lib/NetBurner.a(ip.o)
 .text._Z9SendPing47IPADDR4tti
                0x00000000       0xe2 C:\Nburn/lib/NetBurner.a(ip.o)
 .text._Z17Ping4ViaInterface7IPADDR4ttti
                0x00000000      0x14c C:\Nburn/lib/NetBurner.a(ip.o)
 .text._Z5Ping47IPADDR4ttt
                0x00000000       0x2e C:\Nburn/lib/NetBurner.a(ip.o)
 .text._Z23IpProcessEthernetPacketP11pool_buffert
                0x00000000      0x144 C:\Nburn/lib/NetBurner.a(ip.o)
 .text          0x00000000        0x0 C:\Nburn/lib/NetBurner.a(buffers.o)
 .data          0x00000000        0x0 C:\Nburn/lib/NetBurner.a(buffers.o)
 .bss           0x00000000        0x0 C:\Nburn/lib/NetBurner.a(buffers.o)
 .text._Z15ShowBuffers_Webi
                0x00000000        0x8 C:\Nburn/lib/NetBurner.a(buffers.o)
 .text._Z11ShowBuffersv
                0x00000000        0x8 C:\Nburn/lib/NetBurner.a(buffers.o)
 .text._Z11DumpBuffersv
                0x00000000        0x8 C:\Nburn/lib/NetBurner.a(buffers.o)
 .text._Z14FreeBufferListP11pool_buffer
                0x00000000       0x30 C:\Nburn/lib/NetBurner.a(buffers.o)
 .text._ZN11buffer_list12InsertBeforeEP11pool_bufferS1_
                0x00000000       0x76 C:\Nburn/lib/NetBurner.a(buffers.o)
 .text._ZN11buffer_list11InsertAfterEP11pool_bufferS1_
                0x00000000       0x76 C:\Nburn/lib/NetBurner.a(buffers.o)
 .text._ZN11buffer_list6RemoveEP11pool_buffer
                0x00000000       0x86 C:\Nburn/lib/NetBurner.a(buffers.o)
 .text._ZN11buffer_list10RemoveTailEv
                0x00000000       0x60 C:\Nburn/lib/NetBurner.a(buffers.o)
 .rodata.str1.1
                0x00000000       0x70 C:\Nburn/lib/NetBurner.a(buffers.o)
 .text._Z10ShowBufferP11pool_buffer
                0x00000000      0x134 C:\Nburn/lib/NetBurner.a(buffers.o)
 .text._ZN19fifo_buffer_storage13SetMaxBuffersEh
                0x00000000       0x94 C:\Nburn/lib/NetBurner.a(buffers.o)
 .text          0x00000000        0x0 C:\Nburn/lib/NetBurner.a(arp.o)
 .data          0x00000000        0x0 C:\Nburn/lib/NetBurner.a(arp.o)
 .bss           0x00000000        0x0 C:\Nburn/lib/NetBurner.a(arp.o)
 .text._Z7Cleanupv
                0x00000000        0x8 C:\Nburn/lib/NetBurner.a(arp.o)
 .rodata.str1.1
                0x00000000       0x51 C:\Nburn/lib/NetBurner.a(arp.o)
 .text._Z8fShowArpP7__sFILE
                0x00000000       0xb2 C:\Nburn/lib/NetBurner.a(arp.o)
 .text._Z7ShowArpv
                0x00000000       0x9e C:\Nburn/lib/NetBurner.a(arp.o)
 .text._Z12AddStaticArpP6MACADR7IPADDR4i
                0x00000000       0x4a C:\Nburn/lib/NetBurner.a(arp.o)
 .text._Z24IsMyAddressUsedArpDetectti
                0x00000000      0x192 C:\Nburn/lib/NetBurner.a(arp.o)
 .text._Z15DeleteArpFromIp7IPADDR4
                0x00000000       0x28 C:\Nburn/lib/NetBurner.a(arp.o)
 .text._Z15GetArpMacFromIp7IPADDR4R6MACADR
                0x00000000       0x58 C:\Nburn/lib/NetBurner.a(arp.o)
 .text          0x00000000        0x0 C:\Nburn/lib/NetBurner.a(udp.o)
 .data          0x00000000        0x0 C:\Nburn/lib/NetBurner.a(udp.o)
 .bss           0x00000000        0x0 C:\Nburn/lib/NetBurner.a(udp.o)
 .text._ZN9UDPPacketC2EP7OS_FIFOm
                0x00000000       0x50 C:\Nburn/lib/NetBurner.a(udp.o)
 .text._ZN9UDPPacket4SwapERS_
                0x00000000       0x32 C:\Nburn/lib/NetBurner.a(udp.o)
 .text._ZN9UDPPacketaSERS_
                0x00000000       0x2a C:\Nburn/lib/NetBurner.a(udp.o)
 .text._ZN9UDPPacket11GetPacketIdEv
                0x00000000       0x28 C:\Nburn/lib/NetBurner.a(udp.o)
 .text._ZN9UDPPacket20GetRecievedInterfaceEv
                0x00000000       0x1e C:\Nburn/lib/NetBurner.a(udp.o)
 .text._ZN9UDPPacket11AddDataWordEt
                0x00000000       0x22 C:\Nburn/lib/NetBurner.a(udp.o)
 .text._ZN9UDPPacket11GetIpPacketEv
                0x00000000       0x1c C:\Nburn/lib/NetBurner.a(udp.o)
 .text._Z18RegisterUDPFifoViatP7OS_FIFOi
                0x00000000       0xec C:\Nburn/lib/NetBurner.a(udp.o)
 .text._Z28RegisterUDPFifoWithNotifyViatP7OS_FIFOPFvS0_tEi
                0x00000000       0xee C:\Nburn/lib/NetBurner.a(udp.o)
 .text._Z15RegisterUDPFifotP7OS_FIFO
                0x00000000       0x22 C:\Nburn/lib/NetBurner.a(udp.o)
 .text._Z25RegisterUDPFifoWithNotifytP7OS_FIFOPFvS0_tE
                0x00000000       0x26 C:\Nburn/lib/NetBurner.a(udp.o)
 .text._Z17UnregisterUDPFifotb
                0x00000000      0x120 C:\Nburn/lib/NetBurner.a(udp.o)
 .text._Z24RegisterEphemeralFifoViaP7OS_FIFOi
                0x00000000       0x66 C:\Nburn/lib/NetBurner.a(udp.o)
 .text._Z21RegisterEphemeralFifoP7OS_FIFO
                0x00000000       0x16 C:\Nburn/lib/NetBurner.a(udp.o)
 .text._Z15FixIDDataPacketR9UDPPacketi
                0x00000000       0x2a C:\Nburn/lib/NetBurner.a(udp.o)
 .text._ZN9UDPPacket15SendandKeepCopyEP11pool_buffer
                0x00000000       0x60 C:\Nburn/lib/NetBurner.a(udp.o)
 .text._ZN9UDPPacket12SendAndKeep4E7IPADDR4h
                0x00000000       0x52 C:\Nburn/lib/NetBurner.a(udp.o)
 .text._ZN9UDPPacket21SendAndKeepViaIfAddr4E7IPADDR4S0_h
                0x00000000       0x66 C:\Nburn/lib/NetBurner.a(udp.o)
 .text._ZN9UDPPacket14SendViaIfAddr4E7IPADDR4S0_h
                0x00000000       0x46 C:\Nburn/lib/NetBurner.a(udp.o)
 .text._Z24RegisterEphemeralFifoViaP7OS_FIFO7IPADDR6
                0x00000000       0x38 C:\Nburn/lib/NetBurner.a(udp.o)
 .text._Z18RegisterUDPFifoViatP7OS_FIFO7IPADDR6
                0x00000000       0x4a C:\Nburn/lib/NetBurner.a(udp.o)
 .text._Z28RegisterUDPFifoWithNotifyViatP7OS_FIFOPFvS0_tE7IPADDR6
                0x00000000       0x4e C:\Nburn/lib/NetBurner.a(udp.o)
 .text          0x00000000        0x0 C:\Nburn/lib/NetBurner.a(ftpd.o)
 .data          0x00000000        0x0 C:\Nburn/lib/NetBurner.a(ftpd.o)
 .bss           0x00000000        0x0 C:\Nburn/lib/NetBurner.a(ftpd.o)
 .text._Z13Return202Funci
                0x00000000       0x2e C:\Nburn/lib/NetBurner.a(ftpd.o)
 .text._Z11FilterMatchPKcS0_
                0x00000000        0xa C:\Nburn/lib/NetBurner.a(ftpd.o)
 .text._Z11FTPDStopReqv
                0x00000000       0x2e C:\Nburn/lib/NetBurner.a(ftpd.o)
 .text._Z16FTPD_GetFileSizePKcS0_
                0x00000000        0xa C:\Nburn/lib/NetBurner.a(ftpd.o)
 .text          0x00000000        0x0 C:\Nburn/lib/NetBurner.a(tcp.o)
 .data          0x00000000        0x0 C:\Nburn/lib/NetBurner.a(tcp.o)
 .bss           0x00000000        0x0 C:\Nburn/lib/NetBurner.a(tcp.o)
 .text._Z11GetFirstSeqv
                0x00000000       0x30 C:\Nburn/lib/NetBurner.a(tcp.o)
 .text._ZN13socket_struct8SetStateEi
                0x00000000       0x12 C:\Nburn/lib/NetBurner.a(tcp.o)
 .text._Z14getsocketerrori
                0x00000000       0x2e C:\Nburn/lib/NetBurner.a(tcp.o)
 .text._Z19GetSocketLocalAddr4i
                0x00000000       0x34 C:\Nburn/lib/NetBurner.a(tcp.o)
 .text._Z18GetSocketLocalPorti
                0x00000000       0x30 C:\Nburn/lib/NetBurner.a(tcp.o)
 .text._ZN13socket_struct22CleanUpDeletedListenerEv
                0x00000000       0x20 C:\Nburn/lib/NetBurner.a(tcp.o)
 .text._Z19setsocketackbuffersih
                0x00000000       0x42 C:\Nburn/lib/NetBurner.a(tcp.o)
 .text._Z18SetSocketRxBuffersii
                0x00000000       0x42 C:\Nburn/lib/NetBurner.a(tcp.o)
 .text._Z18SetSocketTxBuffersii
                0x00000000       0x42 C:\Nburn/lib/NetBurner.a(tcp.o)
 .text._Z23RemoveFromUserCloseListP13socket_struct
                0x00000000       0x30 C:\Nburn/lib/NetBurner.a(tcp.o)
 .text._ZN13socket_struct14ShowSocketInfoEv
                0x00000000      0xa6a C:\Nburn/lib/NetBurner.a(tcp.o)
 .text._ZN13socket_struct14ShowSocketInfoEb
                0x00000000       0x52 C:\Nburn/lib/NetBurner.a(tcp.o)
 .text._Z12DumpTcpDebugv
                0x00000000        0x8 C:\Nburn/lib/NetBurner.a(tcp.o)
 .text._Z14EnableTcpDebugt
                0x00000000        0x8 C:\Nburn/lib/NetBurner.a(tcp.o)
 .text._Z13DumpTcpPacketP5IPPKT
                0x00000000        0x8 C:\Nburn/lib/NetBurner.a(tcp.o)
 .text._ZN14HashSocketListC2Ev
                0x00000000        0x8 C:\Nburn/lib/NetBurner.a(tcp.o)
 .text._ZNK14HashSocketList4InitEv
                0x00000000       0x18 C:\Nburn/lib/NetBurner.a(tcp.o)
 .text._ZNK15ShortSocketList9FreeShortEP11ShortSocket
                0x00000000       0x48 C:\Nburn/lib/NetBurner.a(tcp.o)
 .text._ZN15ShortSocketListC2Ev
                0x00000000       0x1a C:\Nburn/lib/NetBurner.a(tcp.o)
 .text._ZN15ShortSocketList4InitEv
                0x00000000       0x3a C:\Nburn/lib/NetBurner.a(tcp.o)
 .text._Z11GetTcpStatei
                0x00000000       0x36 C:\Nburn/lib/NetBurner.a(tcp.o)
 .text._Z21RegisterTCPReadNotifyiPFviE
                0x00000000       0x2c C:\Nburn/lib/NetBurner.a(tcp.o)
 .text._Z14GetTcpRtxCounti
                0x00000000       0x74 C:\Nburn/lib/NetBurner.a(tcp.o)
 .text._Z20SetOutOfOrderbuffersih
                0x00000000       0x3e C:\Nburn/lib/NetBurner.a(tcp.o)
 .text._Z16TcpGetLastRxTimei
                0x00000000       0x2e C:\Nburn/lib/NetBurner.a(tcp.o)
 .text._Z15ShowFdTcpSocketi
                0x00000000      0x2be C:\Nburn/lib/NetBurner.a(tcp.o)
 .text._Z18GetFreeSocketCountv
                0x00000000       0x64 C:\Nburn/lib/NetBurner.a(tcp.o)
 .text._Z17TcpGetSocketStatei
                0x00000000       0x30 C:\Nburn/lib/NetBurner.a(tcp.o)
 .text._Z20TcpGetLastRxIntervali
                0x00000000       0x3e C:\Nburn/lib/NetBurner.a(tcp.o)
 .text._Z23TcpGetRxBufferSpaceUsedi
                0x00000000       0x32 C:\Nburn/lib/NetBurner.a(tcp.o)
 .text._Z24TcpGetTxBufferAvailSpacei
                0x00000000       0x32 C:\Nburn/lib/NetBurner.a(tcp.o)
 .text._Z15TcpAllDataAckedi
                0x00000000       0x44 C:\Nburn/lib/NetBurner.a(tcp.o)
 .text._Z18WaitForSocketFlushim
                0x00000000       0x80 C:\Nburn/lib/NetBurner.a(tcp.o)
 .text._ZN16TcpCarrierPacket20GetDestinationIpHashEv
                0x00000000       0x1a C:\Nburn/lib/NetBurner.a(tcp.o)
 .text._ZN16TcpCarrierPacket15GetSourceIpHashEv
                0x00000000       0x1a C:\Nburn/lib/NetBurner.a(tcp.o)
 .text._ZN16TcpCarrierPacket9GetDefMssERK7IPADDR6
                0x00000000       0x26 C:\Nburn/lib/NetBurner.a(tcp.o)
 .text._ZN16TcpCarrierPacketC2ER25IPv6FrameProcessingStruct
                0x00000000        0xc C:\Nburn/lib/NetBurner.a(tcp.o)
 .text._Z6BeToLet
                0x00000000       0x1c C:\Nburn/lib/NetBurner.a(tcp.o)
 .text._Z6BeToLem
                0x00000000       0x24 C:\Nburn/lib/NetBurner.a(tcp.o)
 .text._Z6BeToLes
                0x00000000       0x1c C:\Nburn/lib/NetBurner.a(tcp.o)
 .text._Z6BeToLel
                0x00000000       0x24 C:\Nburn/lib/NetBurner.a(tcp.o)
 .text._Z6BeToLef
                0x00000000       0x24 C:\Nburn/lib/NetBurner.a(tcp.o)
 .text._Z6BeToLed
                0x00000000       0x40 C:\Nburn/lib/NetBurner.a(tcp.o)
 .text._ZN16TcpCarrierPacketC2Eb
                0x00000000       0x26 C:\Nburn/lib/NetBurner.a(tcp.o)
 .text._ZN16TcpCarrierPacket15SetOutBoundSizeEt
                0x00000000       0x36 C:\Nburn/lib/NetBurner.a(tcp.o)
 .text._Z9listenvia7IPADDR6thi
                0x00000000      0x120 C:\Nburn/lib/NetBurner.a(tcp.o)
 .text._Z16TcpSendKeepAlivei
                0x00000000       0x84 C:\Nburn/lib/NetBurner.a(tcp.o)
 .text._Z18NoBlockconnectvia47IPADDR4ttS_
                0x00000000       0xaa C:\Nburn/lib/NetBurner.a(tcp.o)
 .text._Z15NoBlockConnect47IPADDR4ttS_
                0x00000000       0x90 C:\Nburn/lib/NetBurner.a(tcp.o)
 .text._Z15NoBlockConnect6RK7IPADDR6ttS1_
                0x00000000       0x80 C:\Nburn/lib/NetBurner.a(tcp.o)
 .text._Z8connect6RK7IPADDR6ttmS1_
                0x00000000      0x12a C:\Nburn/lib/NetBurner.a(tcp.o)
 .text._Z8connect6RK7IPADDR6ttm
                0x00000000       0x42 C:\Nburn/lib/NetBurner.a(tcp.o)
 .text._Z9listenvia7IPADDR6thS_
                0x00000000       0xca C:\Nburn/lib/NetBurner.a(tcp.o)
 .text._Z18GetSocketInterfacei
                0x00000000       0x5e C:\Nburn/lib/NetBurner.a(tcp.o)
 .text          0x00000000        0x0 C:\Nburn/lib/NetBurner.a(extraio.o)
 .data          0x00000000        0x0 C:\Nburn/lib/NetBurner.a(extraio.o)
 .bss           0x00000000        0x0 C:\Nburn/lib/NetBurner.a(extraio.o)
 .text._Z10InitExtrasv
                0x00000000       0x3a C:\Nburn/lib/NetBurner.a(extraio.o)
 .text._Z12GetExtraDatai
                0x00000000       0x28 C:\Nburn/lib/NetBurner.a(extraio.o)
 .text._Z12SetExtraDataiPv
                0x00000000       0x26 C:\Nburn/lib/NetBurner.a(extraio.o)
 .text._Z17GetExtraExtraDatai
                0x00000000       0x2c C:\Nburn/lib/NetBurner.a(extraio.o)
 .text._Z19GetFreeExtraFDCountv
                0x00000000       0x36 C:\Nburn/lib/NetBurner.a(extraio.o)
 .text          0x00000000        0x0 C:\Nburn/lib/NetBurner.a(http.o)
 .data          0x00000000        0x0 C:\Nburn/lib/NetBurner.a(http.o)
 .bss           0x00000000        0x0 C:\Nburn/lib/NetBurner.a(http.o)
 .text          0x00000000        0x0 C:\Nburn/lib/NetBurner.a(httpinternal.o)
 .data          0x00000000        0x0 C:\Nburn/lib/NetBurner.a(httpinternal.o)
 .bss           0x00000000        0x0 C:\Nburn/lib/NetBurner.a(httpinternal.o)
 .text._Z14SendHTMLHeaderi
                0x00000000       0x1a C:\Nburn/lib/NetBurner.a(httpinternal.o)
 .text._Z14SendTextHeaderi
                0x00000000       0x1a C:\Nburn/lib/NetBurner.a(httpinternal.o)
 .text._Z13SendGifHeaderi
                0x00000000       0x1a C:\Nburn/lib/NetBurner.a(httpinternal.o)
 .text._Z8StopHTTPv
                0x00000000        0x8 C:\Nburn/lib/NetBurner.a(httpinternal.o)
 .text._Z6appendRPcPKc
                0x00000000       0x26 C:\Nburn/lib/NetBurner.a(httpinternal.o)
 .text._Z21SendHTMLHeaderWCookieiPc
                0x00000000       0x4a C:\Nburn/lib/NetBurner.a(httpinternal.o)
 .text._Z18writeallsafestringiPKc
                0x00000000      0x102 C:\Nburn/lib/NetBurner.a(httpinternal.o)
 .text._Z11alnumToBytec
                0x00000000       0x68 C:\Nburn/lib/NetBurner.a(httpinternal.o)
 .text._Z9decodeURIPc
                0x00000000      0x152 C:\Nburn/lib/NetBurner.a(httpinternal.o)
 .text._Z20NotAvailableResponseiPKc
                0x00000000       0x50 C:\Nburn/lib/NetBurner.a(httpinternal.o)
 .text._Z18BadRequestResponseiPKcS0_
                0x00000000       0x66 C:\Nburn/lib/NetBurner.a(httpinternal.o)
 .text._Z15ExtractPostDataPKcS0_Pci
                0x00000000      0x1b0 C:\Nburn/lib/NetBurner.a(httpinternal.o)
 .text._Z17SetNewPostHandlerPFiiPcS_S_E
                0x00000000       0x18 C:\Nburn/lib/NetBurner.a(httpinternal.o)
 .text._Z15SetNewWSHandlerPFiP12HTTP_RequestiPcS1_E
                0x00000000       0x18 C:\Nburn/lib/NetBurner.a(httpinternal.o)
 .text._Z16SetNewGetHandlerPFiiPcS_E
                0x00000000       0x18 C:\Nburn/lib/NetBurner.a(httpinternal.o)
 .text._Z17SetNewHeadHandlerPFiiPcS_E
                0x00000000       0x18 C:\Nburn/lib/NetBurner.a(httpinternal.o)
 .text._Z22SetNewMultiPartHandlerPFiiPcS_S_mE
                0x00000000       0x18 C:\Nburn/lib/NetBurner.a(httpinternal.o)
 .text._Z29SetNewMultiPartExtractHandlerPFiPKcS0_PciE
                0x00000000       0x18 C:\Nburn/lib/NetBurner.a(httpinternal.o)
 .text._Z18SetNewErrorHandlerPFi7IPADDR610eWEB_ERRORPvE
                0x00000000       0x18 C:\Nburn/lib/NetBurner.a(httpinternal.o)
 .bss.tip_buffer
                0x00000000       0x50 C:\Nburn/lib/NetBurner.a(httpinternal.o)
 .bss.TheMultipartExtractHandler
                0x00000000        0x4 C:\Nburn/lib/NetBurner.a(httpinternal.o)
 .text          0x00000000        0x0 C:\Nburn/lib/NetBurner.a(httpstricmp.o)
 .data          0x00000000        0x0 C:\Nburn/lib/NetBurner.a(httpstricmp.o)
 .bss           0x00000000        0x0 C:\Nburn/lib/NetBurner.a(httpstricmp.o)
 .text          0x00000000        0x0 C:\Nburn/lib/NetBurner.a(htmldecomp.o)
 .data          0x00000000        0x0 C:\Nburn/lib/NetBurner.a(htmldecomp.o)
 .bss           0x00000000        0x0 C:\Nburn/lib/NetBurner.a(htmldecomp.o)
 .text._Z14SendCompressediPci
                0x00000000        0xc C:\Nburn/lib/NetBurner.a(htmldecomp.o)
 .text._Z13SendXMLHeaderi
                0x00000000       0x1a C:\Nburn/lib/NetBurner.a(htmldecomp.o)
 .text._Z10SendHeaderiPKcm
                0x00000000       0x20 C:\Nburn/lib/NetBurner.a(htmldecomp.o)
 .text._Z17SendEmailResponseiPKcS0_
                0x00000000      0x1ac C:\Nburn/lib/NetBurner.a(htmldecomp.o)
 .text._Z16SendFileFragmentPKciS0_
                0x00000000       0x76 C:\Nburn/lib/NetBurner.a(htmldecomp.o)
 .text          0x00000000        0x0 C:\Nburn/lib/NetBurner.a(iosys.o)
 .data          0x00000000        0x0 C:\Nburn/lib/NetBurner.a(iosys.o)
 .bss           0x00000000        0x0 C:\Nburn/lib/NetBurner.a(iosys.o)
 .text._Z10FD_OVERLAPP6fd_setS0_
                0x00000000       0x38 C:\Nburn/lib/NetBurner.a(iosys.o)
 .text.FD_CLR   0x00000000       0x28 C:\Nburn/lib/NetBurner.a(iosys.o)
 .text._Z11countdwbitsm
                0x00000000       0x1c C:\Nburn/lib/NetBurner.a(iosys.o)
 .text._Z9countbitsP6fd_set
                0x00000000       0x3a C:\Nburn/lib/NetBurner.a(iosys.o)
 .text._Z15FD_SELECT_COUNTR6fd_setS0_
                0x00000000       0x42 C:\Nburn/lib/NetBurner.a(iosys.o)
 .text.dataavail
                0x00000000       0x4e C:\Nburn/lib/NetBurner.a(iosys.o)
 .text          0x00000000        0x0 C:\Nburn/lib/NetBurner.a(new_ops.o)
 .data          0x00000000        0x0 C:\Nburn/lib/NetBurner.a(new_ops.o)
 .bss           0x00000000        0x0 C:\Nburn/lib/NetBurner.a(new_ops.o)
 .text          0x00000000        0x0 C:\Nburn/lib/NetBurner.a(autoip.o)
 .data          0x00000000        0x0 C:\Nburn/lib/NetBurner.a(autoip.o)
 .bss           0x00000000        0x0 C:\Nburn/lib/NetBurner.a(autoip.o)
 .text._ZN12AutoIPClientD2Ev
                0x00000000       0x82 C:\Nburn/lib/NetBurner.a(autoip.o)
 .text._ZN12AutoIPClient5startEv
                0x00000000       0x42 C:\Nburn/lib/NetBurner.a(autoip.o)
 .text._ZN12AutoIPClient4stopEv
                0x00000000       0x38 C:\Nburn/lib/NetBurner.a(autoip.o)
 .text._ZN12AutoIPClient7restartEv
                0x00000000       0x6e C:\Nburn/lib/NetBurner.a(autoip.o)
 .text._ZN12AutoIPClient8getStateEv
                0x00000000       0x10 C:\Nburn/lib/NetBurner.a(autoip.o)
 .text._ZN12AutoIPClient9tickDelayEi
                0x00000000       0x28 C:\Nburn/lib/NetBurner.a(autoip.o)
 .text          0x00000000        0x0 C:\Nburn/lib/NetBurner.a(dhcpc.o)
 .data          0x00000000        0x0 C:\Nburn/lib/NetBurner.a(dhcpc.o)
 .bss           0x00000000        0x0 C:\Nburn/lib/NetBurner.a(dhcpc.o)
 .text._ZN11DHCPMessageC2Ev
                0x00000000       0x42 C:\Nburn/lib/NetBurner.a(dhcpc.o)
 .text._ZN11DHCPMessageC2EPh
                0x00000000       0x1e C:\Nburn/lib/NetBurner.a(dhcpc.o)
 .text._ZN11DHCPMessage11CreateReplyEmm
                0x00000000       0x2e C:\Nburn/lib/NetBurner.a(dhcpc.o)
 .text._ZN11DHCPMessage12ClearOptionsEv
                0x00000000       0x36 C:\Nburn/lib/NetBurner.a(dhcpc.o)
 .text._ZN11DHCPMessage10ResetBytesEv
                0x00000000       0x42 C:\Nburn/lib/NetBurner.a(dhcpc.o)
 .text._ZN11DHCPMessage12SetRandomXidEv
                0x00000000       0x3a C:\Nburn/lib/NetBurner.a(dhcpc.o)
 .text._ZN11DHCPMessage13GetOptionDataEhRi
                0x00000000       0x76 C:\Nburn/lib/NetBurner.a(dhcpc.o)
 .text._ZN11DHCPMessage13GetOptionDataEh
                0x00000000       0x68 C:\Nburn/lib/NetBurner.a(dhcpc.o)
 .text._Z13CompareChaddrPhS_
                0x00000000       0x30 C:\Nburn/lib/NetBurner.a(dhcpc.o)
 .text._ZN11DHCPMessage13SendServerMsgE7IPADDR4i
                0x00000000       0x7c C:\Nburn/lib/NetBurner.a(dhcpc.o)
 .text._Z12ValidDhcpMsgPh
                0x00000000       0x46 C:\Nburn/lib/NetBurner.a(dhcpc.o)
 .text._ZN10DhcpObject9StopBOOTPEv
                0x00000000       0x12 C:\Nburn/lib/NetBurner.a(dhcpc.o)
 .text._ZN10DhcpObject12GetDHCPStateEv
                0x00000000        0xe C:\Nburn/lib/NetBurner.a(dhcpc.o)
 .text._ZN10DhcpObject9RenewDHCPEv
                0x00000000       0x28 C:\Nburn/lib/NetBurner.a(dhcpc.o)
 .text._ZN10DhcpObject10RebindDHCPEv
                0x00000000       0x28 C:\Nburn/lib/NetBurner.a(dhcpc.o)
 .text._ZN10DhcpObject9StartDHCPEv
                0x00000000       0x2e C:\Nburn/lib/NetBurner.a(dhcpc.o)
 .text._ZN10DhcpObject10StartBOOTPEv
                0x00000000       0x28 C:\Nburn/lib/NetBurner.a(dhcpc.o)
 .text._ZN10DhcpObject14ValidDhcpLeaseEv
                0x00000000       0x18 C:\Nburn/lib/NetBurner.a(dhcpc.o)
 .text._ZN10DhcpObject25GetRemainingDhcpLeaseTimeEv
                0x00000000       0x28 C:\Nburn/lib/NetBurner.a(dhcpc.o)
 .text._ZN10DhcpObject14StopProcessingEv
                0x00000000       0x12 C:\Nburn/lib/NetBurner.a(dhcpc.o)
 .text._ZN10DhcpObjectD2Ev
                0x00000000       0x5c C:\Nburn/lib/NetBurner.a(dhcpc.o)
 .text._Z22SetDHCPDiscoverSecondsm
                0x00000000       0x12 C:\Nburn/lib/NetBurner.a(dhcpc.o)
 .text          0x00000000        0x0 C:\Nburn/lib/NetBurner.a(netinterface.o)
 .data          0x00000000        0x0 C:\Nburn/lib/NetBurner.a(netinterface.o)
 .bss           0x00000000        0x0 C:\Nburn/lib/NetBurner.a(netinterface.o)
 .text._Z12InterfaceDNSi
                0x00000000       0x2e C:\Nburn/lib/NetBurner.a(netinterface.o)
 .text._Z13InterfaceDNS2i
                0x00000000       0x2e C:\Nburn/lib/NetBurner.a(netinterface.o)
 .text._Z13InterfaceMASKi
                0x00000000       0x2e C:\Nburn/lib/NetBurner.a(netinterface.o)
 .text._Z16GetInterfaceLinki
                0x00000000       0x36 C:\Nburn/lib/NetBurner.a(netinterface.o)
 .text._Z16DisableMulticast6MACADRi
                0x00000000       0x5e C:\Nburn/lib/NetBurner.a(netinterface.o)
 .text._Z12StopNetworksv
                0x00000000        0x8 C:\Nburn/lib/NetBurner.a(netinterface.o)
 .text._Z15Removeinterfacei
                0x00000000       0x34 C:\Nburn/lib/NetBurner.a(netinterface.o)
 .text._Z12SaveIfConfigP12ConfigRecordi
                0x00000000       0x34 C:\Nburn/lib/NetBurner.a(netinterface.o)
 .text          0x00000000        0x0 C:\Nburn/lib/NetBurner.a(taskmon.o)
 .data          0x00000000        0x0 C:\Nburn/lib/NetBurner.a(taskmon.o)
 .bss           0x00000000        0x0 C:\Nburn/lib/NetBurner.a(taskmon.o)
 .text._Z23GetUCOS_TaskStateBufferv
                0x00000000       0x68 C:\Nburn/lib/NetBurner.a(taskmon.o)
 .text          0x00000000        0x0 C:\Nburn/lib/NetBurner.a(smarttrap.o)
 .data          0x00000000        0x0 C:\Nburn/lib/NetBurner.a(smarttrap.o)
 .bss           0x00000000        0x0 C:\Nburn/lib/NetBurner.a(smarttrap.o)
 .text._Z15Local_OutStringPKc
                0x00000000       0x30 C:\Nburn/lib/NetBurner.a(smarttrap.o)
 .text._Z8SafeReadm
                0x00000000       0x34 C:\Nburn/lib/NetBurner.a(smarttrap.o)
 .text          0x00000000        0x0 C:\Nburn/lib/NetBurner.a(autoupdate.o)
 .data          0x00000000        0x0 C:\Nburn/lib/NetBurner.a(autoupdate.o)
 .bss           0x00000000        0x0 C:\Nburn/lib/NetBurner.a(autoupdate.o)
 .text          0x00000000        0x0 C:\Nburn/lib/NetBurner.a(device.o)
 .data          0x00000000        0x0 C:\Nburn/lib/NetBurner.a(device.o)
 .bss           0x00000000        0x0 C:\Nburn/lib/NetBurner.a(device.o)
 .text._Z16DeviceGetQspiSemv
                0x00000000        0xe C:\Nburn/lib/NetBurner.a(device.o)
 .text._Z15DeviceGetI2cSemv
                0x00000000        0xe C:\Nburn/lib/NetBurner.a(device.o)
 .text          0x00000000        0x0 C:\Nburn/lib/NetBurner.a(base64.o)
 .data          0x00000000        0x0 C:\Nburn/lib/NetBurner.a(base64.o)
 .bss           0x00000000        0x0 C:\Nburn/lib/NetBurner.a(base64.o)
 .text._Z10b64io_readiPci
                0x00000000        0xa C:\Nburn/lib/NetBurner.a(base64.o)
 .text._Z12Base64DecodePKcPhS0_
                0x00000000       0xe0 C:\Nburn/lib/NetBurner.a(base64.o)
 .text._Z12Base64EncodePhiPc
                0x00000000       0xaa C:\Nburn/lib/NetBurner.a(base64.o)
 .text._Z23Base64StreamEncodeChunkPhRiPciRmS0_
                0x00000000       0xf0 C:\Nburn/lib/NetBurner.a(base64.o)
 .text._Z18Base64StreamFinishPcmi
                0x00000000       0x56 C:\Nburn/lib/NetBurner.a(base64.o)
 .text._ZN6b64ctxC2EPci
                0x00000000       0x26 C:\Nburn/lib/NetBurner.a(base64.o)
 .text._ZN6b64ctx4initEPci
                0x00000000       0x26 C:\Nburn/lib/NetBurner.a(base64.o)
 .text._ZN6b64ctx5flushEv
                0x00000000       0xa6 C:\Nburn/lib/NetBurner.a(base64.o)
 .text._ZN6b64ctx5writeEPKci
                0x00000000       0x9a C:\Nburn/lib/NetBurner.a(base64.o)
 .text._Z11b64io_writeiPKci
                0x00000000       0x4a C:\Nburn/lib/NetBurner.a(base64.o)
 .text._ZN6b64ctx5closeEv
                0x00000000       0x96 C:\Nburn/lib/NetBurner.a(base64.o)
 .text._Z11b64io_closei
                0x00000000       0x26 C:\Nburn/lib/NetBurner.a(base64.o)
 .text._ZN6b64ctx5GetFDER14IoExpandStructi
                0x00000000       0x56 C:\Nburn/lib/NetBurner.a(base64.o)
 .text._Z18Base64StreamEncodeiPhiPci
                0x00000000       0xfa C:\Nburn/lib/NetBurner.a(base64.o)
 .rodata.str1.1
                0x00000000       0x41 C:\Nburn/lib/NetBurner.a(base64.o)
 .data.EncodeString
                0x00000000        0x4 C:\Nburn/lib/NetBurner.a(base64.o)
 .debug_info    0x00000000      0xa9e C:\Nburn/lib/NetBurner.a(base64.o)
 .debug_abbrev  0x00000000      0x32f C:\Nburn/lib/NetBurner.a(base64.o)
 .debug_loc     0x00000000      0xf97 C:\Nburn/lib/NetBurner.a(base64.o)
 .debug_aranges
                0x00000000       0x88 C:\Nburn/lib/NetBurner.a(base64.o)
 .debug_ranges  0x00000000      0x108 C:\Nburn/lib/NetBurner.a(base64.o)
 .debug_line    0x00000000      0x2ff C:\Nburn/lib/NetBurner.a(base64.o)
 .debug_str     0x00000000      0x498 C:\Nburn/lib/NetBurner.a(base64.o)
 .comment       0x00000000       0x1d C:\Nburn/lib/NetBurner.a(base64.o)
 .debug_frame   0x00000000      0x1c8 C:\Nburn/lib/NetBurner.a(base64.o)
 .text          0x00000000        0x0 C:\Nburn/lib/NetBurner.a(nbiprintf.o)
 .data          0x00000000        0x0 C:\Nburn/lib/NetBurner.a(nbiprintf.o)
 .bss           0x00000000        0x0 C:\Nburn/lib/NetBurner.a(nbiprintf.o)
 .text._Z7FillHexPcm
                0x00000000       0x2e C:\Nburn/lib/NetBurner.a(nbiprintf.o)
 .text._Z7IsInRamPv
                0x00000000       0x3a C:\Nburn/lib/NetBurner.a(nbiprintf.o)
 .text          0x00000000        0x0 C:\Nburn/lib/NetBurner.a(nbprintf.o)
 .data          0x00000000        0x0 C:\Nburn/lib/NetBurner.a(nbprintf.o)
 .bss           0x00000000        0x0 C:\Nburn/lib/NetBurner.a(nbprintf.o)
 .text          0x00000000        0x0 C:\Nburn/lib/NetBurner.a(nbsiprintf.o)
 .data          0x00000000        0x0 C:\Nburn/lib/NetBurner.a(nbsiprintf.o)
 .bss           0x00000000        0x0 C:\Nburn/lib/NetBurner.a(nbsiprintf.o)
 .text          0x00000000        0x0 C:\Nburn/lib/NetBurner.a(nbsprintf.o)
 .data          0x00000000        0x0 C:\Nburn/lib/NetBurner.a(nbsprintf.o)
 .bss           0x00000000        0x0 C:\Nburn/lib/NetBurner.a(nbsprintf.o)
 .text._Z12putfilecharsPvPKci
                0x00000000       0x1e C:\Nburn/lib/NetBurner.a(nbsprintf.o)
 .text._Z8pva_funcPv
                0x00000000       0x2c C:\Nburn/lib/NetBurner.a(nbsprintf.o)
 .text.snprintf
                0x00000000       0x46 C:\Nburn/lib/NetBurner.a(nbsprintf.o)
 .text.vsnprintf
                0x00000000       0x5c C:\Nburn/lib/NetBurner.a(nbsprintf.o)
 .text.vsprintf
                0x00000000       0x1e C:\Nburn/lib/NetBurner.a(nbsprintf.o)
 .text.vfiprintf
                0x00000000       0x34 C:\Nburn/lib/NetBurner.a(nbsprintf.o)
 .text.vfprintf
                0x00000000       0x40 C:\Nburn/lib/NetBurner.a(nbsprintf.o)
 .text.fprintf  0x00000000       0x28 C:\Nburn/lib/NetBurner.a(nbsprintf.o)
 .text.fiprintf
                0x00000000       0x1c C:\Nburn/lib/NetBurner.a(nbsprintf.o)
 .text          0x00000000        0x0 C:\Nburn/lib/NetBurner.a(weakumain.o)
 .data          0x00000000        0x0 C:\Nburn/lib/NetBurner.a(weakumain.o)
 .bss           0x00000000        0x0 C:\Nburn/lib/NetBurner.a(weakumain.o)
 .text          0x00000000        0x0 C:\Nburn/lib/NetBurner.a(cusermain.o)
 .data          0x00000000        0x0 C:\Nburn/lib/NetBurner.a(cusermain.o)
 .bss           0x00000000        0x0 C:\Nburn/lib/NetBurner.a(cusermain.o)
 .text          0x00000000        0x0 C:\Nburn/lib/NetBurner.a(fdprintf.o)
 .data          0x00000000        0x0 C:\Nburn/lib/NetBurner.a(fdprintf.o)
 .bss           0x00000000        0x0 C:\Nburn/lib/NetBurner.a(fdprintf.o)
 .text          0x00000000        0x0 C:\Nburn/lib/NetBurner.a(websocket_handler.o)
 .data          0x00000000        0x0 C:\Nburn/lib/NetBurner.a(websocket_handler.o)
 .bss           0x00000000        0x0 C:\Nburn/lib/NetBurner.a(websocket_handler.o)
 .text          0x00000000        0x0 C:\Nburn/lib/NetBurner.a(ipv6_addr.o)
 .data          0x00000000        0x0 C:\Nburn/lib/NetBurner.a(ipv6_addr.o)
 .bss           0x00000000        0x0 C:\Nburn/lib/NetBurner.a(ipv6_addr.o)
 .text._Z10AsciiToIp6PKc
                0x00000000       0x30 C:\Nburn/lib/NetBurner.a(ipv6_addr.o)
 .text._ZN7IPADDR619SetSolicitedNodeIP6ERKS_
                0x00000000       0x2e C:\Nburn/lib/NetBurner.a(ipv6_addr.o)
 .text._ZN7IPADDR610FromIPMaskER6MACADRRKS_i
                0x00000000       0x34 C:\Nburn/lib/NetBurner.a(ipv6_addr.o)
 .text          0x00000000        0x0 C:\Nburn/lib/NetBurner.a(ipv6_tcp.o)
 .data          0x00000000        0x0 C:\Nburn/lib/NetBurner.a(ipv6_tcp.o)
 .bss           0x00000000        0x0 C:\Nburn/lib/NetBurner.a(ipv6_tcp.o)
 .group         0x00000000        0xc C:\Nburn/lib/NetBurner.a(ipv6_ip.o)
 .group         0x00000000        0xc C:\Nburn/lib/NetBurner.a(ipv6_ip.o)
 .group         0x00000000        0xc C:\Nburn/lib/NetBurner.a(ipv6_ip.o)
 .group         0x00000000        0xc C:\Nburn/lib/NetBurner.a(ipv6_ip.o)
 .group         0x00000000        0xc C:\Nburn/lib/NetBurner.a(ipv6_ip.o)
 .group         0x00000000        0xc C:\Nburn/lib/NetBurner.a(ipv6_ip.o)
 .group         0x00000000        0x8 C:\Nburn/lib/NetBurner.a(ipv6_ip.o)
 .group         0x00000000        0x8 C:\Nburn/lib/NetBurner.a(ipv6_ip.o)
 .group         0x00000000        0x8 C:\Nburn/lib/NetBurner.a(ipv6_ip.o)
 .group         0x00000000        0x8 C:\Nburn/lib/NetBurner.a(ipv6_ip.o)
 .group         0x00000000        0x8 C:\Nburn/lib/NetBurner.a(ipv6_ip.o)
 .group         0x00000000        0x8 C:\Nburn/lib/NetBurner.a(ipv6_ip.o)
 .text          0x00000000        0x0 C:\Nburn/lib/NetBurner.a(ipv6_ip.o)
 .data          0x00000000        0x0 C:\Nburn/lib/NetBurner.a(ipv6_ip.o)
 .bss           0x00000000        0x0 C:\Nburn/lib/NetBurner.a(ipv6_ip.o)
 .text._ZN25IPv6FrameProcessingStruct25RouterHeaderParseHasErrorEPhPi
                0x00000000       0x30 C:\Nburn/lib/NetBurner.a(ipv6_ip.o)
 .text._ZN25IPv6FrameProcessingStruct15DestOptHasErrorEPhPi
                0x00000000        0xc C:\Nburn/lib/NetBurner.a(ipv6_ip.o)
 .text._Z18ValidOptionLengthsR25IPv6FrameProcessingStructi
                0x00000000       0x46 C:\Nburn/lib/NetBurner.a(ipv6_ip.o)
 .text._Z11HasSLOptionR25IPv6FrameProcessingStructi
                0x00000000       0x50 C:\Nburn/lib/NetBurner.a(ipv6_ip.o)
 .text._ZN13IPv6Interface19CalcRandomReachableEv
                0x00000000       0x4c C:\Nburn/lib/NetBurner.a(ipv6_ip.o)
 .text._ZN13IPv6Interface18ProcessIcmpUnreachER25IPv6FrameProcessingStruct
                0x00000000       0x14 C:\Nburn/lib/NetBurner.a(ipv6_ip.o)
 .text._ZN13IPv6Interface19ProcessTimeExceededER25IPv6FrameProcessingStruct
                0x00000000       0x14 C:\Nburn/lib/NetBurner.a(ipv6_ip.o)
 .text._ZN13IPv6Interface16ProcessParamProbER25IPv6FrameProcessingStruct
                0x00000000       0x14 C:\Nburn/lib/NetBurner.a(ipv6_ip.o)
 .text._ZN13IPv6Interface22GetFirst_IP6_InterfaceEv
                0x00000000        0xe C:\Nburn/lib/NetBurner.a(ipv6_ip.o)
 .text._ZN13IPv6Interface21GetNext_IP6_InterfaceEv
                0x00000000       0x1e C:\Nburn/lib/NetBurner.a(ipv6_ip.o)
 .text._ZN11IPV6_PREFIXC2Ev
                0x00000000       0x48 C:\Nburn/lib/NetBurner.a(ipv6_ip.o)
 .text._ZN13IPv6Interface12AddStaticDNSERK7IPADDR6
                0x00000000       0x70 C:\Nburn/lib/NetBurner.a(ipv6_ip.o)
 .text._ZN12IPV6_ROOT_ELD2Ev
                0x00000000        0x8 C:\Nburn/lib/NetBurner.a(ipv6_ip.o)
 .text._ZN12IPV6_ROOT_ELD0Ev
                0x00000000       0x18 C:\Nburn/lib/NetBurner.a(ipv6_ip.o)
 .text._ZN22IPV6_ROOT_EL_CONTAINER6InsertEP12IPV6_ROOT_EL
                0x00000000       0x34 C:\Nburn/lib/NetBurner.a(ipv6_ip.o)
 .text._ZN22IPV6_ROOT_EL_CONTAINER10InsertBackEP12IPV6_ROOT_EL
                0x00000000       0x48 C:\Nburn/lib/NetBurner.a(ipv6_ip.o)
 .text._ZN22IPV6_ROOT_EL_CONTAINERC2Ev
                0x00000000       0x22 C:\Nburn/lib/NetBurner.a(ipv6_ip.o)
 .text._ZN22IPV6_ROOT_EL_CONTAINER6AttachER13IPv6InterfacePKc
                0x00000000       0x16 C:\Nburn/lib/NetBurner.a(ipv6_ip.o)
 .text._ZN13IPV6_NEIGHBORC2Ev
                0x00000000       0x54 C:\Nburn/lib/NetBurner.a(ipv6_ip.o)
 .text._ZN11IPV6_PREFIX16CleanUpAndRemoveEv
                0x00000000       0x52 C:\Nburn/lib/NetBurner.a(ipv6_ip.o)
 .text._ZN13IPv6Interface19RemoveStaticAddressERK7IPADDR6
                0x00000000       0x38 C:\Nburn/lib/NetBurner.a(ipv6_ip.o)
 .text._Z23RemoveStaticIPv6AddressRK7IPADDR6i
                0x00000000       0x3e C:\Nburn/lib/NetBurner.a(ipv6_ip.o)
 .text._ZN8IPV6_DNS16CleanUpAndRemoveEv
                0x00000000       0x52 C:\Nburn/lib/NetBurner.a(ipv6_ip.o)
 .text._ZN13IPv6Interface15RemoveStaticDNSERK7IPADDR6
                0x00000000       0x34 C:\Nburn/lib/NetBurner.a(ipv6_ip.o)
 .text._ZN13IPv6Interface20RemoveDefaultGatewayERK7IPADDR6
                0x00000000       0x38 C:\Nburn/lib/NetBurner.a(ipv6_ip.o)
 .text._ZN13IPv6Interface8HasRouteERK7IPADDR6
                0x00000000       0x1a C:\Nburn/lib/NetBurner.a(ipv6_ip.o)
 .text._ZN11IPV6_PREFIX17AgeStillPreferredEv
                0x00000000       0x6e C:\Nburn/lib/NetBurner.a(ipv6_ip.o)
 .text._ZN13IPV6_NEIGHBOR16StillValidToSendEv
                0x00000000       0x30 C:\Nburn/lib/NetBurner.a(ipv6_ip.o)
 .text._ZN12IPV6_ROOT_EL12free_elementEv
                0x00000000        0x8 C:\Nburn/lib/NetBurner.a(ipv6_ip.o)
 .text._ZN13IPv6Interface12MyDNSAddressEv
                0x00000000       0x6a C:\Nburn/lib/NetBurner.a(ipv6_ip.o)
 .text._ZN11IPV6_PREFIX8PreferedEv
                0x00000000       0x3e C:\Nburn/lib/NetBurner.a(ipv6_ip.o)
 .text._Z12GetStateName18eMY_NEIGHBOR_STATE
                0x00000000       0x26 C:\Nburn/lib/NetBurner.a(ipv6_ip.o)
 .text._ZN13IPv6Interface17AddDefaultGatewayERK7IPADDR6
                0x00000000       0x6e C:\Nburn/lib/NetBurner.a(ipv6_ip.o)
 .text._ZN13IPv6Interface15SendUnreachableER25IPv6FrameProcessingStruct
                0x00000000       0x24 C:\Nburn/lib/NetBurner.a(ipv6_ip.o)
 .text._ZN13IPv6Interface20SendParameterProblemER25IPv6FrameProcessingStructii
                0x00000000       0x2a C:\Nburn/lib/NetBurner.a(ipv6_ip.o)
 .text._ZN13IPv6Interface4pingERK7IPADDR6ttti
                0x00000000      0x3fc C:\Nburn/lib/NetBurner.a(ipv6_ip.o)
 .text._Z5Ping6RK7IPADDR6ttti
                0x00000000       0x9c C:\Nburn/lib/NetBurner.a(ipv6_ip.o)
 .text._Z17Ping6ViaInterfaceRK7IPADDR6tttii
                0x00000000       0xba C:\Nburn/lib/NetBurner.a(ipv6_ip.o)
 .text._ZN13IPv6Interface16AddStaticAddressERK7IPADDR6i
                0x00000000       0xce C:\Nburn/lib/NetBurner.a(ipv6_ip.o)
 .text._Z20AddStaticIPv6AddressRK7IPADDR6i
                0x00000000       0x44 C:\Nburn/lib/NetBurner.a(ipv6_ip.o)
 .text._Z20GetLocalIPInterface6RK7IPADDR6
                0x00000000       0x22 C:\Nburn/lib/NetBurner.a(ipv6_ip.o)
 .rodata.CSWTCH.621
                0x00000000       0x14 C:\Nburn/lib/NetBurner.a(ipv6_ip.o)
 .text          0x00000000        0x0 C:\Nburn/lib/NetBurner.a(ipv6_udp.o)
 .data          0x00000000        0x0 C:\Nburn/lib/NetBurner.a(ipv6_udp.o)
 .bss           0x00000000        0x0 C:\Nburn/lib/NetBurner.a(ipv6_udp.o)
 .text._ZN9UDPPacket12SendAndKeep6ERK7IPADDR6h
                0x00000000       0x4a C:\Nburn/lib/NetBurner.a(ipv6_udp.o)
 .text._ZN9UDPPacket14SendViaIfAddr6ERK7IPADDR6S2_h
                0x00000000       0x8e C:\Nburn/lib/NetBurner.a(ipv6_udp.o)
 .text          0x00000000        0x0 C:\Nburn/lib/NetBurner.a(ipv6_printhelp.o)
 .data          0x00000000        0x0 C:\Nburn/lib/NetBurner.a(ipv6_printhelp.o)
 .bss           0x00000000        0x0 C:\Nburn/lib/NetBurner.a(ipv6_printhelp.o)
 .text          0x00000000        0x0 C:\Nburn/lib/NetBurner.a(ipv6_extensions.o)
 .data          0x00000000        0x0 C:\Nburn/lib/NetBurner.a(ipv6_extensions.o)
 .bss           0x00000000        0x0 C:\Nburn/lib/NetBurner.a(ipv6_extensions.o)
 .text          0x00000000        0x0 C:\Nburn/lib/NetBurner.a(ipv6_multicast.o)
 .data          0x00000000        0x0 C:\Nburn/lib/NetBurner.a(ipv6_multicast.o)
 .bss           0x00000000        0x0 C:\Nburn/lib/NetBurner.a(ipv6_multicast.o)
 .text._Z22RegisterMulticastFifo67IPADDR6tP7OS_FIFOi
                0x00000000      0x1ac C:\Nburn/lib/NetBurner.a(ipv6_multicast.o)
 .text._Z24UnregisterMulticastFifo67IPADDR6ti
                0x00000000      0x3d0 C:\Nburn/lib/NetBurner.a(ipv6_multicast.o)
 .group         0x00000000        0x8 C:\Nburn/lib/NetBurner.a(ipv6_show.o)
 .text          0x00000000        0x0 C:\Nburn/lib/NetBurner.a(ipv6_show.o)
 .data          0x00000000        0x0 C:\Nburn/lib/NetBurner.a(ipv6_show.o)
 .bss           0x00000000        0x0 C:\Nburn/lib/NetBurner.a(ipv6_show.o)
 .text._ZN12IPV6_ROOT_EL8ShowItemEv
                0x00000000       0x42 C:\Nburn/lib/NetBurner.a(ipv6_show.o)
 .text._ZN22IPV6_ROOT_EL_CONTAINER4ShowEv
                0x00000000       0x68 C:\Nburn/lib/NetBurner.a(ipv6_show.o)
 .text._ZN13IPv6Interface8ShowInfoEv
                0x00000000       0x80 C:\Nburn/lib/NetBurner.a(ipv6_show.o)
 .text._ZN13IPv6Interface11ShowAllInfoEv
                0x00000000       0x4c C:\Nburn/lib/NetBurner.a(ipv6_show.o)
 .text._Z15ShowIP6Countersv
                0x00000000       0xae C:\Nburn/lib/NetBurner.a(ipv6_show.o)
 .text._Z13ShowAllV6Infov
                0x00000000       0x12 C:\Nburn/lib/NetBurner.a(ipv6_show.o)
 .rodata._ZTV12IPV6_ROOT_EL
                0x00000000       0x1c C:\Nburn/lib/NetBurner.a(ipv6_show.o)
 .text          0x00000000        0x0 C:\Nburn/lib/NetBurner.a(ipv6_dhcp.o)
 .data          0x00000000        0x0 C:\Nburn/lib/NetBurner.a(ipv6_dhcp.o)
 .bss           0x00000000        0x0 C:\Nburn/lib/NetBurner.a(ipv6_dhcp.o)
 .text._ZN2NB2V66DHCPv613DHCPv6MessageC2EPNS1_12DHCP_MessageEt
                0x00000000       0x3a C:\Nburn/lib/NetBurner.a(ipv6_dhcp.o)
 .text._ZN2NB2V66DHCPv613DHCPv6MessageD2Ev
                0x00000000        0xc C:\Nburn/lib/NetBurner.a(ipv6_dhcp.o)
 .text._ZN2NB2V66DHCPv613DHCPv6Message13ReleaseBufferEv
                0x00000000       0x18 C:\Nburn/lib/NetBurner.a(ipv6_dhcp.o)
 .text._ZN2NB2V66DHCPv613DHCPv6Message9AddOptionERNS1_6OptionEt
                0x00000000       0x48 C:\Nburn/lib/NetBurner.a(ipv6_dhcp.o)
 .text._ZN2NB2V66DHCPv613DHCPv6Message14AddElapsedTimeEt
                0x00000000       0x42 C:\Nburn/lib/NetBurner.a(ipv6_dhcp.o)
 .text._ZN2NB2V66DHCPv613DHCPv6Message8AddIA_NAEmmmt
                0x00000000       0x5a C:\Nburn/lib/NetBurner.a(ipv6_dhcp.o)
 .text._ZN2NB2V66DHCPv613DHCPv6Message7SendMsgERK7IPADDR6i
                0x00000000       0x20 C:\Nburn/lib/NetBurner.a(ipv6_dhcp.o)
 .text._ZN2NB2V66DHCPv613DHCPv6Message9GetOptionENS1_9Option_IDEPNS1_6OptionE
                0x00000000       0x62 C:\Nburn/lib/NetBurner.a(ipv6_dhcp.o)
 .text._ZN2NB2V66DHCPv63Opt5IA_NA9GetOptionENS1_9Option_IDEPNS1_6OptionE
                0x00000000       0x58 C:\Nburn/lib/NetBurner.a(ipv6_dhcp.o)
 .text._ZN2NB2V66DHCPv63Opt5IA_TA9GetOptionENS1_9Option_IDEPNS1_6OptionE
                0x00000000       0x58 C:\Nburn/lib/NetBurner.a(ipv6_dhcp.o)
 .text._ZN2NB2V66DHCPv63Opt7IA_ADDR9GetOptionENS1_9Option_IDEPNS1_6OptionE
                0x00000000       0x58 C:\Nburn/lib/NetBurner.a(ipv6_dhcp.o)
 .text._ZN2NB2V66DHCPv610DHCPClientC2EP13IPv6Interface
                0x00000000       0x36 C:\Nburn/lib/NetBurner.a(ipv6_dhcp.o)
 .text._ZN2NB2V66DHCPv610DHCPClient19ProcessReply_DNSOptEP10IPV6_DHCPDPNS1_3Opt11DNS_ServersEm
                0x00000000       0x26 C:\Nburn/lib/NetBurner.a(ipv6_dhcp.o)
 .text._ZN2NB2V66DHCPv610DHCPClient13ProcessAdvertERNS1_13DHCPv6MessageE
                0x00000000       0x1a C:\Nburn/lib/NetBurner.a(ipv6_dhcp.o)
 .text._ZN2NB2V66DHCPv610DHCPClient15ProcessReconfigERNS1_13DHCPv6MessageE
                0x00000000        0x8 C:\Nburn/lib/NetBurner.a(ipv6_dhcp.o)
 .text._ZN2NB2V66DHCPv610DHCPClient15SetCurrentDelayEm
                0x00000000       0x3c C:\Nburn/lib/NetBurner.a(ipv6_dhcp.o)
 .text._ZN2NB2V66DHCPv610DHCPClient9GetNewXidEv
                0x00000000       0x1c C:\Nburn/lib/NetBurner.a(ipv6_dhcp.o)
 .text._ZN2NB2V66DHCPv610DHCPClient14GetStateStringENS2_11ClientStateE
                0x00000000       0x26 C:\Nburn/lib/NetBurner.a(ipv6_dhcp.o)
 .text._ZN2NB2V66DHCPv610DHCPClient8ShowInfoEv
                0x00000000       0x94 C:\Nburn/lib/NetBurner.a(ipv6_dhcp.o)
 .text._Z19StartDHCPv6_Soliciti
                0x00000000       0x72 C:\Nburn/lib/NetBurner.a(ipv6_dhcp.o)
 .text._Z19StartDHCPv6_InfoReqi
                0x00000000       0x72 C:\Nburn/lib/NetBurner.a(ipv6_dhcp.o)
 .rodata.CSWTCH.174
                0x00000000       0x28 C:\Nburn/lib/NetBurner.a(ipv6_dhcp.o)
 .text          0x00000000        0x0 C:\Nburn/lib/NetBurner.a(multicast.o)
 .data          0x00000000        0x0 C:\Nburn/lib/NetBurner.a(multicast.o)
 .bss           0x00000000        0x0 C:\Nburn/lib/NetBurner.a(multicast.o)
 .text._Z13SendIGMPLeave7IPADDR4i.part.1
                0x00000000      0x130 C:\Nburn/lib/NetBurner.a(multicast.o)
 .text._Z10GetIgmpPktP5IPPKT
                0x00000000       0x18 C:\Nburn/lib/NetBurner.a(multicast.o)
 .text._Z14SendIGMPBelong7IPADDR4i
                0x00000000      0x196 C:\Nburn/lib/NetBurner.a(multicast.o)
 .text._Z9MultiTickv
                0x00000000       0xde C:\Nburn/lib/NetBurner.a(multicast.o)
 .text._Z13SendIGMPLeave7IPADDR4i
                0x00000000       0x18 C:\Nburn/lib/NetBurner.a(multicast.o)
 .text._Z12GetValidIgmpP11pool_buffert
                0x00000000       0x5a C:\Nburn/lib/NetBurner.a(multicast.o)
 .text._Z9RandomMaxh
                0x00000000       0x36 C:\Nburn/lib/NetBurner.a(multicast.o)
 .text._Z12process_igmpP11pool_bufferP5IPPKTt
                0x00000000      0x1c8 C:\Nburn/lib/NetBurner.a(multicast.o)
 .text._Z13process_mcudpP11pool_bufferP5IPPKTt
                0x00000000      0x15a C:\Nburn/lib/NetBurner.a(multicast.o)
 .text._Z16MultiProcessFuncP11pool_buffert
                0x00000000       0x8a C:\Nburn/lib/NetBurner.a(multicast.o)
 .text._Z22RegisterMulticastFifo47IPADDR4tP7OS_FIFOi
                0x00000000      0x17c C:\Nburn/lib/NetBurner.a(multicast.o)
 .text._Z24UnregisterMulticastFifo47IPADDR4ti
                0x00000000      0x276 C:\Nburn/lib/NetBurner.a(multicast.o)
 .bss._ZL12nSawV1Router
                0x00000000        0x4 C:\Nburn/lib/NetBurner.a(multicast.o)
 .bss.nPendingResponse
                0x00000000        0x4 C:\Nburn/lib/NetBurner.a(multicast.o)
 .bss.MaxMultiUsed
                0x00000000        0x2 C:\Nburn/lib/NetBurner.a(multicast.o)
 .text          0x00000000        0x0 C:\Nburn/lib/NetBurner.a(random.o)
 .data          0x00000000        0x0 C:\Nburn/lib/NetBurner.a(random.o)
 .bss           0x00000000        0x0 C:\Nburn/lib/NetBurner.a(random.o)
 .text._Z11RandomValidv
                0x00000000       0x18 C:\Nburn/lib/NetBurner.a(random.o)
 .text._Z13GetRandomWordv
                0x00000000       0x30 C:\Nburn/lib/NetBurner.a(random.o)
 .text          0x00000000        0x0 C:\Nburn/lib/NetBurner.a(netrx.o)
 .data          0x00000000        0x0 C:\Nburn/lib/NetBurner.a(netrx.o)
 .bss           0x00000000        0x0 C:\Nburn/lib/NetBurner.a(netrx.o)
 .text          0x00000000        0x0 C:\Nburn/lib/NetBurner.a(nbfloatprint.o)
 .data          0x00000000        0x0 C:\Nburn/lib/NetBurner.a(nbfloatprint.o)
 .bss           0x00000000        0x0 C:\Nburn/lib/NetBurner.a(nbfloatprint.o)
 .text._Z9Get_e_lendR7pfstate
                0x00000000       0xb2 C:\Nburn/lib/NetBurner.a(nbfloatprint.o)
 .text._Z7pfdigitiPFiPvPKciES_
                0x00000000       0x32 C:\Nburn/lib/NetBurner.a(nbfloatprint.o)
 .text._Z9Get_g_lendR7pfstateR9g_counter
                0x00000000       0x70 C:\Nburn/lib/NetBurner.a(nbfloatprint.o)
 .text._Z12OutputgFloatPFiPvPKciES_dR7pfstateR9g_counter
                0x00000000       0x74 C:\Nburn/lib/NetBurner.a(nbfloatprint.o)
 .text          0x00000000        0x0 C:\Nburn/lib/NetBurner.a(fdiprintf.o)
 .data          0x00000000        0x0 C:\Nburn/lib/NetBurner.a(fdiprintf.o)
 .bss           0x00000000        0x0 C:\Nburn/lib/NetBurner.a(fdiprintf.o)
 .text._Z9fdiprintfiPKcz
                0x00000000       0x7e C:\Nburn/lib/NetBurner.a(fdiprintf.o)
 .text          0x00000000        0x0 C:\Nburn/lib/NetBurner.a(md5c.o)
 .data          0x00000000        0x0 C:\Nburn/lib/NetBurner.a(md5c.o)
 .bss           0x00000000        0x0 C:\Nburn/lib/NetBurner.a(md5c.o)
 .text._ZN7MD5_CTXC2EPmS0_PhS1_S1_
                0x00000000       0x86 C:\Nburn/lib/NetBurner.a(md5c.o)
 .text          0x00000000        0x0 c:/nburn/gcc-m68k/bin/../m68k-unknown-elf/sysroot/lib/m54455\libstdc++.a(pure.o)
 .data          0x00000000        0x0 c:/nburn/gcc-m68k/bin/../m68k-unknown-elf/sysroot/lib/m54455\libstdc++.a(pure.o)
 .bss           0x00000000        0x0 c:/nburn/gcc-m68k/bin/../m68k-unknown-elf/sysroot/lib/m54455\libstdc++.a(pure.o)
 .text.__cxa_deleted_virtual
                0x00000000       0x1e c:/nburn/gcc-m68k/bin/../m68k-unknown-elf/sysroot/lib/m54455\libstdc++.a(pure.o)
 .text          0x00000000        0x0 c:/nburn/gcc-m68k/bin/../m68k-unknown-elf/sysroot/lib/m54455\libstdc++.a(eh_terminate.o)
 .data          0x00000000        0x0 c:/nburn/gcc-m68k/bin/../m68k-unknown-elf/sysroot/lib/m54455\libstdc++.a(eh_terminate.o)
 .bss           0x00000000        0x0 c:/nburn/gcc-m68k/bin/../m68k-unknown-elf/sysroot/lib/m54455\libstdc++.a(eh_terminate.o)
 .text._ZSt13set_terminatePFvvE
                0x00000000       0x18 c:/nburn/gcc-m68k/bin/../m68k-unknown-elf/sysroot/lib/m54455\libstdc++.a(eh_terminate.o)
 .text._ZSt14set_unexpectedPFvvE
                0x00000000       0x18 c:/nburn/gcc-m68k/bin/../m68k-unknown-elf/sysroot/lib/m54455\libstdc++.a(eh_terminate.o)
 .text          0x00000000        0x0 c:/nburn/gcc-m68k/bin/../m68k-unknown-elf/sysroot/lib/m54455\libstdc++.a(del_op.o)
 .data          0x00000000        0x0 c:/nburn/gcc-m68k/bin/../m68k-unknown-elf/sysroot/lib/m54455\libstdc++.a(del_op.o)
 .bss           0x00000000        0x0 c:/nburn/gcc-m68k/bin/../m68k-unknown-elf/sysroot/lib/m54455\libstdc++.a(del_op.o)
 .text          0x00000000        0x0 c:/nburn/gcc-m68k/bin/../m68k-unknown-elf/sysroot/lib/m54455\libstdc++.a(del_ops.o)
 .data          0x00000000        0x0 c:/nburn/gcc-m68k/bin/../m68k-unknown-elf/sysroot/lib/m54455\libstdc++.a(del_ops.o)
 .bss           0x00000000        0x0 c:/nburn/gcc-m68k/bin/../m68k-unknown-elf/sysroot/lib/m54455\libstdc++.a(del_ops.o)
 .text          0x00000000        0x0 c:/nburn/gcc-m68k/bin/../m68k-unknown-elf/sysroot/lib/m54455\libstdc++.a(eh_unex_handler.o)
 .data          0x00000000        0x0 c:/nburn/gcc-m68k/bin/../m68k-unknown-elf/sysroot/lib/m54455\libstdc++.a(eh_unex_handler.o)
 .bss           0x00000000        0x0 c:/nburn/gcc-m68k/bin/../m68k-unknown-elf/sysroot/lib/m54455\libstdc++.a(eh_unex_handler.o)
 .text          0x00000000        0x0 c:/nburn/gcc-m68k/bin/../m68k-unknown-elf/sysroot/lib/m54455\libstdc++.a(eh_term_handler.o)
 .data          0x00000000        0x0 c:/nburn/gcc-m68k/bin/../m68k-unknown-elf/sysroot/lib/m54455\libstdc++.a(eh_term_handler.o)
 .bss           0x00000000        0x0 c:/nburn/gcc-m68k/bin/../m68k-unknown-elf/sysroot/lib/m54455\libstdc++.a(eh_term_handler.o)
 .text          0x00000000        0x0 c:/nburn/gcc-m68k/bin/../m68k-unknown-elf/sysroot/lib/m54455\libstdc++.a(eh_catch.o)
 .data          0x00000000        0x0 c:/nburn/gcc-m68k/bin/../m68k-unknown-elf/sysroot/lib/m54455\libstdc++.a(eh_catch.o)
 .bss           0x00000000        0x0 c:/nburn/gcc-m68k/bin/../m68k-unknown-elf/sysroot/lib/m54455\libstdc++.a(eh_catch.o)
 .text.__cxa_get_exception_ptr
                0x00000000       0x10 c:/nburn/gcc-m68k/bin/../m68k-unknown-elf/sysroot/lib/m54455\libstdc++.a(eh_catch.o)
 .text._ZSt18uncaught_exceptionv
                0x00000000       0x18 c:/nburn/gcc-m68k/bin/../m68k-unknown-elf/sysroot/lib/m54455\libstdc++.a(eh_catch.o)
 .text          0x00000000        0x0 c:/nburn/gcc-m68k/bin/../m68k-unknown-elf/sysroot/lib/m54455\libstdc++.a(eh_personality.o)
 .data          0x00000000        0x0 c:/nburn/gcc-m68k/bin/../m68k-unknown-elf/sysroot/lib/m54455\libstdc++.a(eh_personality.o)
 .bss           0x00000000        0x0 c:/nburn/gcc-m68k/bin/../m68k-unknown-elf/sysroot/lib/m54455\libstdc++.a(eh_personality.o)
 .group         0x00000000        0x8 c:/nburn/gcc-m68k/bin/../m68k-unknown-elf/sysroot/lib/m54455\libstdc++.a(eh_exception.o)
 .group         0x00000000        0x8 c:/nburn/gcc-m68k/bin/../m68k-unknown-elf/sysroot/lib/m54455\libstdc++.a(eh_exception.o)
 .group         0x00000000        0x8 c:/nburn/gcc-m68k/bin/../m68k-unknown-elf/sysroot/lib/m54455\libstdc++.a(eh_exception.o)
 .group         0x00000000        0x8 c:/nburn/gcc-m68k/bin/../m68k-unknown-elf/sysroot/lib/m54455\libstdc++.a(eh_exception.o)
 .group         0x00000000        0x8 c:/nburn/gcc-m68k/bin/../m68k-unknown-elf/sysroot/lib/m54455\libstdc++.a(eh_exception.o)
 .group         0x00000000        0x8 c:/nburn/gcc-m68k/bin/../m68k-unknown-elf/sysroot/lib/m54455\libstdc++.a(eh_exception.o)
 .group         0x00000000        0x8 c:/nburn/gcc-m68k/bin/../m68k-unknown-elf/sysroot/lib/m54455\libstdc++.a(eh_exception.o)
 .group         0x00000000        0x8 c:/nburn/gcc-m68k/bin/../m68k-unknown-elf/sysroot/lib/m54455\libstdc++.a(eh_exception.o)
 .group         0x00000000        0x8 c:/nburn/gcc-m68k/bin/../m68k-unknown-elf/sysroot/lib/m54455\libstdc++.a(eh_exception.o)
 .group         0x00000000        0x8 c:/nburn/gcc-m68k/bin/../m68k-unknown-elf/sysroot/lib/m54455\libstdc++.a(eh_exception.o)
 .group         0x00000000        0x8 c:/nburn/gcc-m68k/bin/../m68k-unknown-elf/sysroot/lib/m54455\libstdc++.a(eh_exception.o)
 .group         0x00000000        0x8 c:/nburn/gcc-m68k/bin/../m68k-unknown-elf/sysroot/lib/m54455\libstdc++.a(eh_exception.o)
 .text          0x00000000        0x0 c:/nburn/gcc-m68k/bin/../m68k-unknown-elf/sysroot/lib/m54455\libstdc++.a(eh_exception.o)
 .data          0x00000000        0x0 c:/nburn/gcc-m68k/bin/../m68k-unknown-elf/sysroot/lib/m54455\libstdc++.a(eh_exception.o)
 .bss           0x00000000        0x0 c:/nburn/gcc-m68k/bin/../m68k-unknown-elf/sysroot/lib/m54455\libstdc++.a(eh_exception.o)
 .text._ZNSt9exceptionD2Ev
                0x00000000        0x8 c:/nburn/gcc-m68k/bin/../m68k-unknown-elf/sysroot/lib/m54455\libstdc++.a(eh_exception.o)
 .text._ZNKSt9exception4whatEv
                0x00000000        0xe c:/nburn/gcc-m68k/bin/../m68k-unknown-elf/sysroot/lib/m54455\libstdc++.a(eh_exception.o)
 .text._ZNSt9exceptionD0Ev
                0x00000000        0xc c:/nburn/gcc-m68k/bin/../m68k-unknown-elf/sysroot/lib/m54455\libstdc++.a(eh_exception.o)
 .text._ZN10__cxxabiv115__forced_unwindD2Ev
                0x00000000        0x8 c:/nburn/gcc-m68k/bin/../m68k-unknown-elf/sysroot/lib/m54455\libstdc++.a(eh_exception.o)
 .text._ZN10__cxxabiv115__forced_unwindD0Ev
                0x00000000        0xc c:/nburn/gcc-m68k/bin/../m68k-unknown-elf/sysroot/lib/m54455\libstdc++.a(eh_exception.o)
 .text._ZN10__cxxabiv119__foreign_exceptionD2Ev
                0x00000000        0x8 c:/nburn/gcc-m68k/bin/../m68k-unknown-elf/sysroot/lib/m54455\libstdc++.a(eh_exception.o)
 .text._ZN10__cxxabiv119__foreign_exceptionD0Ev
                0x00000000        0xc c:/nburn/gcc-m68k/bin/../m68k-unknown-elf/sysroot/lib/m54455\libstdc++.a(eh_exception.o)
 .rodata._ZTVSt9exception
                0x00000000       0x14 c:/nburn/gcc-m68k/bin/../m68k-unknown-elf/sysroot/lib/m54455\libstdc++.a(eh_exception.o)
 .rodata._ZTVN10__cxxabiv115__forced_unwindE
                0x00000000       0x14 c:/nburn/gcc-m68k/bin/../m68k-unknown-elf/sysroot/lib/m54455\libstdc++.a(eh_exception.o)
 .rodata._ZTVN10__cxxabiv119__foreign_exceptionE
                0x00000000       0x14 c:/nburn/gcc-m68k/bin/../m68k-unknown-elf/sysroot/lib/m54455\libstdc++.a(eh_exception.o)
 .text          0x00000000        0x0 c:/nburn/gcc-m68k/bin/../m68k-unknown-elf/sysroot/lib/m54455\libstdc++.a(eh_globals.o)
 .data          0x00000000        0x0 c:/nburn/gcc-m68k/bin/../m68k-unknown-elf/sysroot/lib/m54455\libstdc++.a(eh_globals.o)
 .bss           0x00000000        0x0 c:/nburn/gcc-m68k/bin/../m68k-unknown-elf/sysroot/lib/m54455\libstdc++.a(eh_globals.o)
 .text          0x00000000        0x0 c:/nburn/gcc-m68k/bin/../m68k-unknown-elf/sysroot/lib/m54455\libstdc++.a(vterminate.o)
 .data          0x00000000        0x0 c:/nburn/gcc-m68k/bin/../m68k-unknown-elf/sysroot/lib/m54455\libstdc++.a(vterminate.o)
 .bss           0x00000000        0x0 c:/nburn/gcc-m68k/bin/../m68k-unknown-elf/sysroot/lib/m54455\libstdc++.a(vterminate.o)
 .text          0x00000000        0x0 c:/nburn/gcc-m68k/bin/../m68k-unknown-elf/sysroot/lib/m54455\libstdc++.a(eh_alloc.o)
 .data          0x00000000        0x0 c:/nburn/gcc-m68k/bin/../m68k-unknown-elf/sysroot/lib/m54455\libstdc++.a(eh_alloc.o)
 .bss           0x00000000        0x0 c:/nburn/gcc-m68k/bin/../m68k-unknown-elf/sysroot/lib/m54455\libstdc++.a(eh_alloc.o)
 .text.__cxa_allocate_dependent_exception
                0x00000000       0x44 c:/nburn/gcc-m68k/bin/../m68k-unknown-elf/sysroot/lib/m54455\libstdc++.a(eh_alloc.o)
 .text.__cxa_free_dependent_exception
                0x00000000       0x34 c:/nburn/gcc-m68k/bin/../m68k-unknown-elf/sysroot/lib/m54455\libstdc++.a(eh_alloc.o)
 .data          0x00000000        0x0 c:/nburn/gcc-m68k/bin/../m68k-unknown-elf/sysroot/lib/m54455\libstdc++.a(cp-demangle.o)
 .bss           0x00000000        0x0 c:/nburn/gcc-m68k/bin/../m68k-unknown-elf/sysroot/lib/m54455\libstdc++.a(cp-demangle.o)
 .text          0x00000000        0x0 c:/nburn/gcc-m68k/bin/../m68k-unknown-elf/sysroot/lib/m54455\libstdc++.a(eh_throw.o)
 .data          0x00000000        0x0 c:/nburn/gcc-m68k/bin/../m68k-unknown-elf/sysroot/lib/m54455\libstdc++.a(eh_throw.o)
 .bss           0x00000000        0x0 c:/nburn/gcc-m68k/bin/../m68k-unknown-elf/sysroot/lib/m54455\libstdc++.a(eh_throw.o)
 .text          0x00000000        0x0 c:/nburn/gcc-m68k/bin/../m68k-unknown-elf/sysroot/lib/m54455\libstdc++.a(eh_type.o)
 .data          0x00000000        0x0 c:/nburn/gcc-m68k/bin/../m68k-unknown-elf/sysroot/lib/m54455\libstdc++.a(eh_type.o)
 .bss           0x00000000        0x0 c:/nburn/gcc-m68k/bin/../m68k-unknown-elf/sysroot/lib/m54455\libstdc++.a(eh_type.o)
 .group         0x00000000        0x8 c:/nburn/gcc-m68k/bin/../m68k-unknown-elf/sysroot/lib/m54455\libstdc++.a(si_class_type_info.o)
 .group         0x00000000        0x8 c:/nburn/gcc-m68k/bin/../m68k-unknown-elf/sysroot/lib/m54455\libstdc++.a(si_class_type_info.o)
 .group         0x00000000        0x8 c:/nburn/gcc-m68k/bin/../m68k-unknown-elf/sysroot/lib/m54455\libstdc++.a(si_class_type_info.o)
 .text          0x00000000        0x0 c:/nburn/gcc-m68k/bin/../m68k-unknown-elf/sysroot/lib/m54455\libstdc++.a(si_class_type_info.o)
 .data          0x00000000        0x0 c:/nburn/gcc-m68k/bin/../m68k-unknown-elf/sysroot/lib/m54455\libstdc++.a(si_class_type_info.o)
 .bss           0x00000000        0x0 c:/nburn/gcc-m68k/bin/../m68k-unknown-elf/sysroot/lib/m54455\libstdc++.a(si_class_type_info.o)
 .text          0x00000000        0x0 c:/nburn/gcc-m68k/bin/../m68k-unknown-elf/sysroot/lib/m54455\libstdc++.a(eh_call.o)
 .data          0x00000000        0x0 c:/nburn/gcc-m68k/bin/../m68k-unknown-elf/sysroot/lib/m54455\libstdc++.a(eh_call.o)
 .bss           0x00000000        0x0 c:/nburn/gcc-m68k/bin/../m68k-unknown-elf/sysroot/lib/m54455\libstdc++.a(eh_call.o)
 .group         0x00000000        0x8 c:/nburn/gcc-m68k/bin/../m68k-unknown-elf/sysroot/lib/m54455\libstdc++.a(class_type_info.o)
 .group         0x00000000        0x8 c:/nburn/gcc-m68k/bin/../m68k-unknown-elf/sysroot/lib/m54455\libstdc++.a(class_type_info.o)
 .group         0x00000000        0x8 c:/nburn/gcc-m68k/bin/../m68k-unknown-elf/sysroot/lib/m54455\libstdc++.a(class_type_info.o)
 .text          0x00000000        0x0 c:/nburn/gcc-m68k/bin/../m68k-unknown-elf/sysroot/lib/m54455\libstdc++.a(class_type_info.o)
 .data          0x00000000        0x0 c:/nburn/gcc-m68k/bin/../m68k-unknown-elf/sysroot/lib/m54455\libstdc++.a(class_type_info.o)
 .bss           0x00000000        0x0 c:/nburn/gcc-m68k/bin/../m68k-unknown-elf/sysroot/lib/m54455\libstdc++.a(class_type_info.o)
 .group         0x00000000        0x8 c:/nburn/gcc-m68k/bin/../m68k-unknown-elf/sysroot/lib/m54455\libstdc++.a(tinfo.o)
 .group         0x00000000        0x8 c:/nburn/gcc-m68k/bin/../m68k-unknown-elf/sysroot/lib/m54455\libstdc++.a(tinfo.o)
 .group         0x00000000        0x8 c:/nburn/gcc-m68k/bin/../m68k-unknown-elf/sysroot/lib/m54455\libstdc++.a(tinfo.o)
 .text          0x00000000        0x0 c:/nburn/gcc-m68k/bin/../m68k-unknown-elf/sysroot/lib/m54455\libstdc++.a(tinfo.o)
 .data          0x00000000        0x0 c:/nburn/gcc-m68k/bin/../m68k-unknown-elf/sysroot/lib/m54455\libstdc++.a(tinfo.o)
 .bss           0x00000000        0x0 c:/nburn/gcc-m68k/bin/../m68k-unknown-elf/sysroot/lib/m54455\libstdc++.a(tinfo.o)
 .text._ZNKSt9type_info11__do_upcastEPKN10__cxxabiv117__class_type_infoEPPv
                0x00000000        0xa c:/nburn/gcc-m68k/bin/../m68k-unknown-elf/sysroot/lib/m54455\libstdc++.a(tinfo.o)
 .text._ZNSt9type_infoD0Ev
                0x00000000        0xc c:/nburn/gcc-m68k/bin/../m68k-unknown-elf/sysroot/lib/m54455\libstdc++.a(tinfo.o)
 .text._ZNKSt9type_info10__do_catchEPKS_PPvj
                0x00000000       0x44 c:/nburn/gcc-m68k/bin/../m68k-unknown-elf/sysroot/lib/m54455\libstdc++.a(tinfo.o)
 .rodata._ZTVSt9type_info
                0x00000000       0x20 c:/nburn/gcc-m68k/bin/../m68k-unknown-elf/sysroot/lib/m54455\libstdc++.a(tinfo.o)
 .text          0x00000000        0x0 C:\Nburn/lib/NANO54415.a(ethernet.o)
 .data          0x00000000        0x0 C:\Nburn/lib/NANO54415.a(ethernet.o)
 .bss           0x00000000        0x0 C:\Nburn/lib/NANO54415.a(ethernet.o)
 .text._ZN12EthernetVars15ProcessRxBufferEP11pool_buffer
                0x00000000       0x24 C:\Nburn/lib/NANO54415.a(ethernet.o)
 .text._ZN12EthernetVars6GetMIIEhh
                0x00000000       0x80 C:\Nburn/lib/NANO54415.a(ethernet.o)
 .text._ZN12EthernetVars6SetMIIEhht
                0x00000000       0x84 C:\Nburn/lib/NANO54415.a(ethernet.o)
 .text._ZN12EthernetVars20ManualEthernetConfigEhhh.part.4
                0x00000000       0xa0 C:\Nburn/lib/NANO54415.a(ethernet.o)
 .text._ZN12EthernetVars20ManualEthernetConfigEhhh
                0x00000000       0x4a C:\Nburn/lib/NANO54415.a(ethernet.o)
 .text._ZN12EthernetVars14SetPromiscuousEh
                0x00000000       0x40 C:\Nburn/lib/NANO54415.a(ethernet.o)
 .text._ZN12EthernetVars10DisablePHYEv
                0x00000000      0x148 C:\Nburn/lib/NANO54415.a(ethernet.o)
 .text._ZN12EthernetVars9EnablePHYEv
                0x00000000      0x120 C:\Nburn/lib/NANO54415.a(ethernet.o)
 .text._Z9EtherLinkv
                0x00000000       0x3c C:\Nburn/lib/NANO54415.a(ethernet.o)
 .text._Z11EtherDuplexv
                0x00000000       0x3c C:\Nburn/lib/NANO54415.a(ethernet.o)
 .text._Z13EtherSpeed100v
                0x00000000       0x3c C:\Nburn/lib/NANO54415.a(ethernet.o)
 .text._Z10DisablePHYv
                0x00000000       0x16 C:\Nburn/lib/NANO54415.a(ethernet.o)
 .text._Z9EnablePHYv
                0x00000000       0x16 C:\Nburn/lib/NANO54415.a(ethernet.o)
 .text._Z20ManualEthernetConfighhh
                0x00000000       0x30 C:\Nburn/lib/NANO54415.a(ethernet.o)
 .text._Z14SetPromiscuoush
                0x00000000       0x5e C:\Nburn/lib/NANO54415.a(ethernet.o)
 .text          0x00000000        0x0 C:\Nburn/lib/NANO54415.a(etherprint.o)
 .data          0x00000000        0x0 C:\Nburn/lib/NANO54415.a(etherprint.o)
 .bss           0x00000000        0x0 C:\Nburn/lib/NANO54415.a(etherprint.o)
 .text._ZN12EthernetVars13EtherSpeed100Ev
                0x00000000       0x10 C:\Nburn/lib/NANO54415.a(etherprint.o)
 .text._ZN12EthernetVars11EtherDuplexEv
                0x00000000       0x10 C:\Nburn/lib/NANO54415.a(etherprint.o)
 .rodata.str1.1
                0x00000000      0x4f7 C:\Nburn/lib/NANO54415.a(etherprint.o)
 .text._ZN12EthernetVars14ShowLinkStatusEv
                0x00000000       0x9e C:\Nburn/lib/NANO54415.a(etherprint.o)
 .text._Z10showbinarytt
                0x00000000       0x74 C:\Nburn/lib/NANO54415.a(etherprint.o)
 .text._ZN12EthernetVars7ShowMIIEhhPKct
                0x00000000       0x6a C:\Nburn/lib/NANO54415.a(etherprint.o)
 .text._ZN12EthernetVars13ShowPhyterMIIEv
                0x00000000      0x296 C:\Nburn/lib/NANO54415.a(etherprint.o)
 .text._ZN12EthernetVars16ShowFECRegistersEv
                0x00000000      0x4fa C:\Nburn/lib/NANO54415.a(etherprint.o)
 .text._Z16ShowESWRegistersv
                0x00000000      0x3b6 C:\Nburn/lib/NANO54415.a(etherprint.o)
 .text._Z5dEnetv
                0x00000000       0x16 C:\Nburn/lib/NANO54415.a(etherprint.o)
 .text._Z5denetv
                0x00000000        0xc C:\Nburn/lib/NANO54415.a(etherprint.o)
 .text.DoDumpEnet
                0x00000000       0x44 C:\Nburn/lib/NANO54415.a(etherprint.o)
 .text          0x00000000        0x0 C:\Nburn/lib/NANO54415.a(emulticast.o)
 .data          0x00000000        0x0 C:\Nburn/lib/NANO54415.a(emulticast.o)
 .bss           0x00000000        0x0 C:\Nburn/lib/NANO54415.a(emulticast.o)
 .text._Z15GetMultiCastCRC6MACADR
                0x00000000       0x38 C:\Nburn/lib/NANO54415.a(emulticast.o)
 .text          0x00000000        0x0 C:\Nburn/lib/NANO54415.a(ether2nd.o)
 .data          0x00000000        0x0 C:\Nburn/lib/NANO54415.a(ether2nd.o)
 .bss           0x00000000        0x0 C:\Nburn/lib/NANO54415.a(ether2nd.o)
 .text          0x00000000        0x0 C:\Nburn/lib/NANO54415.a(etherswitch.o)
 .data          0x00000000        0x0 C:\Nburn/lib/NANO54415.a(etherswitch.o)
 .bss           0x00000000        0x0 C:\Nburn/lib/NANO54415.a(etherswitch.o)
 .text._Z11GetMacEntrymPmS_
                0x00000000       0x38 C:\Nburn/lib/NANO54415.a(etherswitch.o)
 .text._Z11SetMacEntrymmm
                0x00000000       0x36 C:\Nburn/lib/NANO54415.a(etherswitch.o)
 .text._Z13ClearMacTablev
                0x00000000       0x3a C:\Nburn/lib/NANO54415.a(etherswitch.o)
 .text._Z9crc8_calcPh
                0x00000000       0x46 C:\Nburn/lib/NANO54415.a(etherswitch.o)
 .text          0x00000000        0x0 C:\Nburn/lib/NANO54415.a(weak_autoenet_var.o)
 .data          0x00000000        0x0 C:\Nburn/lib/NANO54415.a(weak_autoenet_var.o)
 .bss           0x00000000        0x0 C:\Nburn/lib/NANO54415.a(weak_autoenet_var.o)
 .text          0x00000000        0x0 C:\Nburn/lib/NetBurner.a(multiconfig.o)
 .data          0x00000000        0x0 C:\Nburn/lib/NetBurner.a(multiconfig.o)
 .bss           0x00000000        0x0 C:\Nburn/lib/NetBurner.a(multiconfig.o)
 .data          0x00000000        0x0 c:/nburn/gcc-m68k/bin/../m68k-unknown-elf/sysroot/lib/m54455\libm.a(lib_a-s_cos.o)
 .bss           0x00000000        0x0 c:/nburn/gcc-m68k/bin/../m68k-unknown-elf/sysroot/lib/m54455\libm.a(lib_a-s_cos.o)
 .data          0x00000000        0x0 c:/nburn/gcc-m68k/bin/../m68k-unknown-elf/sysroot/lib/m54455\libm.a(lib_a-s_fpclassify.o)
 .bss           0x00000000        0x0 c:/nburn/gcc-m68k/bin/../m68k-unknown-elf/sysroot/lib/m54455\libm.a(lib_a-s_fpclassify.o)
 .data          0x00000000        0x0 c:/nburn/gcc-m68k/bin/../m68k-unknown-elf/sysroot/lib/m54455\libm.a(lib_a-s_modf.o)
 .bss           0x00000000        0x0 c:/nburn/gcc-m68k/bin/../m68k-unknown-elf/sysroot/lib/m54455\libm.a(lib_a-s_modf.o)
 .data          0x00000000        0x0 c:/nburn/gcc-m68k/bin/../m68k-unknown-elf/sysroot/lib/m54455\libm.a(lib_a-s_round.o)
 .bss           0x00000000        0x0 c:/nburn/gcc-m68k/bin/../m68k-unknown-elf/sysroot/lib/m54455\libm.a(lib_a-s_round.o)
 .data          0x00000000        0x0 c:/nburn/gcc-m68k/bin/../m68k-unknown-elf/sysroot/lib/m54455\libm.a(lib_a-s_sin.o)
 .bss           0x00000000        0x0 c:/nburn/gcc-m68k/bin/../m68k-unknown-elf/sysroot/lib/m54455\libm.a(lib_a-s_sin.o)
 .data          0x00000000        0x0 c:/nburn/gcc-m68k/bin/../m68k-unknown-elf/sysroot/lib/m54455\libm.a(lib_a-w_pow.o)
 .bss           0x00000000        0x0 c:/nburn/gcc-m68k/bin/../m68k-unknown-elf/sysroot/lib/m54455\libm.a(lib_a-w_pow.o)
 .data          0x00000000        0x0 c:/nburn/gcc-m68k/bin/../m68k-unknown-elf/sysroot/lib/m54455\libm.a(lib_a-wf_asin.o)
 .bss           0x00000000        0x0 c:/nburn/gcc-m68k/bin/../m68k-unknown-elf/sysroot/lib/m54455\libm.a(lib_a-wf_asin.o)
 .data          0x00000000        0x0 c:/nburn/gcc-m68k/bin/../m68k-unknown-elf/sysroot/lib/m54455\libm.a(lib_a-wf_atan2.o)
 .bss           0x00000000        0x0 c:/nburn/gcc-m68k/bin/../m68k-unknown-elf/sysroot/lib/m54455\libm.a(lib_a-wf_atan2.o)
 .data          0x00000000        0x0 c:/nburn/gcc-m68k/bin/../m68k-unknown-elf/sysroot/lib/m54455\libm.a(lib_a-wf_sqrt.o)
 .bss           0x00000000        0x0 c:/nburn/gcc-m68k/bin/../m68k-unknown-elf/sysroot/lib/m54455\libm.a(lib_a-wf_sqrt.o)
 .data          0x00000000        0x0 c:/nburn/gcc-m68k/bin/../m68k-unknown-elf/sysroot/lib/m54455\libm.a(lib_a-e_pow.o)
 .bss           0x00000000        0x0 c:/nburn/gcc-m68k/bin/../m68k-unknown-elf/sysroot/lib/m54455\libm.a(lib_a-e_pow.o)
 .data          0x00000000        0x0 c:/nburn/gcc-m68k/bin/../m68k-unknown-elf/sysroot/lib/m54455\libm.a(lib_a-e_rem_pio2.o)
 .bss           0x00000000        0x0 c:/nburn/gcc-m68k/bin/../m68k-unknown-elf/sysroot/lib/m54455\libm.a(lib_a-e_rem_pio2.o)
 .data          0x00000000        0x0 c:/nburn/gcc-m68k/bin/../m68k-unknown-elf/sysroot/lib/m54455\libm.a(lib_a-e_sqrt.o)
 .bss           0x00000000        0x0 c:/nburn/gcc-m68k/bin/../m68k-unknown-elf/sysroot/lib/m54455\libm.a(lib_a-e_sqrt.o)
 .data          0x00000000        0x0 c:/nburn/gcc-m68k/bin/../m68k-unknown-elf/sysroot/lib/m54455\libm.a(lib_a-ef_asin.o)
 .bss           0x00000000        0x0 c:/nburn/gcc-m68k/bin/../m68k-unknown-elf/sysroot/lib/m54455\libm.a(lib_a-ef_asin.o)
 .data          0x00000000        0x0 c:/nburn/gcc-m68k/bin/../m68k-unknown-elf/sysroot/lib/m54455\libm.a(lib_a-ef_atan2.o)
 .bss           0x00000000        0x0 c:/nburn/gcc-m68k/bin/../m68k-unknown-elf/sysroot/lib/m54455\libm.a(lib_a-ef_atan2.o)
 .data          0x00000000        0x0 c:/nburn/gcc-m68k/bin/../m68k-unknown-elf/sysroot/lib/m54455\libm.a(lib_a-ef_sqrt.o)
 .bss           0x00000000        0x0 c:/nburn/gcc-m68k/bin/../m68k-unknown-elf/sysroot/lib/m54455\libm.a(lib_a-ef_sqrt.o)
 .data          0x00000000        0x0 c:/nburn/gcc-m68k/bin/../m68k-unknown-elf/sysroot/lib/m54455\libm.a(lib_a-k_cos.o)
 .bss           0x00000000        0x0 c:/nburn/gcc-m68k/bin/../m68k-unknown-elf/sysroot/lib/m54455\libm.a(lib_a-k_cos.o)
 .data          0x00000000        0x0 c:/nburn/gcc-m68k/bin/../m68k-unknown-elf/sysroot/lib/m54455\libm.a(lib_a-k_rem_pio2.o)
 .bss           0x00000000        0x0 c:/nburn/gcc-m68k/bin/../m68k-unknown-elf/sysroot/lib/m54455\libm.a(lib_a-k_rem_pio2.o)
 .data          0x00000000        0x0 c:/nburn/gcc-m68k/bin/../m68k-unknown-elf/sysroot/lib/m54455\libm.a(lib_a-k_sin.o)
 .bss           0x00000000        0x0 c:/nburn/gcc-m68k/bin/../m68k-unknown-elf/sysroot/lib/m54455\libm.a(lib_a-k_sin.o)
 .data          0x00000000        0x0 c:/nburn/gcc-m68k/bin/../m68k-unknown-elf/sysroot/lib/m54455\libm.a(lib_a-s_fabs.o)
 .bss           0x00000000        0x0 c:/nburn/gcc-m68k/bin/../m68k-unknown-elf/sysroot/lib/m54455\libm.a(lib_a-s_fabs.o)
 .data          0x00000000        0x0 c:/nburn/gcc-m68k/bin/../m68k-unknown-elf/sysroot/lib/m54455\libm.a(lib_a-s_finite.o)
 .bss           0x00000000        0x0 c:/nburn/gcc-m68k/bin/../m68k-unknown-elf/sysroot/lib/m54455\libm.a(lib_a-s_finite.o)
 .data          0x00000000        0x0 c:/nburn/gcc-m68k/bin/../m68k-unknown-elf/sysroot/lib/m54455\libm.a(lib_a-s_floor.o)
 .bss           0x00000000        0x0 c:/nburn/gcc-m68k/bin/../m68k-unknown-elf/sysroot/lib/m54455\libm.a(lib_a-s_floor.o)
 .text          0x00000000        0x0 c:/nburn/gcc-m68k/bin/../m68k-unknown-elf/sysroot/lib/m54455\libm.a(lib_a-s_lib_ver.o)
 .bss           0x00000000        0x0 c:/nburn/gcc-m68k/bin/../m68k-unknown-elf/sysroot/lib/m54455\libm.a(lib_a-s_lib_ver.o)
 .data          0x00000000        0x0 c:/nburn/gcc-m68k/bin/../m68k-unknown-elf/sysroot/lib/m54455\libm.a(lib_a-s_matherr.o)
 .bss           0x00000000        0x0 c:/nburn/gcc-m68k/bin/../m68k-unknown-elf/sysroot/lib/m54455\libm.a(lib_a-s_matherr.o)
 .data          0x00000000        0x0 c:/nburn/gcc-m68k/bin/../m68k-unknown-elf/sysroot/lib/m54455\libm.a(lib_a-s_nan.o)
 .bss           0x00000000        0x0 c:/nburn/gcc-m68k/bin/../m68k-unknown-elf/sysroot/lib/m54455\libm.a(lib_a-s_nan.o)
 .data          0x00000000        0x0 c:/nburn/gcc-m68k/bin/../m68k-unknown-elf/sysroot/lib/m54455\libm.a(lib_a-s_rint.o)
 .bss           0x00000000        0x0 c:/nburn/gcc-m68k/bin/../m68k-unknown-elf/sysroot/lib/m54455\libm.a(lib_a-s_rint.o)
 .data          0x00000000        0x0 c:/nburn/gcc-m68k/bin/../m68k-unknown-elf/sysroot/lib/m54455\libm.a(lib_a-s_scalbn.o)
 .bss           0x00000000        0x0 c:/nburn/gcc-m68k/bin/../m68k-unknown-elf/sysroot/lib/m54455\libm.a(lib_a-s_scalbn.o)
 .data          0x00000000        0x0 c:/nburn/gcc-m68k/bin/../m68k-unknown-elf/sysroot/lib/m54455\libm.a(lib_a-sf_atan.o)
 .bss           0x00000000        0x0 c:/nburn/gcc-m68k/bin/../m68k-unknown-elf/sysroot/lib/m54455\libm.a(lib_a-sf_atan.o)
 .data          0x00000000        0x0 c:/nburn/gcc-m68k/bin/../m68k-unknown-elf/sysroot/lib/m54455\libm.a(lib_a-sf_fabs.o)
 .bss           0x00000000        0x0 c:/nburn/gcc-m68k/bin/../m68k-unknown-elf/sysroot/lib/m54455\libm.a(lib_a-sf_fabs.o)
 .data          0x00000000        0x0 c:/nburn/gcc-m68k/bin/../m68k-unknown-elf/sysroot/lib/m54455\libm.a(lib_a-sf_fpclassify.o)
 .bss           0x00000000        0x0 c:/nburn/gcc-m68k/bin/../m68k-unknown-elf/sysroot/lib/m54455\libm.a(lib_a-sf_fpclassify.o)
 .data          0x00000000        0x0 c:/nburn/gcc-m68k/bin/../m68k-unknown-elf/sysroot/lib/m54455\libm.a(lib_a-s_copysign.o)
 .bss           0x00000000        0x0 c:/nburn/gcc-m68k/bin/../m68k-unknown-elf/sysroot/lib/m54455\libm.a(lib_a-s_copysign.o)
 .data          0x00000000        0x0 c:/nburn/gcc-m68k/bin/../lib/gcc/m68k-unknown-elf/5.2.0/m54455\libgcc.a(_double.o)
 .bss           0x00000000        0x0 c:/nburn/gcc-m68k/bin/../lib/gcc/m68k-unknown-elf/5.2.0/m54455\libgcc.a(_double.o)
 .data          0x00000000        0x0 c:/nburn/gcc-m68k/bin/../lib/gcc/m68k-unknown-elf/5.2.0/m54455\libgcc.a(_float.o)
 .bss           0x00000000        0x0 c:/nburn/gcc-m68k/bin/../lib/gcc/m68k-unknown-elf/5.2.0/m54455\libgcc.a(_float.o)
 .bss           0x00000000        0x0 c:/nburn/gcc-m68k/bin/../lib/gcc/m68k-unknown-elf/5.2.0/m54455\libgcc.a(_floatex.o)
 .data          0x00000000        0x0 c:/nburn/gcc-m68k/bin/../lib/gcc/m68k-unknown-elf/5.2.0/m54455\libgcc.a(_eqdf2.o)
 .bss           0x00000000        0x0 c:/nburn/gcc-m68k/bin/../lib/gcc/m68k-unknown-elf/5.2.0/m54455\libgcc.a(_eqdf2.o)
 .data          0x00000000        0x0 c:/nburn/gcc-m68k/bin/../lib/gcc/m68k-unknown-elf/5.2.0/m54455\libgcc.a(_nedf2.o)
 .bss           0x00000000        0x0 c:/nburn/gcc-m68k/bin/../lib/gcc/m68k-unknown-elf/5.2.0/m54455\libgcc.a(_nedf2.o)
 .data          0x00000000        0x0 c:/nburn/gcc-m68k/bin/../lib/gcc/m68k-unknown-elf/5.2.0/m54455\libgcc.a(_gtdf2.o)
 .bss           0x00000000        0x0 c:/nburn/gcc-m68k/bin/../lib/gcc/m68k-unknown-elf/5.2.0/m54455\libgcc.a(_gtdf2.o)
 .data          0x00000000        0x0 c:/nburn/gcc-m68k/bin/../lib/gcc/m68k-unknown-elf/5.2.0/m54455\libgcc.a(_gedf2.o)
 .bss           0x00000000        0x0 c:/nburn/gcc-m68k/bin/../lib/gcc/m68k-unknown-elf/5.2.0/m54455\libgcc.a(_gedf2.o)
 .data          0x00000000        0x0 c:/nburn/gcc-m68k/bin/../lib/gcc/m68k-unknown-elf/5.2.0/m54455\libgcc.a(_ltdf2.o)
 .bss           0x00000000        0x0 c:/nburn/gcc-m68k/bin/../lib/gcc/m68k-unknown-elf/5.2.0/m54455\libgcc.a(_ltdf2.o)
 .data          0x00000000        0x0 c:/nburn/gcc-m68k/bin/../lib/gcc/m68k-unknown-elf/5.2.0/m54455\libgcc.a(_ledf2.o)
 .bss           0x00000000        0x0 c:/nburn/gcc-m68k/bin/../lib/gcc/m68k-unknown-elf/5.2.0/m54455\libgcc.a(_ledf2.o)
 .data          0x00000000        0x0 c:/nburn/gcc-m68k/bin/../lib/gcc/m68k-unknown-elf/5.2.0/m54455\libgcc.a(_eqsf2.o)
 .bss           0x00000000        0x0 c:/nburn/gcc-m68k/bin/../lib/gcc/m68k-unknown-elf/5.2.0/m54455\libgcc.a(_eqsf2.o)
 .data          0x00000000        0x0 c:/nburn/gcc-m68k/bin/../lib/gcc/m68k-unknown-elf/5.2.0/m54455\libgcc.a(_gtsf2.o)
 .bss           0x00000000        0x0 c:/nburn/gcc-m68k/bin/../lib/gcc/m68k-unknown-elf/5.2.0/m54455\libgcc.a(_gtsf2.o)
 .data          0x00000000        0x0 c:/nburn/gcc-m68k/bin/../lib/gcc/m68k-unknown-elf/5.2.0/m54455\libgcc.a(_ltsf2.o)
 .bss           0x00000000        0x0 c:/nburn/gcc-m68k/bin/../lib/gcc/m68k-unknown-elf/5.2.0/m54455\libgcc.a(_ltsf2.o)
 .data          0x00000000        0x0 c:/nburn/gcc-m68k/bin/../lib/gcc/m68k-unknown-elf/5.2.0/m54455\libgcc.a(_muldi3.o)
 .bss           0x00000000        0x0 c:/nburn/gcc-m68k/bin/../lib/gcc/m68k-unknown-elf/5.2.0/m54455\libgcc.a(_muldi3.o)
 .data          0x00000000        0x0 c:/nburn/gcc-m68k/bin/../lib/gcc/m68k-unknown-elf/5.2.0/m54455\libgcc.a(_fixunsdfsi.o)
 .bss           0x00000000        0x0 c:/nburn/gcc-m68k/bin/../lib/gcc/m68k-unknown-elf/5.2.0/m54455\libgcc.a(_fixunsdfsi.o)
 .data          0x00000000        0x0 c:/nburn/gcc-m68k/bin/../lib/gcc/m68k-unknown-elf/5.2.0/m54455\libgcc.a(_fixunsdfdi.o)
 .bss           0x00000000        0x0 c:/nburn/gcc-m68k/bin/../lib/gcc/m68k-unknown-elf/5.2.0/m54455\libgcc.a(_fixunsdfdi.o)
 .data          0x00000000        0x0 c:/nburn/gcc-m68k/bin/../lib/gcc/m68k-unknown-elf/5.2.0/m54455\libgcc.a(_udivdi3.o)
 .bss           0x00000000        0x0 c:/nburn/gcc-m68k/bin/../lib/gcc/m68k-unknown-elf/5.2.0/m54455\libgcc.a(_udivdi3.o)
 .data          0x00000000        0x0 c:/nburn/gcc-m68k/bin/../lib/gcc/m68k-unknown-elf/5.2.0/m54455\libgcc.a(_umoddi3.o)
 .bss           0x00000000        0x0 c:/nburn/gcc-m68k/bin/../lib/gcc/m68k-unknown-elf/5.2.0/m54455\libgcc.a(_umoddi3.o)
 .data          0x00000000        0x0 c:/nburn/gcc-m68k/bin/../lib/gcc/m68k-unknown-elf/5.2.0/m54455\libgcc.a(fpgnulib.o)
 .bss           0x00000000        0x0 c:/nburn/gcc-m68k/bin/../lib/gcc/m68k-unknown-elf/5.2.0/m54455\libgcc.a(fpgnulib.o)
 .data          0x00000000        0x0 c:/nburn/gcc-m68k/bin/../lib/gcc/m68k-unknown-elf/5.2.0/m54455\libgcc.a(unwind-dw2.o)
 .data          0x00000000        0x0 c:/nburn/gcc-m68k/bin/../lib/gcc/m68k-unknown-elf/5.2.0/m54455\libgcc.a(unwind-dw2-fde.o)
 .data          0x00000000        0x0 c:/nburn/gcc-m68k/bin/../m68k-unknown-elf/sysroot/lib/m54455\libc.a(lib_a-abort.o)
 .bss           0x00000000        0x0 c:/nburn/gcc-m68k/bin/../m68k-unknown-elf/sysroot/lib/m54455\libc.a(lib_a-abort.o)
 .data          0x00000000        0x0 c:/nburn/gcc-m68k/bin/../m68k-unknown-elf/sysroot/lib/m54455\libc.a(lib_a-atexit.o)
 .bss           0x00000000        0x0 c:/nburn/gcc-m68k/bin/../m68k-unknown-elf/sysroot/lib/m54455\libc.a(lib_a-atexit.o)
 .data          0x00000000        0x0 c:/nburn/gcc-m68k/bin/../m68k-unknown-elf/sysroot/lib/m54455\libc.a(lib_a-atoi.o)
 .bss           0x00000000        0x0 c:/nburn/gcc-m68k/bin/../m68k-unknown-elf/sysroot/lib/m54455\libc.a(lib_a-atoi.o)
 .data          0x00000000        0x0 c:/nburn/gcc-m68k/bin/../m68k-unknown-elf/sysroot/lib/m54455\libc.a(lib_a-bsearch.o)
 .bss           0x00000000        0x0 c:/nburn/gcc-m68k/bin/../m68k-unknown-elf/sysroot/lib/m54455\libc.a(lib_a-bsearch.o)
 .data          0x00000000        0x0 c:/nburn/gcc-m68k/bin/../m68k-unknown-elf/sysroot/lib/m54455\libc.a(lib_a-cxa_atexit.o)
 .bss           0x00000000        0x0 c:/nburn/gcc-m68k/bin/../m68k-unknown-elf/sysroot/lib/m54455\libc.a(lib_a-cxa_atexit.o)
 .data          0x00000000        0x0 c:/nburn/gcc-m68k/bin/../m68k-unknown-elf/sysroot/lib/m54455\libc.a(lib_a-errno.o)
 .bss           0x00000000        0x0 c:/nburn/gcc-m68k/bin/../m68k-unknown-elf/sysroot/lib/m54455\libc.a(lib_a-errno.o)
 .data          0x00000000        0x0 c:/nburn/gcc-m68k/bin/../m68k-unknown-elf/sysroot/lib/m54455\libc.a(lib_a-fputc.o)
 .bss           0x00000000        0x0 c:/nburn/gcc-m68k/bin/../m68k-unknown-elf/sysroot/lib/m54455\libc.a(lib_a-fputc.o)
 .data          0x00000000        0x0 c:/nburn/gcc-m68k/bin/../m68k-unknown-elf/sysroot/lib/m54455\libc.a(lib_a-fputs.o)
 .bss           0x00000000        0x0 c:/nburn/gcc-m68k/bin/../m68k-unknown-elf/sysroot/lib/m54455\libc.a(lib_a-fputs.o)
 .data          0x00000000        0x0 c:/nburn/gcc-m68k/bin/../m68k-unknown-elf/sysroot/lib/m54455\libc.a(lib_a-fvwrite.o)
 .bss           0x00000000        0x0 c:/nburn/gcc-m68k/bin/../m68k-unknown-elf/sysroot/lib/m54455\libc.a(lib_a-fvwrite.o)
 .text          0x00000000       0xc2 c:/nburn/gcc-m68k/bin/../m68k-unknown-elf/sysroot/lib/m54455\libc.a(lib_a-fwrite.o)
 .data          0x00000000        0x0 c:/nburn/gcc-m68k/bin/../m68k-unknown-elf/sysroot/lib/m54455\libc.a(lib_a-fwrite.o)
 .bss           0x00000000        0x0 c:/nburn/gcc-m68k/bin/../m68k-unknown-elf/sysroot/lib/m54455\libc.a(lib_a-fwrite.o)
 .debug_info    0x00000000      0xa2d c:/nburn/gcc-m68k/bin/../m68k-unknown-elf/sysroot/lib/m54455\libc.a(lib_a-fwrite.o)
 .debug_abbrev  0x00000000      0x229 c:/nburn/gcc-m68k/bin/../m68k-unknown-elf/sysroot/lib/m54455\libc.a(lib_a-fwrite.o)
 .debug_loc     0x00000000       0x6f c:/nburn/gcc-m68k/bin/../m68k-unknown-elf/sysroot/lib/m54455\libc.a(lib_a-fwrite.o)
 .debug_aranges
                0x00000000       0x20 c:/nburn/gcc-m68k/bin/../m68k-unknown-elf/sysroot/lib/m54455\libc.a(lib_a-fwrite.o)
 .debug_line    0x00000000      0x1d6 c:/nburn/gcc-m68k/bin/../m68k-unknown-elf/sysroot/lib/m54455\libc.a(lib_a-fwrite.o)
 .debug_str     0x00000000      0x573 c:/nburn/gcc-m68k/bin/../m68k-unknown-elf/sysroot/lib/m54455\libc.a(lib_a-fwrite.o)
 .comment       0x00000000       0x1d c:/nburn/gcc-m68k/bin/../m68k-unknown-elf/sysroot/lib/m54455\libc.a(lib_a-fwrite.o)
 .debug_frame   0x00000000       0x50 c:/nburn/gcc-m68k/bin/../m68k-unknown-elf/sysroot/lib/m54455\libc.a(lib_a-fwrite.o)
 .text          0x00000000        0x0 c:/nburn/gcc-m68k/bin/../m68k-unknown-elf/sysroot/lib/m54455\libc.a(lib_a-impure.o)
 .bss           0x00000000        0x0 c:/nburn/gcc-m68k/bin/../m68k-unknown-elf/sysroot/lib/m54455\libc.a(lib_a-impure.o)
 .text          0x00000000       0x1a c:/nburn/gcc-m68k/bin/../m68k-unknown-elf/sysroot/lib/m54455\libc.a(lib_a-isalnum.o)
 .data          0x00000000        0x0 c:/nburn/gcc-m68k/bin/../m68k-unknown-elf/sysroot/lib/m54455\libc.a(lib_a-isalnum.o)
 .bss           0x00000000        0x0 c:/nburn/gcc-m68k/bin/../m68k-unknown-elf/sysroot/lib/m54455\libc.a(lib_a-isalnum.o)
 .debug_info    0x00000000       0x6c c:/nburn/gcc-m68k/bin/../m68k-unknown-elf/sysroot/lib/m54455\libc.a(lib_a-isalnum.o)
 .debug_abbrev  0x00000000       0x74 c:/nburn/gcc-m68k/bin/../m68k-unknown-elf/sysroot/lib/m54455\libc.a(lib_a-isalnum.o)
 .debug_aranges
                0x00000000       0x20 c:/nburn/gcc-m68k/bin/../m68k-unknown-elf/sysroot/lib/m54455\libc.a(lib_a-isalnum.o)
 .debug_line    0x00000000       0xc0 c:/nburn/gcc-m68k/bin/../m68k-unknown-elf/sysroot/lib/m54455\libc.a(lib_a-isalnum.o)
 .debug_str     0x00000000       0x9d c:/nburn/gcc-m68k/bin/../m68k-unknown-elf/sysroot/lib/m54455\libc.a(lib_a-isalnum.o)
 .comment       0x00000000       0x1d c:/nburn/gcc-m68k/bin/../m68k-unknown-elf/sysroot/lib/m54455\libc.a(lib_a-isalnum.o)
 .debug_frame   0x00000000       0x2c c:/nburn/gcc-m68k/bin/../m68k-unknown-elf/sysroot/lib/m54455\libc.a(lib_a-isalnum.o)
 .data          0x00000000        0x0 c:/nburn/gcc-m68k/bin/../m68k-unknown-elf/sysroot/lib/m54455\libc.a(lib_a-isspace.o)
 .bss           0x00000000        0x0 c:/nburn/gcc-m68k/bin/../m68k-unknown-elf/sysroot/lib/m54455\libc.a(lib_a-isspace.o)
 .data          0x00000000        0x0 c:/nburn/gcc-m68k/bin/../m68k-unknown-elf/sysroot/lib/m54455\libc.a(lib_a-malloc.o)
 .bss           0x00000000        0x0 c:/nburn/gcc-m68k/bin/../m68k-unknown-elf/sysroot/lib/m54455\libc.a(lib_a-malloc.o)
 .data          0x00000000        0x0 c:/nburn/gcc-m68k/bin/../m68k-unknown-elf/sysroot/lib/m54455\libc.a(lib_a-memchr.o)
 .bss           0x00000000        0x0 c:/nburn/gcc-m68k/bin/../m68k-unknown-elf/sysroot/lib/m54455\libc.a(lib_a-memchr.o)
 .data          0x00000000        0x0 c:/nburn/gcc-m68k/bin/../m68k-unknown-elf/sysroot/lib/m54455\libc.a(lib_a-memcmp.o)
 .bss           0x00000000        0x0 c:/nburn/gcc-m68k/bin/../m68k-unknown-elf/sysroot/lib/m54455\libc.a(lib_a-memcmp.o)
 .data          0x00000000        0x0 c:/nburn/gcc-m68k/bin/../m68k-unknown-elf/sysroot/lib/m54455\libc.a(lib_a-memmove.o)
 .bss           0x00000000        0x0 c:/nburn/gcc-m68k/bin/../m68k-unknown-elf/sysroot/lib/m54455\libc.a(lib_a-memmove.o)
 .data          0x00000000        0x0 c:/nburn/gcc-m68k/bin/../m68k-unknown-elf/sysroot/lib/m54455\libc.a(lib_a-putc.o)
 .bss           0x00000000        0x0 c:/nburn/gcc-m68k/bin/../m68k-unknown-elf/sysroot/lib/m54455\libc.a(lib_a-putc.o)
 .data          0x00000000        0x0 c:/nburn/gcc-m68k/bin/../m68k-unknown-elf/sysroot/lib/m54455\libc.a(lib_a-puts.o)
 .bss           0x00000000        0x0 c:/nburn/gcc-m68k/bin/../m68k-unknown-elf/sysroot/lib/m54455\libc.a(lib_a-puts.o)
 .data          0x00000000        0x0 c:/nburn/gcc-m68k/bin/../m68k-unknown-elf/sysroot/lib/m54455\libc.a(lib_a-rand.o)
 .bss           0x00000000        0x0 c:/nburn/gcc-m68k/bin/../m68k-unknown-elf/sysroot/lib/m54455\libc.a(lib_a-rand.o)
 .data          0x00000000        0x0 c:/nburn/gcc-m68k/bin/../m68k-unknown-elf/sysroot/lib/m54455\libc.a(lib_a-realloc.o)
 .bss           0x00000000        0x0 c:/nburn/gcc-m68k/bin/../m68k-unknown-elf/sysroot/lib/m54455\libc.a(lib_a-realloc.o)
 .data          0x00000000        0x0 c:/nburn/gcc-m68k/bin/../m68k-unknown-elf/sysroot/lib/m54455\libc.a(lib_a-reallocr.o)
 .bss           0x00000000        0x0 c:/nburn/gcc-m68k/bin/../m68k-unknown-elf/sysroot/lib/m54455\libc.a(lib_a-reallocr.o)
 .text          0x00000000       0x68 c:/nburn/gcc-m68k/bin/../m68k-unknown-elf/sysroot/lib/m54455\libc.a(lib_a-rget.o)
 .data          0x00000000        0x0 c:/nburn/gcc-m68k/bin/../m68k-unknown-elf/sysroot/lib/m54455\libc.a(lib_a-rget.o)
 .bss           0x00000000        0x0 c:/nburn/gcc-m68k/bin/../m68k-unknown-elf/sysroot/lib/m54455\libc.a(lib_a-rget.o)
 .debug_info    0x00000000      0x938 c:/nburn/gcc-m68k/bin/../m68k-unknown-elf/sysroot/lib/m54455\libc.a(lib_a-rget.o)
 .debug_abbrev  0x00000000      0x1f0 c:/nburn/gcc-m68k/bin/../m68k-unknown-elf/sysroot/lib/m54455\libc.a(lib_a-rget.o)
 .debug_loc     0x00000000       0x1f c:/nburn/gcc-m68k/bin/../m68k-unknown-elf/sysroot/lib/m54455\libc.a(lib_a-rget.o)
 .debug_aranges
                0x00000000       0x20 c:/nburn/gcc-m68k/bin/../m68k-unknown-elf/sysroot/lib/m54455\libc.a(lib_a-rget.o)
 .debug_line    0x00000000      0x1a0 c:/nburn/gcc-m68k/bin/../m68k-unknown-elf/sysroot/lib/m54455\libc.a(lib_a-rget.o)
 .debug_str     0x00000000      0x523 c:/nburn/gcc-m68k/bin/../m68k-unknown-elf/sysroot/lib/m54455\libc.a(lib_a-rget.o)
 .comment       0x00000000       0x1d c:/nburn/gcc-m68k/bin/../m68k-unknown-elf/sysroot/lib/m54455\libc.a(lib_a-rget.o)
 .debug_frame   0x00000000       0x48 c:/nburn/gcc-m68k/bin/../m68k-unknown-elf/sysroot/lib/m54455\libc.a(lib_a-rget.o)
 .data          0x00000000        0x0 c:/nburn/gcc-m68k/bin/../m68k-unknown-elf/sysroot/lib/m54455\libc.a(lib_a-setvbuf.o)
 .bss           0x00000000        0x0 c:/nburn/gcc-m68k/bin/../m68k-unknown-elf/sysroot/lib/m54455\libc.a(lib_a-setvbuf.o)
 .data          0x00000000        0x0 c:/nburn/gcc-m68k/bin/../m68k-unknown-elf/sysroot/lib/m54455\libc.a(lib_a-signal.o)
 .bss           0x00000000        0x0 c:/nburn/gcc-m68k/bin/../m68k-unknown-elf/sysroot/lib/m54455\libc.a(lib_a-signal.o)
 .data          0x00000000        0x0 c:/nburn/gcc-m68k/bin/../m68k-unknown-elf/sysroot/lib/m54455\libc.a(lib_a-signalr.o)
 .bss           0x00000000        0x0 c:/nburn/gcc-m68k/bin/../m68k-unknown-elf/sysroot/lib/m54455\libc.a(lib_a-signalr.o)
 .data          0x00000000        0x0 c:/nburn/gcc-m68k/bin/../m68k-unknown-elf/sysroot/lib/m54455\libc.a(lib_a-stpcpy.o)
 .bss           0x00000000        0x0 c:/nburn/gcc-m68k/bin/../m68k-unknown-elf/sysroot/lib/m54455\libc.a(lib_a-stpcpy.o)
 .data          0x00000000        0x0 c:/nburn/gcc-m68k/bin/../m68k-unknown-elf/sysroot/lib/m54455\libc.a(lib_a-strcat.o)
 .bss           0x00000000        0x0 c:/nburn/gcc-m68k/bin/../m68k-unknown-elf/sysroot/lib/m54455\libc.a(lib_a-strcat.o)
 .data          0x00000000        0x0 c:/nburn/gcc-m68k/bin/../m68k-unknown-elf/sysroot/lib/m54455\libc.a(lib_a-strcmp.o)
 .bss           0x00000000        0x0 c:/nburn/gcc-m68k/bin/../m68k-unknown-elf/sysroot/lib/m54455\libc.a(lib_a-strcmp.o)
 .data          0x00000000        0x0 c:/nburn/gcc-m68k/bin/../m68k-unknown-elf/sysroot/lib/m54455\libc.a(lib_a-strcpy.o)
 .bss           0x00000000        0x0 c:/nburn/gcc-m68k/bin/../m68k-unknown-elf/sysroot/lib/m54455\libc.a(lib_a-strcpy.o)
 .data          0x00000000        0x0 c:/nburn/gcc-m68k/bin/../m68k-unknown-elf/sysroot/lib/m54455\libc.a(lib_a-strlen.o)
 .bss           0x00000000        0x0 c:/nburn/gcc-m68k/bin/../m68k-unknown-elf/sysroot/lib/m54455\libc.a(lib_a-strlen.o)
 .data          0x00000000        0x0 c:/nburn/gcc-m68k/bin/../m68k-unknown-elf/sysroot/lib/m54455\libc.a(lib_a-strncmp.o)
 .bss           0x00000000        0x0 c:/nburn/gcc-m68k/bin/../m68k-unknown-elf/sysroot/lib/m54455\libc.a(lib_a-strncmp.o)
 .data          0x00000000        0x0 c:/nburn/gcc-m68k/bin/../m68k-unknown-elf/sysroot/lib/m54455\libc.a(lib_a-strncpy.o)
 .bss           0x00000000        0x0 c:/nburn/gcc-m68k/bin/../m68k-unknown-elf/sysroot/lib/m54455\libc.a(lib_a-strncpy.o)
 .data          0x00000000        0x0 c:/nburn/gcc-m68k/bin/../m68k-unknown-elf/sysroot/lib/m54455\libc.a(lib_a-strstr.o)
 .bss           0x00000000        0x0 c:/nburn/gcc-m68k/bin/../m68k-unknown-elf/sysroot/lib/m54455\libc.a(lib_a-strstr.o)
 .data          0x00000000        0x0 c:/nburn/gcc-m68k/bin/../m68k-unknown-elf/sysroot/lib/m54455\libc.a(lib_a-strtol.o)
 .bss           0x00000000        0x0 c:/nburn/gcc-m68k/bin/../m68k-unknown-elf/sysroot/lib/m54455\libc.a(lib_a-strtol.o)
 .data          0x00000000        0x0 c:/nburn/gcc-m68k/bin/../m68k-unknown-elf/sysroot/lib/m54455\libc.a(lib_a-tolower.o)
 .bss           0x00000000        0x0 c:/nburn/gcc-m68k/bin/../m68k-unknown-elf/sysroot/lib/m54455\libc.a(lib_a-tolower.o)
 .data          0x00000000        0x0 c:/nburn/gcc-m68k/bin/../m68k-unknown-elf/sysroot/lib/m54455\libc.a(lib_a-toupper.o)
 .bss           0x00000000        0x0 c:/nburn/gcc-m68k/bin/../m68k-unknown-elf/sysroot/lib/m54455\libc.a(lib_a-toupper.o)
 .data          0x00000000        0x0 c:/nburn/gcc-m68k/bin/../m68k-unknown-elf/sysroot/lib/m54455\libc.a(lib_a-wbuf.o)
 .bss           0x00000000        0x0 c:/nburn/gcc-m68k/bin/../m68k-unknown-elf/sysroot/lib/m54455\libc.a(lib_a-wbuf.o)
 .data          0x00000000        0x0 c:/nburn/gcc-m68k/bin/../m68k-unknown-elf/sysroot/lib/m54455\libc.a(lib_a-wsetup.o)
 .bss           0x00000000        0x0 c:/nburn/gcc-m68k/bin/../m68k-unknown-elf/sysroot/lib/m54455\libc.a(lib_a-wsetup.o)
 .data          0x00000000        0x0 c:/nburn/gcc-m68k/bin/../m68k-unknown-elf/sysroot/lib/m54455\libc.a(lib_a-__atexit.o)
 .bss           0x00000000        0x0 c:/nburn/gcc-m68k/bin/../m68k-unknown-elf/sysroot/lib/m54455\libc.a(lib_a-__atexit.o)
 .text          0x00000000        0x0 c:/nburn/gcc-m68k/bin/../m68k-unknown-elf/sysroot/lib/m54455\libc.a(lib_a-ctype_.o)
 .bss           0x00000000        0x0 c:/nburn/gcc-m68k/bin/../m68k-unknown-elf/sysroot/lib/m54455\libc.a(lib_a-ctype_.o)
 .data          0x00000000        0x0 c:/nburn/gcc-m68k/bin/../m68k-unknown-elf/sysroot/lib/m54455\libc.a(lib_a-fflush.o)
 .bss           0x00000000        0x0 c:/nburn/gcc-m68k/bin/../m68k-unknown-elf/sysroot/lib/m54455\libc.a(lib_a-fflush.o)
 .data          0x00000000        0x0 c:/nburn/gcc-m68k/bin/../m68k-unknown-elf/sysroot/lib/m54455\libc.a(lib_a-findfp.o)
 .bss           0x00000000        0x0 c:/nburn/gcc-m68k/bin/../m68k-unknown-elf/sysroot/lib/m54455\libc.a(lib_a-findfp.o)
 .data          0x00000000        0x0 c:/nburn/gcc-m68k/bin/../m68k-unknown-elf/sysroot/lib/m54455\libc.a(lib_a-freer.o)
 .bss           0x00000000        0x0 c:/nburn/gcc-m68k/bin/../m68k-unknown-elf/sysroot/lib/m54455\libc.a(lib_a-freer.o)
 .data          0x00000000        0x0 c:/nburn/gcc-m68k/bin/../m68k-unknown-elf/sysroot/lib/m54455\libc.a(lib_a-fwalk.o)
 .bss           0x00000000        0x0 c:/nburn/gcc-m68k/bin/../m68k-unknown-elf/sysroot/lib/m54455\libc.a(lib_a-fwalk.o)
 .data          0x00000000        0x0 c:/nburn/gcc-m68k/bin/../m68k-unknown-elf/sysroot/lib/m54455\libc.a(lib_a-makebuf.o)
 .bss           0x00000000        0x0 c:/nburn/gcc-m68k/bin/../m68k-unknown-elf/sysroot/lib/m54455\libc.a(lib_a-makebuf.o)
 .text          0x00000000      0x1a2 c:/nburn/gcc-m68k/bin/../m68k-unknown-elf/sysroot/lib/m54455\libc.a(lib_a-refill.o)
 .data          0x00000000        0x0 c:/nburn/gcc-m68k/bin/../m68k-unknown-elf/sysroot/lib/m54455\libc.a(lib_a-refill.o)
 .bss           0x00000000        0x0 c:/nburn/gcc-m68k/bin/../m68k-unknown-elf/sysroot/lib/m54455\libc.a(lib_a-refill.o)
 .debug_info    0x00000000      0x9be c:/nburn/gcc-m68k/bin/../m68k-unknown-elf/sysroot/lib/m54455\libc.a(lib_a-refill.o)
 .debug_abbrev  0x00000000      0x219 c:/nburn/gcc-m68k/bin/../m68k-unknown-elf/sysroot/lib/m54455\libc.a(lib_a-refill.o)
 .debug_loc     0x00000000       0x3e c:/nburn/gcc-m68k/bin/../m68k-unknown-elf/sysroot/lib/m54455\libc.a(lib_a-refill.o)
 .debug_aranges
                0x00000000       0x20 c:/nburn/gcc-m68k/bin/../m68k-unknown-elf/sysroot/lib/m54455\libc.a(lib_a-refill.o)
 .debug_line    0x00000000      0x1ed c:/nburn/gcc-m68k/bin/../m68k-unknown-elf/sysroot/lib/m54455\libc.a(lib_a-refill.o)
 .debug_str     0x00000000      0x564 c:/nburn/gcc-m68k/bin/../m68k-unknown-elf/sysroot/lib/m54455\libc.a(lib_a-refill.o)
 .comment       0x00000000       0x1d c:/nburn/gcc-m68k/bin/../m68k-unknown-elf/sysroot/lib/m54455\libc.a(lib_a-refill.o)
 .debug_frame   0x00000000       0x4c c:/nburn/gcc-m68k/bin/../m68k-unknown-elf/sysroot/lib/m54455\libc.a(lib_a-refill.o)
 .data          0x00000000        0x0 c:/nburn/gcc-m68k/bin/../m68k-unknown-elf/sysroot/lib/m54455\libc.a(lib_a-stdio.o)
 .bss           0x00000000        0x0 c:/nburn/gcc-m68k/bin/../m68k-unknown-elf/sysroot/lib/m54455\libc.a(lib_a-stdio.o)
 .data          0x00000000        0x0 c:/nburn/gcc-m68k/bin/../m68k-unknown-elf/sysroot/lib/m54455\libc.a(lib_a-writer.o)
 .bss           0x00000000        0x0 c:/nburn/gcc-m68k/bin/../m68k-unknown-elf/sysroot/lib/m54455\libc.a(lib_a-writer.o)
 .data          0x00000000        0x0 c:/nburn/gcc-m68k/bin/../m68k-unknown-elf/sysroot/lib/m54455\libc.a(lib_a-closer.o)
 .bss           0x00000000        0x0 c:/nburn/gcc-m68k/bin/../m68k-unknown-elf/sysroot/lib/m54455\libc.a(lib_a-closer.o)
 .data          0x00000000        0x0 c:/nburn/gcc-m68k/bin/../m68k-unknown-elf/sysroot/lib/m54455\libc.a(lib_a-fclose.o)
 .bss           0x00000000        0x0 c:/nburn/gcc-m68k/bin/../m68k-unknown-elf/sysroot/lib/m54455\libc.a(lib_a-fclose.o)
 .data          0x00000000        0x0 c:/nburn/gcc-m68k/bin/../m68k-unknown-elf/sysroot/lib/m54455\libc.a(lib_a-fstatr.o)
 .bss           0x00000000        0x0 c:/nburn/gcc-m68k/bin/../m68k-unknown-elf/sysroot/lib/m54455\libc.a(lib_a-fstatr.o)
 .data          0x00000000        0x0 c:/nburn/gcc-m68k/bin/../m68k-unknown-elf/sysroot/lib/m54455\libc.a(lib_a-isattyr.o)
 .bss           0x00000000        0x0 c:/nburn/gcc-m68k/bin/../m68k-unknown-elf/sysroot/lib/m54455\libc.a(lib_a-isattyr.o)
 .data          0x00000000        0x0 c:/nburn/gcc-m68k/bin/../m68k-unknown-elf/sysroot/lib/m54455\libc.a(lib_a-lseekr.o)
 .bss           0x00000000        0x0 c:/nburn/gcc-m68k/bin/../m68k-unknown-elf/sysroot/lib/m54455\libc.a(lib_a-lseekr.o)
 .data          0x00000000        0x0 c:/nburn/gcc-m68k/bin/../m68k-unknown-elf/sysroot/lib/m54455\libc.a(lib_a-readr.o)
 .bss           0x00000000        0x0 c:/nburn/gcc-m68k/bin/../m68k-unknown-elf/sysroot/lib/m54455\libc.a(lib_a-readr.o)
 .data          0x00000000        0x0 c:/nburn/gcc-m68k/bin/../lib/gcc/m68k-unknown-elf/5.2.0/m54455/crtend.o
 .bss           0x00000000        0x0 c:/nburn/gcc-m68k/bin/../lib/gcc/m68k-unknown-elf/5.2.0/m54455/crtend.o
 .jcr           0x00000000        0x4 c:/nburn/gcc-m68k/bin/../lib/gcc/m68k-unknown-elf/5.2.0/m54455/crtend.o

Memory Configuration

Name             Origin             Length             Attributes
ram              0x40000400         0x03fffcff         xrw
SRAM             0x80000400         0x0000fbf0         xrw
Cold_SRAM        0x8000fffe         0x00000002         xrw
*default*        0x00000000         0xffffffff

Linker script and memory map

LOAD c:/nburn/gcc-m68k/bin/../lib/gcc/m68k-unknown-elf/5.2.0/m54455\nb-crt0.o
LOAD c:/nburn/gcc-m68k/bin/../lib/gcc/m68k-unknown-elf/5.2.0/m54455/crtbegin.o
LOAD tests.o
LOAD main.o
LOAD Utility.o
LOAD Nav.o
LOAD Map.o
LOAD Logger.o
LOAD Drivers\servodrive.o
LOAD Drivers\pwm.o
LOAD Drivers\introspec.o
LOAD Drivers\dsm2.o
LOAD Drivers\SpinningLidar.o
LOAD Drivers\Odometer.o
LOAD Drivers\MadgwickFilter.o
LOAD Drivers\MPU9250.o
LOAD Drivers\LidarPWM.o
LOAD Drivers\LCD.o
LOAD Drivers\IMUSetupAndSample.o
LOAD htmldata.o
LOAD C:\Nburn/NANO54415/lib/sys.ld
                0x40000000                ovector_base = 0x40000000
                0x80000000                vector_base = 0x80000000
                0x80000400                SRAM_START_ADDR = 0x80000400
                0x8000fffe                SRAM_END_ADDR = 0x8000fffe
                0x8c000000                sim_rgpio = 0x8c000000
                0xec008000                sim1 = 0xec008000
                0xfc004000                sim2 = 0xfc004000
                0x00004000                FlashAppBase = 0x4000
                0xfc0d4008                DBETHER_EMIR_REG = 0xfc0d4008
                0x8000d000                comm_loc = 0x8000d000
START GROUP
LOAD C:\Nburn/lib/NANO54415.a
LOAD C:\Nburn/lib/NetBurner.a
LOAD C:\Nburn/lib/FatFile.a
LOAD c:/nburn/gcc-m68k/bin/../m68k-unknown-elf/sysroot/lib/m54455\libstdc++.a
LOAD C:\Nburn\lib\cryptolib.a
LOAD C:\Nburn\lib\debugLibrary.a
LOAD C:\Nburn\lib\Lua_Full.a
LOAD C:\Nburn\lib\nb-libxively.a
LOAD C:\Nburn\lib\nbwifilib.a
LOAD C:\Nburn\lib\sshLibrary.a
LOAD C:\Nburn\lib\webclient.a
END GROUP
LOAD c:/nburn/gcc-m68k/bin/../m68k-unknown-elf/sysroot/lib/m54455\libstdc++.a
LOAD c:/nburn/gcc-m68k/bin/../m68k-unknown-elf/sysroot/lib/m54455\libm.a
LOAD c:/nburn/gcc-m68k/bin/../lib/gcc/m68k-unknown-elf/5.2.0/m54455\libgcc.a
LOAD c:/nburn/gcc-m68k/bin/../m68k-unknown-elf/sysroot/lib/m54455\libc.a
LOAD c:/nburn/gcc-m68k/bin/../lib/gcc/m68k-unknown-elf/5.2.0/m54455\libgcc.a
LOAD c:/nburn/gcc-m68k/bin/../lib/gcc/m68k-unknown-elf/5.2.0/m54455/crtend.o
START GROUP
LOAD c:/nburn/gcc-m68k/bin/../m68k-unknown-elf/sysroot/lib/m54455\libc.a
LOAD c:/nburn/gcc-m68k/bin/../lib/gcc/m68k-unknown-elf/5.2.0/m54455\libgcc.a
LOAD c:/nburn/gcc-m68k/bin/../m68k-unknown-elf/sysroot/lib/m54455\libm.a
END GROUP
                0x00000000                __DYNAMIC = 0x0
                0x44000000                PROVIDE (__stack, 0x44000000)
                [!provide]                PROVIDE (hardware_init_hook, 0x0)
                [!provide]                PROVIDE (_hardware_init_hook, 0x0)
                [!provide]                PROVIDE (software_init_hook, 0x0)
                [!provide]                PROVIDE (_software_init_hook, 0x0)

.gcc_except_table._ZN10__cxxabiv111__terminateEPFvvE
                0x40000400       0x1d
 .gcc_except_table._ZN10__cxxabiv111__terminateEPFvvE
                0x40000400       0x1d c:/nburn/gcc-m68k/bin/../m68k-unknown-elf/sysroot/lib/m54455\libstdc++.a(eh_terminate.o)

.gcc_except_table.__gxx_personality_v0
                0x40000420       0x1c
 .gcc_except_table.__gxx_personality_v0
                0x40000420       0x1c c:/nburn/gcc-m68k/bin/../m68k-unknown-elf/sysroot/lib/m54455\libstdc++.a(eh_personality.o)

.gcc_except_table.__cxa_call_unexpected
                0x4000043c       0x1c
 .gcc_except_table.__cxa_call_unexpected
                0x4000043c       0x1c c:/nburn/gcc-m68k/bin/../m68k-unknown-elf/sysroot/lib/m54455\libstdc++.a(eh_personality.o)

.gcc_except_table._ZN9__gnu_cxx27__verbose_terminate_handlerEv
                0x40000458       0x2c
 .gcc_except_table._ZN9__gnu_cxx27__verbose_terminate_handlerEv
                0x40000458       0x2c c:/nburn/gcc-m68k/bin/../m68k-unknown-elf/sysroot/lib/m54455\libstdc++.a(vterminate.o)

.SRAM_SECT      0x80000400     0xac60
                0x80000400                SRAM_START = .
 *(SYS_VAR_SECT)
 SYS_VAR_SECT   0x80000400        0x4 C:\Nburn/lib/NANO54415.a(bsp.o)
                0x80000400                cacrMirror
 SYS_VAR_SECT   0x80000404      0x238 C:\Nburn/lib/NetBurner.a(ucos.o)
                0x80000404                OSRunning
                0x80000406                OSISRLevel
                0x80000408                OSRdyGrp
                0x8000040c                OSLockNesting
                0x80000410                OSIntNesting
                0x80000414                OSTCBFreeList
                0x80000418                OSTCBList
                0x8000041c                OSTCBHighRdy
                0x80000420                OSTCBCur
                0x80000424                OSRdyTbl
                0x8000042c                OSTCBPrioTbl
                0x8000052c                OSUnMapTbl
                0x8000062c                OSMapTbl
                0x80000634                Secs
                0x80000638                TimeTick
 SYS_VAR_SECT   0x8000063c      0x272 C:\Nburn/lib/NetBurner.a(ucosmain.o)
                0x8000064e                critical_count
                0x80000652                OSTcbStructSize
                0x80000656                OSTCBTbl
 SYS_VAR_SECT   0x800008ae       0x1c C:\Nburn/lib/NetBurner.a(fileio.o)
                0x800008ae                fd_map
                0x800008c6                pExtraFdFunc
 SYS_VAR_SECT   0x800008ca       0x20 C:\Nburn/lib/NetBurner.a(iosys.o)
                0x800008d2                error_file_sets
                0x800008da                write_file_sets
                0x800008e2                read_file_sets
                0x800008ea                SYS_VAR_SECT_END = .
                0x800008f0                . = ALIGN (0x10)
 *fill*         0x800008ea        0x6 
 *(IDLE_STK_SECT)
                0x800008f0                IDLE_STK_SECT_END = .
                0x800008f0                . = ALIGN (0x10)
 *(MAIN_STK_SECT)
 MAIN_STK_SECT  0x800008f0     0x3000 C:\Nburn/lib/NetBurner.a(cppmain.o)
                0x800008f0                MainStk
                0x800038f0                MAIN_STK_SECT_END = .
                0x800038f0                . = ALIGN (0x4)
 *(ETHER_VAR_SECT)
 ETHER_VAR_SECT
                0x800038f0      0x280 C:\Nburn/lib/NANO54415.a(ethernet.o)
                0x800038f0                FecFifo
                0x80003910                enet1
                0x80003a40                enet0
                0x80003b70                ETHER_VAR_SECT_END = .
                0x80003b70                . = ALIGN (0x10)
 *(ETHER_STK_SECT)
 ETHER_STK_SECT
                0x80003b70     0x2000 C:\Nburn/lib/NANO54415.a(ethernet.o)
                0x80003b70                EtherSendStk
                0x80005b70                ETHER_STK_SECT_END = .
                0x80005b70                . = ALIGN (0x4)
 *(IP_VAR_SECT)
 IP_VAR_SECT    0x80005b70      0x32a C:\Nburn/lib/NetBurner.a(ip.o)
                0x80005b70                delay
                0x80005b74                next_arp_time
                0x80005b78                multi_if_block
                0x80005e34                multi_home_if_record
                0x80005e5c                nAdditional_Homes
                0x80005e60                pFragFunc
                0x80005e64                pMultiCastFunc
                0x80005e68                pPromisciousPacketFunc
                0x80005e6c                pIpv6Tick
                0x80005e70                pAutoIPTick
                0x80005e74                pMultiTick
                0x80005e78                pDHCPServerTick
                0x80005e7c                pDHCPTick
                0x80005e80                IcmpFifo
                0x80005e84                ipRxFifo
                0x80005e96                bTTL_Default
                0x80005e98                wGlobalPktId
 IP_VAR_SECT    0x80005e9a       0xa4 C:\Nburn/lib/NetBurner.a(udp.o)
                0x80005e9a                UdpNetbiosNameServicePtr
                0x80005e9e                pTaskPacketFunc
                0x80005ea2                pDHCPv6ClientProcessFunction
                0x80005ea6                pDHCPServerProcessFunction
                0x80005eaa                pDHCPProcessFunction
                0x80005eae                UDP_fifos_used
                0x80005eb2                udp_fifos
                0x80005f3e                IP_VAR_SECT_END = .
                0x80005f40                . = ALIGN (0x10)
 *fill*         0x80005f3e        0x2 
 *(IP_STK_SECT)
 IP_STK_SECT    0x80005f40     0x2000 C:\Nburn/lib/NetBurner.a(ip.o)
                0x80005f40                IPStk
                0x80007f40                IP_STK_SECT_END = .
                0x80007f40                . = ALIGN (0x4)
 *(TCP_VAR_SECT)
 TCP_VAR_SECT   0x80007f40       0x20 C:\Nburn/lib/NetBurner.a(tcp.o)
                0x80007f40                TCP_TimerSemaphore
                0x80007f52                TCP_critical_section
                0x80007f60                TCP_VAR_SECT_END = .
                0x80007f60                . = ALIGN (0x10)
 *(TCP_STK_SECT)
 TCP_STK_SECT   0x80007f60     0x3000 C:\Nburn/lib/NetBurner.a(tcp.o)
                0x80007f60                TCPStk
                0x8000af60                TCP_STK_SECT_END = .
                0x8000af60                . = ALIGN (0x10)
 *(HTTP_STK_SECT)
                0x8000af60                HTTP_STK_SECT_END = .
                0x8000af60                . = ALIGN (0x10)
 *(FTP_STK_SECT)
                0x8000af60                FTP_STK_SECT_END = .
                0x8000af60                . = ALIGN (0x10)
 *(WIFI_STK_SECT)
                0x8000af60                WIFI_STK_SECT_END = .
                0x8000af60                . = ALIGN (0x10)
 *(PPP_STK_SECT)
                0x8000af60                PPP_STK_SECT_END = .
                0x8000af60                . = ALIGN (0x10)
 *(COMMAND_STK_SECT)
                0x8000af60                COMMAND_STK_SECT_END = .
                0x8000af60                . = ALIGN (0x4)
 *(USER_VAR_SECT)
 USER_VAR_SECT  0x8000af60       0x16 Drivers\introspec.o
                0x8000af60                LogCrit
                0x8000af6e                LogPut
                0x8000af72                LogGet
 USER_VAR_SECT  0x8000af76       0xbc C:\Nburn/lib/NANO54415.a(HiResTimer.o)
                0x8000af76                _ZN10HiResTimer12timerCreatedE
                0x8000af7a                _ZN10HiResTimer6timersE
                0x8000b032                USER_VAR_SECT_END = .
                0x8000b040                . = ALIGN (0x10)
 *fill*         0x8000b032        0xe 
 *(USER_STK_SECT)
                0x8000b040                USER_STK_SECT_END = .
                0x8000b040                . = ALIGN (0x4)
 *(TLS_VAR_SECT)
                0x8000b040                TLS_VAR_SECT_END = .
                0x8000b040                BUFFERS_SECT_START = .
                0x8000b040                . = ALIGN (0x10)
 *(BUFFERS_VAR_SECT)
 BUFFERS_VAR_SECT
                0x8000b040       0x1c C:\Nburn/lib/NetBurner.a(buffers.o)
                0x8000b040                free_list_is_initialized
                0x8000b044                free_fast_list
                0x8000b04e                free_list
                0x8000b058                FAST_BUFFER_POOL_SIZE
                0x8000b060                . = ALIGN (0x10)
 *fill*         0x8000b05c        0x4 
                0x8000b060                BUFFERS_VAR_SECT_END = .
                0x8000b060                . = ALIGN (0x10)
                0x8000b060                SRAM_END = .

.COLD_SRAM_SECT
                0x8000fffe        0x2
 *(COLD_SRAM_VAR)
 COLD_SRAM_VAR  0x8000fffe        0x2 C:\Nburn/lib/NetBurner.a(ip.o)

.text           0x40000490    0x4f6d0
 nb-crt0.o()
 .text          0x40000490       0xaa c:/nburn/gcc-m68k/bin/../lib/gcc/m68k-unknown-elf/5.2.0/m54455\nb-crt0.o
                0x40000490                start
 *fill*         0x4000053a        0x2 
 .data          0x4000053c        0x4 c:/nburn/gcc-m68k/bin/../lib/gcc/m68k-unknown-elf/5.2.0/m54455\nb-crt0.o
 .bss           0x40000540        0x0 c:/nburn/gcc-m68k/bin/../lib/gcc/m68k-unknown-elf/5.2.0/m54455\nb-crt0.o
                0x40000540                gConfigRec = .
                0x40002540                . = (. + 0x2000)
 *fill*         0x40000540     0x2000 
                0x40002540                UserParamBase = .
                0x40004540                . = (. + 0x2000)
 *fill*         0x40002540     0x2000 
 *(.text)
 .text          0x40004540      0x12c c:/nburn/gcc-m68k/bin/../lib/gcc/m68k-unknown-elf/5.2.0/m54455/crtbegin.o
 .text          0x4000466c        0x8 C:\Nburn/lib/NANO54415.a(hardware_init.o)
                0x4000466c                hardware_init_hook
 *fill*         0x40004674        0xc 
 .text          0x40004680      0x19c C:\Nburn/lib/NANO54415.a(bspa.o)
                0x40004680                CatchNullWrites
                0x40004690                _cache_inval
                0x400046b0                _cache_push
                0x400046d0                _cache_flush
                0x40004710                PushCacheLines
                0x40004760                InvalidateCacheLines
                0x400047b0                FlushCacheLines
 *fill*         0x4000481c        0x4 
 .text          0x40004820      0x41a C:\Nburn/lib/NetBurner.a(ucosmcfa.o)
                0x40004820                OSStartHighRdy
                0x40004840                OSCtxSw
                0x40004870                OSIntCtxSw
                0x400048a0                OSTickISR
                0x400048e0                OSSetupVBR
                0x40004900                OSDebugTraceHalt
                0x40004910                memcpy
                0x40004910                fmemcpy
                0x400049e0                memcpysum
                0x40004b70                memset
                0x40004b70                fmemset
                0x40004c10                GetSR_IntLevel
                0x40004c20                SetSR_IntLevel
 *fill*         0x40004c3a        0x2 
 .text          0x40004c3c        0x8 C:\Nburn/lib/NetBurner.a(software_init.o)
                0x40004c3c                software_init_hook
 .text          0x40004c44       0x2e C:\Nburn/lib/NetBurner.a(ucosmain.o)
                0x40004c44                OSStackProtectCtxSw
 *fill*         0x40004c72        0x2 
 .text          0x40004c74      0x1c0 C:\Nburn/lib/NetBurner.a(ip.o)
                0x40004c74                GetSum
                0x40004d30                GetSum20
                0x40004d68                GetSumHdr
 .text          0x40004e34     0x440e c:/nburn/gcc-m68k/bin/../m68k-unknown-elf/sysroot/lib/m54455\libstdc++.a(cp-demangle.o)
                0x4000912c                __cxa_demangle
                0x4000920c                __gcclibcxx_demangle_callback
 *fill*         0x40009242        0x2 
 .text          0x40009244       0xea c:/nburn/gcc-m68k/bin/../m68k-unknown-elf/sysroot/lib/m54455\libm.a(lib_a-s_cos.o)
                0x40009244                cos
 *fill*         0x4000932e        0x2 
 .text          0x40009330       0x6c c:/nburn/gcc-m68k/bin/../m68k-unknown-elf/sysroot/lib/m54455\libm.a(lib_a-s_fpclassify.o)
                0x40009330                __fpclassifyd
 .text          0x4000939c       0xda c:/nburn/gcc-m68k/bin/../m68k-unknown-elf/sysroot/lib/m54455\libm.a(lib_a-s_modf.o)
                0x4000939c                modf
 *fill*         0x40009476        0x2 
 .text          0x40009478       0xc6 c:/nburn/gcc-m68k/bin/../m68k-unknown-elf/sysroot/lib/m54455\libm.a(lib_a-s_round.o)
                0x40009478                round
 *fill*         0x4000953e        0x2 
 .text          0x40009540       0xea c:/nburn/gcc-m68k/bin/../m68k-unknown-elf/sysroot/lib/m54455\libm.a(lib_a-s_sin.o)
                0x40009540                sin
 *fill*         0x4000962a        0x2 
 .text          0x4000962c      0x436 c:/nburn/gcc-m68k/bin/../m68k-unknown-elf/sysroot/lib/m54455\libm.a(lib_a-w_pow.o)
                0x4000962c                pow
 *fill*         0x40009a62        0x2 
 .text          0x40009a64       0xec c:/nburn/gcc-m68k/bin/../m68k-unknown-elf/sysroot/lib/m54455\libm.a(lib_a-wf_asin.o)
                0x40009a64                asinf
 .text          0x40009b50        0xc c:/nburn/gcc-m68k/bin/../m68k-unknown-elf/sysroot/lib/m54455\libm.a(lib_a-wf_atan2.o)
                0x40009b50                atan2f
 .text          0x40009b5c       0xfe c:/nburn/gcc-m68k/bin/../m68k-unknown-elf/sysroot/lib/m54455\libm.a(lib_a-wf_sqrt.o)
                0x40009b5c                sqrtf
 *fill*         0x40009c5a        0x2 
 .text          0x40009c5c      0xdfe c:/nburn/gcc-m68k/bin/../m68k-unknown-elf/sysroot/lib/m54455\libm.a(lib_a-e_pow.o)
                0x40009c5c                __ieee754_pow
 *fill*         0x4000aa5a        0x2 
 .text          0x4000aa5c      0x5f2 c:/nburn/gcc-m68k/bin/../m68k-unknown-elf/sysroot/lib/m54455\libm.a(lib_a-e_rem_pio2.o)
                0x4000aa5c                __ieee754_rem_pio2
 *fill*         0x4000b04e        0x2 
 .text          0x4000b050      0x1d0 c:/nburn/gcc-m68k/bin/../m68k-unknown-elf/sysroot/lib/m54455\libm.a(lib_a-e_sqrt.o)
                0x4000b050                __ieee754_sqrt
 .text          0x4000b220      0x39a c:/nburn/gcc-m68k/bin/../m68k-unknown-elf/sysroot/lib/m54455\libm.a(lib_a-ef_asin.o)
                0x4000b220                __ieee754_asinf
 *fill*         0x4000b5ba        0x2 
 .text          0x4000b5bc      0x1c6 c:/nburn/gcc-m68k/bin/../m68k-unknown-elf/sysroot/lib/m54455\libm.a(lib_a-ef_atan2.o)
                0x4000b5bc                __ieee754_atan2f
 *fill*         0x4000b782        0x2 
 .text          0x4000b784       0xe4 c:/nburn/gcc-m68k/bin/../m68k-unknown-elf/sysroot/lib/m54455\libm.a(lib_a-ef_sqrt.o)
                0x4000b784                __ieee754_sqrtf
 .text          0x4000b868      0x260 c:/nburn/gcc-m68k/bin/../m68k-unknown-elf/sysroot/lib/m54455\libm.a(lib_a-k_cos.o)
                0x4000b868                __kernel_cos
 .text          0x4000bac8      0x8dc c:/nburn/gcc-m68k/bin/../m68k-unknown-elf/sysroot/lib/m54455\libm.a(lib_a-k_rem_pio2.o)
                0x4000bac8                __kernel_rem_pio2
 .text          0x4000c3a4      0x1fa c:/nburn/gcc-m68k/bin/../m68k-unknown-elf/sysroot/lib/m54455\libm.a(lib_a-k_sin.o)
                0x4000c3a4                __kernel_sin
 *fill*         0x4000c59e        0x2 
 .text          0x4000c5a0       0x1c c:/nburn/gcc-m68k/bin/../m68k-unknown-elf/sysroot/lib/m54455\libm.a(lib_a-s_fabs.o)
                0x4000c5a0                fabs
 .text          0x4000c5bc       0x1c c:/nburn/gcc-m68k/bin/../m68k-unknown-elf/sysroot/lib/m54455\libm.a(lib_a-s_finite.o)
                0x4000c5bc                finite
 .text          0x4000c5d8      0x17c c:/nburn/gcc-m68k/bin/../m68k-unknown-elf/sysroot/lib/m54455\libm.a(lib_a-s_floor.o)
                0x4000c5d8                floor
 .text          0x4000c754        0xa c:/nburn/gcc-m68k/bin/../m68k-unknown-elf/sysroot/lib/m54455\libm.a(lib_a-s_matherr.o)
                0x4000c754                matherr
 *fill*         0x4000c75e        0x2 
 .text          0x4000c760       0x10 c:/nburn/gcc-m68k/bin/../m68k-unknown-elf/sysroot/lib/m54455\libm.a(lib_a-s_nan.o)
                0x4000c760                nan
 .text          0x4000c770      0x19e c:/nburn/gcc-m68k/bin/../m68k-unknown-elf/sysroot/lib/m54455\libm.a(lib_a-s_rint.o)
                0x4000c770                rint
 *fill*         0x4000c90e        0x2 
 .text          0x4000c910      0x188 c:/nburn/gcc-m68k/bin/../m68k-unknown-elf/sysroot/lib/m54455\libm.a(lib_a-s_scalbn.o)
                0x4000c910                scalbn
 .text          0x4000ca98      0x2c0 c:/nburn/gcc-m68k/bin/../m68k-unknown-elf/sysroot/lib/m54455\libm.a(lib_a-sf_atan.o)
                0x4000ca98                atanf
 .text          0x4000cd58       0x10 c:/nburn/gcc-m68k/bin/../m68k-unknown-elf/sysroot/lib/m54455\libm.a(lib_a-sf_fabs.o)
                0x4000cd58                fabsf
 .text          0x4000cd68       0x4a c:/nburn/gcc-m68k/bin/../m68k-unknown-elf/sysroot/lib/m54455\libm.a(lib_a-sf_fpclassify.o)
                0x4000cd68                __fpclassifyf
 *fill*         0x4000cdb2        0x2 
 .text          0x4000cdb4       0x2a c:/nburn/gcc-m68k/bin/../m68k-unknown-elf/sysroot/lib/m54455\libm.a(lib_a-s_copysign.o)
                0x4000cdb4                copysign
 *fill*         0x4000cdde        0x2 
 .text          0x4000cde0      0xba0 c:/nburn/gcc-m68k/bin/../lib/gcc/m68k-unknown-elf/5.2.0/m54455\libgcc.a(_double.o)
                0x4000ce3a                __subdf3
                0x4000ce40                __adddf3
                0x4000d2dc                __muldf3
                0x4000d4b8                __divdf3
                0x4000d7a8                __negdf2
                0x4000d806                __cmpdf2_internal
                0x4000d8de                __cmpdf2
 .text          0x4000d980      0x7ca c:/nburn/gcc-m68k/bin/../lib/gcc/m68k-unknown-elf/5.2.0/m54455\libgcc.a(_float.o)
                0x4000d9c8                __subsf3
                0x4000d9ce                __addsf3
                0x4000dcb0                __mulsf3
                0x4000ddf2                __divsf3
                0x4000dfe6                __negsf2
                0x4000e038                __cmpsf2_internal
                0x4000e0d8                __cmpsf2
 *fill*         0x4000e14a        0x2 
 .text          0x4000e14c       0x74 c:/nburn/gcc-m68k/bin/../lib/gcc/m68k-unknown-elf/5.2.0/m54455\libgcc.a(_floatex.o)
                0x4000e14c                __clear_sticky_bit
                0x4000e158                $_exception_handler
 .text          0x4000e1c0       0x22 c:/nburn/gcc-m68k/bin/../lib/gcc/m68k-unknown-elf/5.2.0/m54455\libgcc.a(_eqdf2.o)
                0x4000e1c0                __eqdf2
 *fill*         0x4000e1e2        0x2 
 .text          0x4000e1e4       0x22 c:/nburn/gcc-m68k/bin/../lib/gcc/m68k-unknown-elf/5.2.0/m54455\libgcc.a(_nedf2.o)
                0x4000e1e4                __nedf2
 *fill*         0x4000e206        0x2 
 .text          0x4000e208       0x22 c:/nburn/gcc-m68k/bin/../lib/gcc/m68k-unknown-elf/5.2.0/m54455\libgcc.a(_gtdf2.o)
                0x4000e208                __gtdf2
 *fill*         0x4000e22a        0x2 
 .text          0x4000e22c       0x22 c:/nburn/gcc-m68k/bin/../lib/gcc/m68k-unknown-elf/5.2.0/m54455\libgcc.a(_gedf2.o)
                0x4000e22c                __gedf2
 *fill*         0x4000e24e        0x2 
 .text          0x4000e250       0x22 c:/nburn/gcc-m68k/bin/../lib/gcc/m68k-unknown-elf/5.2.0/m54455\libgcc.a(_ltdf2.o)
                0x4000e250                __ltdf2
 *fill*         0x4000e272        0x2 
 .text          0x4000e274       0x22 c:/nburn/gcc-m68k/bin/../lib/gcc/m68k-unknown-elf/5.2.0/m54455\libgcc.a(_ledf2.o)
                0x4000e274                __ledf2
 *fill*         0x4000e296        0x2 
 .text          0x4000e298       0x1a c:/nburn/gcc-m68k/bin/../lib/gcc/m68k-unknown-elf/5.2.0/m54455\libgcc.a(_eqsf2.o)
                0x4000e298                __eqsf2
 *fill*         0x4000e2b2        0x2 
 .text          0x4000e2b4       0x1a c:/nburn/gcc-m68k/bin/../lib/gcc/m68k-unknown-elf/5.2.0/m54455\libgcc.a(_gtsf2.o)
                0x4000e2b4                __gtsf2
 *fill*         0x4000e2ce        0x2 
 .text          0x4000e2d0       0x1a c:/nburn/gcc-m68k/bin/../lib/gcc/m68k-unknown-elf/5.2.0/m54455\libgcc.a(_ltsf2.o)
                0x4000e2d0                __ltsf2
 *fill*         0x4000e2ea        0x2 
 .text          0x4000e2ec       0x66 c:/nburn/gcc-m68k/bin/../lib/gcc/m68k-unknown-elf/5.2.0/m54455\libgcc.a(_muldi3.o)
                0x4000e2ec                __muldi3
 *fill*         0x4000e352        0x2 
 .text          0x4000e354       0x76 c:/nburn/gcc-m68k/bin/../lib/gcc/m68k-unknown-elf/5.2.0/m54455\libgcc.a(_fixunsdfsi.o)
                0x4000e354                __fixunsdfsi
 *fill*         0x4000e3ca        0x2 
 .text          0x4000e3cc       0x7a c:/nburn/gcc-m68k/bin/../lib/gcc/m68k-unknown-elf/5.2.0/m54455\libgcc.a(_fixunsdfdi.o)
                0x4000e3cc                __fixunsdfdi
 *fill*         0x4000e446        0x2 
 .text          0x4000e448      0x3fe c:/nburn/gcc-m68k/bin/../lib/gcc/m68k-unknown-elf/5.2.0/m54455\libgcc.a(_udivdi3.o)
                0x4000e448                __udivdi3
 *fill*         0x4000e846        0x2 
 .text          0x4000e848      0x372 c:/nburn/gcc-m68k/bin/../lib/gcc/m68k-unknown-elf/5.2.0/m54455\libgcc.a(_umoddi3.o)
                0x4000e848                __umoddi3
 *fill*         0x4000ebba        0x2 
 .text          0x4000ebbc      0x442 c:/nburn/gcc-m68k/bin/../lib/gcc/m68k-unknown-elf/5.2.0/m54455\libgcc.a(fpgnulib.o)
                0x4000ebbc                __unordsf2
                0x4000ec14                __unorddf2
                0x4000ec7e                __floatunsidf
                0x4000ece2                __floatsidf
                0x4000ed8e                __floatunsisf
                0x4000eda8                __floatsisf
                0x4000edc2                __extendsfdf2
                0x4000ee2e                __truncdfsf2
                0x4000ef58                __fixdfsi
                0x4000efe4                __fixsfsi
 *fill*         0x4000effe        0x2 
 .text          0x4000f000     0x21b4 c:/nburn/gcc-m68k/bin/../lib/gcc/m68k-unknown-elf/5.2.0/m54455\libgcc.a(unwind-dw2.o)
                0x40010bda                _Unwind_GetGR
                0x40010c40                _Unwind_GetCFA
                0x40010c50                _Unwind_SetGR
                0x40010cba                _Unwind_GetIP
                0x40010cca                _Unwind_GetIPInfo
                0x40010cea                _Unwind_SetIP
                0x40010cfc                _Unwind_GetLanguageSpecificData
                0x40010d0c                _Unwind_GetRegionStart
                0x40010d1c                _Unwind_FindEnclosingFunction
                0x40010d46                _Unwind_GetDataRelBase
                0x40010d56                _Unwind_GetTextRelBase
                0x40010d66                __frame_state_for
                0x40010e32                _Unwind_RaiseException
                0x40010f4c                _Unwind_ForcedUnwind
                0x40010fe0                _Unwind_Resume
                0x40011076                _Unwind_Resume_or_Rethrow
                0x40011110                _Unwind_DeleteException
                0x4001112e                _Unwind_Backtrace
 .text          0x400111b4     0x126e c:/nburn/gcc-m68k/bin/../lib/gcc/m68k-unknown-elf/5.2.0/m54455\libgcc.a(unwind-dw2-fde.o)
                0x40012008                __register_frame_info_bases
                0x40012050                __register_frame_info
                0x40012098                __register_frame
                0x400120f0                __register_frame_info_table_bases
                0x4001213a                __register_frame_info_table
                0x40012180                __register_frame_table
                0x400121d0                __deregister_frame_info_bases
                0x400122a6                __deregister_frame_info
                0x400122b0                __deregister_frame
                0x400122d4                _Unwind_Find_FDE
 *fill*         0x40012422        0x2 
 .text          0x40012424       0x18 c:/nburn/gcc-m68k/bin/../m68k-unknown-elf/sysroot/lib/m54455\libc.a(lib_a-abort.o)
                0x40012424                abort
 .text          0x4001243c       0x18 c:/nburn/gcc-m68k/bin/../m68k-unknown-elf/sysroot/lib/m54455\libc.a(lib_a-atexit.o)
                0x4001243c                atexit
 .text          0x40012454       0x34 c:/nburn/gcc-m68k/bin/../m68k-unknown-elf/sysroot/lib/m54455\libc.a(lib_a-atoi.o)
                0x40012454                atoi
                0x4001246c                _atoi_r
 .text          0x40012488       0x5c c:/nburn/gcc-m68k/bin/../m68k-unknown-elf/sysroot/lib/m54455\libc.a(lib_a-bsearch.o)
                0x40012488                bsearch
 .text          0x400124e4       0x1e c:/nburn/gcc-m68k/bin/../m68k-unknown-elf/sysroot/lib/m54455\libc.a(lib_a-cxa_atexit.o)
                0x400124e4                __cxa_atexit
 *fill*         0x40012502        0x2 
 .text          0x40012504        0xe c:/nburn/gcc-m68k/bin/../m68k-unknown-elf/sysroot/lib/m54455\libc.a(lib_a-errno.o)
                0x40012504                __errno
 *fill*         0x40012512        0x2 
 .text          0x40012514       0x5c c:/nburn/gcc-m68k/bin/../m68k-unknown-elf/sysroot/lib/m54455\libc.a(lib_a-fputc.o)
                0x40012514                _fputc_r
                0x40012556                fputc
 .text          0x40012570       0xa4 c:/nburn/gcc-m68k/bin/../m68k-unknown-elf/sysroot/lib/m54455\libc.a(lib_a-fputs.o)
                0x40012570                _fputs_r
                0x400125fa                fputs
 .text          0x40012614      0x366 c:/nburn/gcc-m68k/bin/../m68k-unknown-elf/sysroot/lib/m54455\libc.a(lib_a-fvwrite.o)
                0x40012614                __sfvwrite_r
 *fill*         0x4001297a        0x2 
 .text          0x4001297c       0x1a c:/nburn/gcc-m68k/bin/../m68k-unknown-elf/sysroot/lib/m54455\libc.a(lib_a-isspace.o)
                0x4001297c                isspace
 *fill*         0x40012996        0x2 
 .text          0x40012998       0x32 c:/nburn/gcc-m68k/bin/../m68k-unknown-elf/sysroot/lib/m54455\libc.a(lib_a-malloc.o)
                0x40012998                malloc
                0x400129b0                free
 *fill*         0x400129ca        0x2 
 .text          0x400129cc      0x584 c:/nburn/gcc-m68k/bin/../m68k-unknown-elf/sysroot/lib/m54455\libc.a(lib_a-mallocr.o)
                0x400129cc                _malloc_r
 .text          0x40012f50       0x32 c:/nburn/gcc-m68k/bin/../m68k-unknown-elf/sysroot/lib/m54455\libc.a(lib_a-memchr.o)
                0x40012f50                memchr
 *fill*         0x40012f82        0x2 
 .text          0x40012f84       0x32 c:/nburn/gcc-m68k/bin/../m68k-unknown-elf/sysroot/lib/m54455\libc.a(lib_a-memcmp.o)
                0x40012f84                memcmp
 *fill*         0x40012fb6        0x2 
 .text          0x40012fb8       0x54 c:/nburn/gcc-m68k/bin/../m68k-unknown-elf/sysroot/lib/m54455\libc.a(lib_a-memmove.o)
                0x40012fb8                memmove
 .text          0x4001300c       0xa0 c:/nburn/gcc-m68k/bin/../m68k-unknown-elf/sysroot/lib/m54455\libc.a(lib_a-putc.o)
                0x4001300c                _putc_r
                0x40013092                putc
 .text          0x400130ac       0xac c:/nburn/gcc-m68k/bin/../m68k-unknown-elf/sysroot/lib/m54455\libc.a(lib_a-puts.o)
                0x400130ac                _puts_r
                0x40013142                puts
 .text          0x40013158       0x62 c:/nburn/gcc-m68k/bin/../m68k-unknown-elf/sysroot/lib/m54455\libc.a(lib_a-rand.o)
                0x40013158                srand
                0x40013170                rand
 *fill*         0x400131ba        0x2 
 .text          0x400131bc       0x1c c:/nburn/gcc-m68k/bin/../m68k-unknown-elf/sysroot/lib/m54455\libc.a(lib_a-realloc.o)
                0x400131bc                realloc
 .text          0x400131d8      0x456 c:/nburn/gcc-m68k/bin/../m68k-unknown-elf/sysroot/lib/m54455\libc.a(lib_a-reallocr.o)
                0x400131d8                _realloc_r
 *fill*         0x4001362e        0x2 
 .text          0x40013630      0x146 c:/nburn/gcc-m68k/bin/../m68k-unknown-elf/sysroot/lib/m54455\libc.a(lib_a-setvbuf.o)
                0x40013630                setvbuf
 *fill*         0x40013776        0x2 
 .text          0x40013778      0x1ce c:/nburn/gcc-m68k/bin/../m68k-unknown-elf/sysroot/lib/m54455\libc.a(lib_a-signal.o)
                0x40013778                _init_signal_r
                0x400137c0                _signal_r
                0x4001380c                _raise_r
                0x40013880                __sigtramp_r
                0x400138ee                raise
                0x40013904                signal
                0x4001391e                _init_signal
                0x40013930                __sigtramp
 *fill*         0x40013946        0x2 
 .text          0x40013948       0x3e c:/nburn/gcc-m68k/bin/../m68k-unknown-elf/sysroot/lib/m54455\libc.a(lib_a-signalr.o)
                0x40013948                _kill_r
                0x4001397a                _getpid_r
 *fill*         0x40013986        0x2 
 .text          0x40013988       0x18 c:/nburn/gcc-m68k/bin/../m68k-unknown-elf/sysroot/lib/m54455\libc.a(lib_a-stpcpy.o)
                0x40013988                stpcpy
 .text          0x400139a0       0x2e c:/nburn/gcc-m68k/bin/../m68k-unknown-elf/sysroot/lib/m54455\libc.a(lib_a-strcat.o)
                0x400139a0                strcat
 *fill*         0x400139ce        0x2 
 .text          0x400139d0       0x2e c:/nburn/gcc-m68k/bin/../m68k-unknown-elf/sysroot/lib/m54455\libc.a(lib_a-strcmp.o)
                0x400139d0                strcmp
 *fill*         0x400139fe        0x2 
 .text          0x40013a00       0x1c c:/nburn/gcc-m68k/bin/../m68k-unknown-elf/sysroot/lib/m54455\libc.a(lib_a-strcpy.o)
                0x40013a00                strcpy
 .text          0x40013a1c       0x1a c:/nburn/gcc-m68k/bin/../m68k-unknown-elf/sysroot/lib/m54455\libc.a(lib_a-strlen.o)
                0x40013a1c                strlen
 *fill*         0x40013a36        0x2 
 .text          0x40013a38       0x4e c:/nburn/gcc-m68k/bin/../m68k-unknown-elf/sysroot/lib/m54455\libc.a(lib_a-strncmp.o)
                0x40013a38                strncmp
 *fill*         0x40013a86        0x2 
 .text          0x40013a88       0x30 c:/nburn/gcc-m68k/bin/../m68k-unknown-elf/sysroot/lib/m54455\libc.a(lib_a-strncpy.o)
                0x40013a88                strncpy
 .text          0x40013ab8       0x4a c:/nburn/gcc-m68k/bin/../m68k-unknown-elf/sysroot/lib/m54455\libc.a(lib_a-strstr.o)
                0x40013ab8                strstr
 *fill*         0x40013b02        0x2 
 .text          0x40013b04      0x16e c:/nburn/gcc-m68k/bin/../m68k-unknown-elf/sysroot/lib/m54455\libc.a(lib_a-strtol.o)
                0x40013b04                _strtol_r
                0x40013c54                strtol
 *fill*         0x40013c72        0x2 
 .text          0x40013c74       0x2a c:/nburn/gcc-m68k/bin/../m68k-unknown-elf/sysroot/lib/m54455\libc.a(lib_a-tolower.o)
                0x40013c74                tolower
 *fill*         0x40013c9e        0x2 
 .text          0x40013ca0       0x2a c:/nburn/gcc-m68k/bin/../m68k-unknown-elf/sysroot/lib/m54455\libc.a(lib_a-toupper.o)
                0x40013ca0                toupper
 *fill*         0x40013cca        0x2 
 .text          0x40013ccc       0xf4 c:/nburn/gcc-m68k/bin/../m68k-unknown-elf/sysroot/lib/m54455\libc.a(lib_a-wbuf.o)
                0x40013ccc                __swbuf_r
                0x40013da6                __swbuf
 .text          0x40013dc0      0x116 c:/nburn/gcc-m68k/bin/../m68k-unknown-elf/sysroot/lib/m54455\libc.a(lib_a-wsetup.o)
                0x40013dc0                __swsetup_r
 *fill*         0x40013ed6        0x2 
 .text          0x40013ed8       0xa0 c:/nburn/gcc-m68k/bin/../m68k-unknown-elf/sysroot/lib/m54455\libc.a(lib_a-__atexit.o)
                0x40013ed8                __register_exitproc
 .text          0x40013f78      0x204 c:/nburn/gcc-m68k/bin/../m68k-unknown-elf/sysroot/lib/m54455\libc.a(lib_a-fflush.o)
                0x40013f78                __sflush_r
                0x40014100                _fflush_r
                0x4001414e                fflush
 .text          0x4001417c      0x28c c:/nburn/gcc-m68k/bin/../m68k-unknown-elf/sysroot/lib/m54455\libc.a(lib_a-findfp.o)
                0x40014186                _cleanup_r
                0x40014222                __sfmoreglue
                0x4001427e                _cleanup
                0x40014292                __sinit
                0x40014302                __sfp
                0x400143b4                __sfp_lock_acquire
                0x400143bc                __sfp_lock_release
                0x400143c4                __sinit_lock_acquire
                0x400143cc                __sinit_lock_release
                0x400143d4                __fp_lock_all
                0x400143ee                __fp_unlock_all
 .text          0x40014408      0x2ec c:/nburn/gcc-m68k/bin/../m68k-unknown-elf/sysroot/lib/m54455\libc.a(lib_a-freer.o)
                0x40014408                _malloc_trim_r
                0x400144dc                _free_r
 .text          0x400146f4       0xb4 c:/nburn/gcc-m68k/bin/../m68k-unknown-elf/sysroot/lib/m54455\libc.a(lib_a-fwalk.o)
                0x400146f4                _fwalk
                0x4001474c                _fwalk_reent
 .text          0x400147a8      0x152 c:/nburn/gcc-m68k/bin/../m68k-unknown-elf/sysroot/lib/m54455\libc.a(lib_a-makebuf.o)
                0x400147a8                __smakebuf_r
 *fill*         0x400148fa        0x2 
 .text          0x400148fc      0x126 c:/nburn/gcc-m68k/bin/../m68k-unknown-elf/sysroot/lib/m54455\libc.a(lib_a-stdio.o)
                0x400148fc                __sread
                0x40014940                __seofread
                0x4001494a                __swrite
                0x400149b6                __sseek
                0x40014a0a                __sclose
 *fill*         0x40014a22        0x2 
 .text          0x40014a24       0x38 c:/nburn/gcc-m68k/bin/../m68k-unknown-elf/sysroot/lib/m54455\libc.a(lib_a-writer.o)
                0x40014a24                _write_r
 .text          0x40014a5c       0x2e c:/nburn/gcc-m68k/bin/../m68k-unknown-elf/sysroot/lib/m54455\libc.a(lib_a-closer.o)
                0x40014a5c                _close_r
 *fill*         0x40014a8a        0x2 
 .text          0x40014a8c       0xe2 c:/nburn/gcc-m68k/bin/../m68k-unknown-elf/sysroot/lib/m54455\libc.a(lib_a-fclose.o)
                0x40014a8c                _fclose_r
                0x40014b58                fclose
 *fill*         0x40014b6e        0x2 
 .text          0x40014b70       0x32 c:/nburn/gcc-m68k/bin/../m68k-unknown-elf/sysroot/lib/m54455\libc.a(lib_a-fstatr.o)
                0x40014b70                _fstat_r
 *fill*         0x40014ba2        0x2 
 .text          0x40014ba4       0x2e c:/nburn/gcc-m68k/bin/../m68k-unknown-elf/sysroot/lib/m54455\libc.a(lib_a-isattyr.o)
                0x40014ba4                _isatty_r
 *fill*         0x40014bd2        0x2 
 .text          0x40014bd4       0x38 c:/nburn/gcc-m68k/bin/../m68k-unknown-elf/sysroot/lib/m54455\libc.a(lib_a-lseekr.o)
                0x40014bd4                _lseek_r
 .text          0x40014c0c       0x38 c:/nburn/gcc-m68k/bin/../m68k-unknown-elf/sysroot/lib/m54455\libc.a(lib_a-readr.o)
                0x40014c0c                _read_r
 .text          0x40014c44       0x32 c:/nburn/gcc-m68k/bin/../lib/gcc/m68k-unknown-elf/5.2.0/m54455/crtend.o
                0x40014c80                . = ALIGN (0x10)
 *fill*         0x40014c76        0xa 
 *(.text.*)
 .text._Z9LCDUpdatePv
                0x40014c80       0xe8 main.o
                0x40014c80                _Z9LCDUpdatePv
 .text._Z5DrivePv
                0x40014d68      0x126 main.o
                0x40014d68                _Z5DrivePv
 *fill*         0x40014e8e        0x2 
 .text._Z4initv
                0x40014e90      0x220 main.o
                0x40014e90                _Z4initv
 .text.UserMain
                0x400150b0       0xfc main.o
                0x400150b0                UserMain
 .text.startup._GLOBAL__sub_I_MainTaskSem
                0x400151ac       0xb8 main.o
 .text._ZN7Utility4modeEv
                0x40015264       0x32 Utility.o
                0x40015264                _ZN7Utility4modeEv
 *fill*         0x40015296        0x2 
 .text._ZN7Utility9odoToFeetEm
                0x40015298       0x46 Utility.o
                0x40015298                _ZN7Utility9odoToFeetEm
 *fill*         0x400152de        0x2 
 .text._ZN7Utility10degreeWrapEf
                0x400152e0       0x90 Utility.o
                0x400152e0                _ZN7Utility10degreeWrapEf
 .text._ZN3NavD2Ev
                0x40015370        0x8 Nav.o
                0x40015370                _ZN3NavD1Ev
                0x40015370                _ZN3NavD2Ev
 .text._ZN3NavD0Ev
                0x40015378       0x1c Nav.o
                0x40015378                _ZN3NavD0Ev
 .text._ZN3NavC2Ev
                0x40015394       0x12 Nav.o
                0x40015394                _ZN3NavC2Ev
                0x40015394                _ZN3NavC1Ev
 *fill*         0x400153a6        0x2 
 .text._ZN3Nav4getXEv
                0x400153a8       0x14 Nav.o
                0x400153a8                _ZN3Nav4getXEv
 .text._ZN3Nav4getYEv
                0x400153bc       0x14 Nav.o
                0x400153bc                _ZN3Nav4getYEv
 .text._ZN3Nav9navUpdateEv
                0x400153d0      0x232 Nav.o
                0x400153d0                _ZN3Nav9navUpdateEv
 *fill*         0x40015602        0x2 
 .text._ZN3Nav8getSteerEv
                0x40015604        0xc Nav.o
                0x40015604                _ZN3Nav8getSteerEv
 .text._ZN3Nav11getThrottleEv
                0x40015610        0xc Nav.o
                0x40015610                _ZN3Nav11getThrottleEv
 .text._ZN13MainLogObject9GetExtentERPmS1_
                0x4001561c       0x24 Logger.o
                0x4001561c                _ZN13MainLogObject9GetExtentERPmS1_
 .text._ZN6Logger7logLoopEPv
                0x40015640      0x13c Logger.o
                0x40015640                _ZN6Logger7logLoopEPv
 .text._ZN13MainLogObject8BuildOneEv
                0x4001577c      0x204 Logger.o
                0x4001577c                _ZN13MainLogObject8BuildOneEv
 .text._ZN13MainLogObjectC2Ev
                0x40015980      0x2be Logger.o
                0x40015980                _ZN13MainLogObjectC2Ev
                0x40015980                _ZN13MainLogObjectC1Ev
 *fill*         0x40015c3e        0x2 
 .text._ZN6Logger8logBeginEv
                0x40015c40       0x3a Logger.o
                0x40015c40                _ZN6Logger8logBeginEv
 *fill*         0x40015c7a        0x2 
 .text.startup._GLOBAL__sub_I_mainLog
                0x40015c7c       0x1a Logger.o
 *fill*         0x40015c96        0x2 
 .text._Z11CoreRcTimeri
                0x40015c98       0xfa Drivers\servodrive.o
                0x40015c98                _Z11CoreRcTimeri
 *fill*         0x40015d92        0x2 
 .text._Z12fake_Ch0_ISRv
                0x40015d94       0x54 Drivers\servodrive.o
                0x40015d94                _Z12fake_Ch0_ISRv
                0x40015d98                Ch0_ISR
 .text.real_Ch0_ISR
                0x40015de8       0x16 Drivers\servodrive.o
                0x40015de8                real_Ch0_ISR
 *fill*         0x40015dfe        0x2 
 .text._Z12fake_Ch1_ISRv
                0x40015e00       0x54 Drivers\servodrive.o
                0x40015e00                _Z12fake_Ch1_ISRv
                0x40015e04                Ch1_ISR
 .text.real_Ch1_ISR
                0x40015e54       0x18 Drivers\servodrive.o
                0x40015e54                real_Ch1_ISR
 .text._Z14ServoDriveInitv
                0x40015e6c      0x16e Drivers\servodrive.o
                0x40015e6c                _Z14ServoDriveInitv
 *fill*         0x40015fda        0x2 
 .text._Z11SetServoPosid
                0x40015fdc      0x134 Drivers\servodrive.o
                0x40015fdc                _Z11SetServoPosid
 .text._Z11SetServoRawii
                0x40016110       0xc2 Drivers\servodrive.o
                0x40016110                _Z11SetServoRawii
 *fill*         0x400161d2        0x2 
 .text._Z11getServoPosi
                0x400161d4       0x1c Drivers\servodrive.o
                0x400161d4                _Z11getServoPosi
 .text._Z14PinFunctionPWMi
                0x400161f0      0x11a Drivers\pwm.o
                0x400161f0                _Z14PinFunctionPWMi
 *fill*         0x4001630a        0x2 
 .text._Z18CheckLoadOkayClearv
                0x4001630c       0x7c Drivers\pwm.o
                0x4001630c                _Z18CheckLoadOkayClearv
 .text._Z19RegisterDefinitionsih
                0x40016388       0x9a Drivers\pwm.o
                0x40016388                _Z19RegisterDefinitionsih
 *fill*         0x40016422        0x2 
 .text._Z14EdgeAlignedPWMiii
                0x40016424      0x408 Drivers\pwm.o
                0x40016424                _Z14EdgeAlignedPWMiii
 .text._Z6PinPWMiid
                0x4001682c       0x86 Drivers\pwm.o
                0x4001682c                _Z6PinPWMiid
 *fill*         0x400168b2        0x2 
 .text._Z22BuildOrFindDescriptionPKc
                0x400168b4       0xa2 Drivers\introspec.o
                0x400168b4                _Z22BuildOrFindDescriptionPKc
 *fill*         0x40016956        0x2 
 .text._ZN15IntrospecObjectC2EPKc
                0x40016958       0x1c Drivers\introspec.o
                0x40016958                _ZN15IntrospecObjectC1EPKc
                0x40016958                _ZN15IntrospecObjectC2EPKc
 .text._Z14LogEscapedByteh
                0x40016974       0x72 Drivers\introspec.o
                0x40016974                _Z14LogEscapedByteh
 *fill*         0x400169e6        0x2 
 .text._Z10LogRawByteh
                0x400169e8       0x58 Drivers\introspec.o
                0x400169e8                _Z10LogRawByteh
 .text._Z8LogRaw32m
                0x40016a40      0x130 Drivers\introspec.o
                0x40016a40                _Z8LogRaw32m
 .text._ZN15IntrospecObject7ElementEPvmPKcc
                0x40016b70       0x94 Drivers\introspec.o
                0x40016b70                _ZN15IntrospecObject7ElementEPvmPKcc
 .text._ZN15IntrospecObject12LogStructureEv
                0x40016c04       0x98 Drivers\introspec.o
                0x40016c04                _ZN15IntrospecObject12LogStructureEv
 .text._ZN15IntrospecObject3LogEb
                0x40016c9c      0x136 Drivers\introspec.o
                0x40016c9c                _ZN15IntrospecObject3LogEb
 *fill*         0x40016dd2        0x2 
 .text._Z10LogMessagePKcb
                0x40016dd4       0x84 Drivers\introspec.o
                0x40016dd4                _Z10LogMessagePKcb
 .text._Z12WriteLogToFdi
                0x40016e58       0xf0 Drivers\introspec.o
                0x40016e58                _Z12WriteLogToFdi
 .text._Z10GetLogSizev
                0x40016f48       0x80 Drivers\introspec.o
                0x40016f48                _Z10GetLogSizev
 .text._Z10InitLogFtpi
                0x40016fc8       0x20 Drivers\introspec.o
                0x40016fc8                _Z10InitLogFtpi
 .text._Z22FTPD_GetFileFromClientPKcS0_Pvi
                0x40016fe8        0xa Drivers\introspec.o
                0x40016fe8                _Z22FTPD_GetFileFromClientPKcS0_Pvi
 *fill*         0x40016ff2        0x2 
 .text._Z21FTPD_AbleToCreateFilePKcS0_Pv
                0x40016ff4        0xa Drivers\introspec.o
                0x40016ff4                _Z21FTPD_AbleToCreateFilePKcS0_Pv
 *fill*         0x40016ffe        0x2 
 .text._Z16FTPDSessionStartPKcS0_7IPADDR4
                0x40017000        0xa Drivers\introspec.o
                0x40017000                _Z16FTPDSessionStartPKcS0_7IPADDR4
 *fill*         0x4001700a        0x2 
 .text._Z14FTPDSessionEndPv
                0x4001700c        0x8 Drivers\introspec.o
                0x4001700c                _Z14FTPDSessionEndPv
 .text._Z23FTPD_ListSubDirectoriesPKcPvPFviS0_Ei
                0x40017014        0xa Drivers\introspec.o
                0x40017014                _Z23FTPD_ListSubDirectoriesPKcPvPFviS0_Ei
 *fill*         0x4001701e        0x2 
 .text._Z20FTPD_DirectoryExistsPKcPv
                0x40017020        0xa Drivers\introspec.o
                0x40017020                _Z20FTPD_DirectoryExistsPKcPv
 *fill*         0x4001702a        0x2 
 .text._Z23FTPD_CreateSubDirectoryPKcS0_Pv
                0x4001702c        0xa Drivers\introspec.o
                0x4001702c                _Z23FTPD_CreateSubDirectoryPKcS0_Pv
 *fill*         0x40017036        0x2 
 .text._Z23FTPD_DeleteSubDirectoryPKcS0_Pv
                0x40017038        0xa Drivers\introspec.o
                0x40017038                _Z23FTPD_DeleteSubDirectoryPKcS0_Pv
 *fill*         0x40017042        0x2 
 .text._Z15FTPD_DeleteFilePKcS0_Pv
                0x40017044       0x60 Drivers\introspec.o
                0x40017044                _Z15FTPD_DeleteFilePKcS0_Pv
 .text._Z11FTPD_RenamePKcS0_S0_Pv
                0x400170a4        0xa Drivers\introspec.o
                0x400170a4                _Z11FTPD_RenamePKcS0_S0_Pv
 *fill*         0x400170ae        0x2 
 .text._Z16FTPD_GetFileSizePKcS0_
                0x400170b0        0xa Drivers\introspec.o
                0x400170b0                _Z16FTPD_GetFileSizePKcS0_
 *fill*         0x400170ba        0x2 
 .text._Z12getdirstringPKclPc
                0x400170bc       0xac Drivers\introspec.o
                0x400170bc                _Z12getdirstringPKclPc
 .text._Z13FTPD_ListFilePKcPvPFviS0_Ei
                0x40017168       0x5e Drivers\introspec.o
                0x40017168                _Z13FTPD_ListFilePKcPvPFviS0_Ei
 *fill*         0x400171c6        0x2 
 .text._Z21FTPD_SendFileToClientPKcS0_Pvi
                0x400171c8       0x78 Drivers\introspec.o
                0x400171c8                _Z21FTPD_SendFileToClientPKcS0_Pvi
 .text._Z15FTPD_FileExistsPKcS0_Pv
                0x40017240        0xa Drivers\introspec.o
                0x40017240                _Z15FTPD_FileExistsPKcS0_Pv
 *fill*         0x4001724a        0x2 
 .text._ZN7FileLogC2EPKc
                0x4001724c       0x20 Drivers\introspec.o
                0x4001724c                _ZN7FileLogC2EPKc
                0x4001724c                _ZN7FileLogC1EPKc
 .text._Z15LogFileVersionsv
                0x4001726c       0x5e Drivers\introspec.o
                0x4001726c                _Z15LogFileVersionsv
 *fill*         0x400172ca        0x2 
 .text.startup._GLOBAL__sub_I__ZN15IntrospecObject7bShowMeE
                0x400172cc       0x44 Drivers\introspec.o
 .text._Z15RC_ProcessCharsih
                0x40017310       0xe6 Drivers\dsm2.o
                0x40017310                _Z15RC_ProcessCharsih
 *fill*         0x400173f6        0x2 
 .text._Z10InitDSM2Rxi
                0x400173f8       0x52 Drivers\dsm2.o
                0x400173f8                _Z10InitDSM2Rxi
 *fill*         0x4001744a        0x2 
 .text._ZN13SpinningLidar17SpinningLidarInitEv
                0x4001744c       0x34 Drivers\SpinningLidar.o
                0x4001744c                _ZN13SpinningLidar17SpinningLidarInitEv
 .text._ZN13SpinningLidar11checkHealthEi
                0x40017480       0xe6 Drivers\SpinningLidar.o
                0x40017480                _ZN13SpinningLidar11checkHealthEi
 *fill*         0x40017566        0x2 
 .text._ZN13SpinningLidar9hardResetEi
                0x40017568       0x46 Drivers\SpinningLidar.o
                0x40017568                _ZN13SpinningLidar9hardResetEi
 *fill*         0x400175ae        0x2 
 .text._ZN13SpinningLidar9startScanEi
                0x400175b0       0x78 Drivers\SpinningLidar.o
                0x400175b0                _ZN13SpinningLidar9startScanEi
 .text._ZN13SpinningLidar11processcharEih
                0x40017628      0x154 Drivers\SpinningLidar.o
                0x40017628                _ZN13SpinningLidar11processcharEih
 .text._ZN13SpinningLidar9LidarTaskEPv
                0x4001777c      0x118 Drivers\SpinningLidar.o
                0x4001777c                _ZN13SpinningLidar9LidarTaskEPv
 .text._ZN8OdometerD2Ev
                0x40017894        0x8 Drivers\Odometer.o
                0x40017894                _ZN8OdometerD2Ev
                0x40017894                _ZN8OdometerD1Ev
 .text._ZN8OdometerD0Ev
                0x4001789c       0x1c Drivers\Odometer.o
                0x4001789c                _ZN8OdometerD0Ev
 .text._ZN8Odometer6OdoIrqEv
                0x400178b8       0x46 Drivers\Odometer.o
                0x400178b8                _ZN8Odometer6OdoIrqEv
 *fill*         0x400178fe        0x2 
 .text._ZN8OdometerC2Ev
                0x40017900       0x12 Drivers\Odometer.o
                0x40017900                _ZN8OdometerC1Ev
                0x40017900                _ZN8OdometerC2Ev
 *fill*         0x40017912        0x2 
 .text._ZN8OdometerC2Ei
                0x40017914       0x52 Drivers\Odometer.o
                0x40017914                _ZN8OdometerC1Ei
                0x40017914                _ZN8OdometerC2Ei
 *fill*         0x40017966        0x2 
 .text._ZN8Odometer8getCountEv
                0x40017968        0xe Drivers\Odometer.o
                0x40017968                _ZN8Odometer8getCountEv
 .text._ZN5Madge24MadgwickQuaternionUpdateEfffffffff
                0x40017976      0xde8 Drivers\MadgwickFilter.o
                0x40017976                _ZN5Madge24MadgwickQuaternionUpdateEfffffffff
 *fill*         0x4001875e        0x2 
 .text._ZN7MPU9250C2Eh
                0x40018760       0x66 Drivers\MPU9250.o
                0x40018760                _ZN7MPU9250C1Eh
                0x40018760                _ZN7MPU9250C2Eh
 *fill*         0x400187c6        0x2 
 .text._ZN7MPU92507getMresEh
                0x400187c8       0x4e Drivers\MPU9250.o
                0x400187c8                _ZN7MPU92507getMresEh
 *fill*         0x40018816        0x2 
 .text._ZN7MPU92507getGresEh
                0x40018818       0x7e Drivers\MPU9250.o
                0x40018818                _ZN7MPU92507getGresEh
 *fill*         0x40018896        0x2 
 .text._ZN7MPU92507getAresEh
                0x40018898       0x7e Drivers\MPU9250.o
                0x40018898                _ZN7MPU92507getAresEh
 *fill*         0x40018916        0x2 
 .text._ZN7MPU925018I2CWriteReadBufferEhhPhi
                0x40018918       0xb0 Drivers\MPU9250.o
                0x40018918                _ZN7MPU925018I2CWriteReadBufferEhhPhi
 .text._ZN7MPU925011initMPU9250Ehh
                0x400189c8      0x1f8 Drivers\MPU9250.o
                0x400189c8                _ZN7MPU925011initMPU9250Ehh
 .text._ZN7MPU925015readMPU9250DataEPs
                0x40018bc0       0xfa Drivers\MPU9250.o
                0x40018bc0                _ZN7MPU925015readMPU9250DataEPs
 *fill*         0x40018cba        0x2 
 .text._ZN7MPU925011readMagDataEPs
                0x40018cbc       0x72 Drivers\MPU9250.o
                0x40018cbc                _ZN7MPU925011readMagDataEPs
 *fill*         0x40018d2e        0x2 
 .text._ZN7MPU925013magcalMPU9250EPfS0_
                0x40018d30      0x332 Drivers\MPU9250.o
                0x40018d30                _ZN7MPU925013magcalMPU9250EPfS0_
 *fill*         0x40019062        0x2 
 .text._ZN7MPU925010initAK8963EhhPf
                0x40019064      0x1ea Drivers\MPU9250.o
                0x40019064                _ZN7MPU925010initAK8963EhhPf
 *fill*         0x4001924e        0x2 
 .text._ZN7MPU925016calibrateMPU9250EPfS0_
                0x40019250      0x81e Drivers\MPU9250.o
                0x40019250                _ZN7MPU925016calibrateMPU9250EPfS0_
 *fill*         0x40019a6e        0x2 
 .text._ZN7MPU92508SelfTestEPf
                0x40019a70      0x8cc Drivers\MPU9250.o
                0x40019a70                _ZN7MPU92508SelfTestEPf
 .text._ZN7MPU92508readByteEhh
                0x4001a33c       0x2e Drivers\MPU9250.o
                0x4001a33c                _ZN7MPU92508readByteEhh
 *fill*         0x4001a36a        0x2 
 .text._ZN7MPU9250C2Ev
                0x4001a36c        0x8 Drivers\MPU9250.o
                0x4001a36c                _ZN7MPU9250C2Ev
                0x4001a36c                _ZN7MPU9250C1Ev
 .text._Z20fake_LIDAR_ISR_RIGHTv
                0x4001a374       0x54 Drivers\LidarPWM.o
                0x4001a374                _Z20fake_LIDAR_ISR_RIGHTv
                0x4001a378                LIDAR_ISR_RIGHT
 .text.real_LIDAR_ISR_RIGHT
                0x4001a3c8       0x90 Drivers\LidarPWM.o
                0x4001a3c8                real_LIDAR_ISR_RIGHT
 .text._Z12LidarPWMInitv
                0x4001a458       0x7c Drivers\LidarPWM.o
                0x4001a458                _Z12LidarPWMInitv
 .text._ZN3LCDD2Ev
                0x4001a4d4        0x8 Drivers\LCD.o
                0x4001a4d4                _ZN3LCDD2Ev
                0x4001a4d4                _ZN3LCDD1Ev
 .text._ZN3LCDD0Ev
                0x4001a4dc       0x1c Drivers\LCD.o
                0x4001a4dc                _ZN3LCDD0Ev
 .text._ZN3LCDC2Ev
                0x4001a4f8       0x16 Drivers\LCD.o
                0x4001a4f8                _ZN3LCDC1Ev
                0x4001a4f8                _ZN3LCDC2Ev
 *fill*         0x4001a50e        0x2 
 .text._ZN3LCDC2Eii
                0x4001a510       0x3c Drivers\LCD.o
                0x4001a510                _ZN3LCDC1Eii
                0x4001a510                _ZN3LCDC2Eii
 .text._ZN3LCD5clearEv
                0x4001a54c       0x7c Drivers\LCD.o
                0x4001a54c                _ZN3LCD5clearEv
 .text._ZN3LCD5printEPKc
                0x4001a5c8       0x1a Drivers\LCD.o
                0x4001a5c8                _ZN3LCD5printEPKc
 *fill*         0x4001a5e2        0x2 
 .text._ZN3LCD5printEPKci
                0x4001a5e4       0x1a Drivers\LCD.o
                0x4001a5e4                _ZN3LCD5printEPKci
 *fill*         0x4001a5fe        0x2 
 .text._Z4Pirqv
                0x4001a600       0x28 Drivers\IMUSetupAndSample.o
                0x4001a600                _Z4Pirqv
 .text._Z13IMUSampleLoopPv
                0x4001a628      0xaee Drivers\IMUSetupAndSample.o
                0x4001a628                _Z13IMUSampleLoopPv
 *fill*         0x4001b116        0x2 
 .text._Z15CalibAccAndGyrov
                0x4001b118      0x216 Drivers\IMUSetupAndSample.o
                0x4001b118                _Z15CalibAccAndGyrov
 *fill*         0x4001b32e        0x2 
 .text._Z9unclodI2Cv
                0x4001b330       0xf0 Drivers\IMUSetupAndSample.o
                0x4001b330                _Z9unclodI2Cv
 .text._Z11whoAmICheckv
                0x4001b420       0x80 Drivers\IMUSetupAndSample.o
                0x4001b420                _Z11whoAmICheckv
 .text._Z8IMUSetupv
                0x4001b4a0      0x242 Drivers\IMUSetupAndSample.o
                0x4001b4a0                _Z8IMUSetupv
 *fill*         0x4001b6e2        0x2 
 .text._Z6IMURunv
                0x4001b6e4       0x6a Drivers\IMUSetupAndSample.o
                0x4001b6e4                _Z6IMURunv
 *fill*         0x4001b74e        0x2 
 .text._Z10getHeadingv
                0x4001b750        0xe Drivers\IMUSetupAndSample.o
                0x4001b750                _Z10getHeadingv
 *fill*         0x4001b75e        0x2 
 .text._Z13getQuaternionv
                0x4001b760        0xe Drivers\IMUSetupAndSample.o
                0x4001b760                _Z13getQuaternionv
 *fill*         0x4001b76e        0x2 
 .text.startup._GLOBAL__sub_I_Gscale
                0x4001b770       0x9e Drivers\IMUSetupAndSample.o
 *fill*         0x4001b80e        0x2 
 .text._Z14DoHtmlFunctioniPKct
                0x4001b810        0xa htmldata.o
                0x4001b810                _Z14DoHtmlFunctioniPKct
 *fill*         0x4001b81a        0x2 
 .text._Z14DoHtmlVariableit
                0x4001b81c        0xa htmldata.o
                0x4001b81c                _Z14DoHtmlVariableit
 *fill*         0x4001b826        0x2 
 .text.__tcf_0  0x4001b828       0x38 C:\Nburn/lib/NANO54415.a(serial.o)
 .text._Z11BaseGetChari
                0x4001b860       0xac C:\Nburn/lib/NANO54415.a(serial.o)
                0x4001b860                _Z11BaseGetChari
 .text._Z14InitializeMapsv.part.1
                0x4001b90c       0x76 C:\Nburn/lib/NANO54415.a(serial.o)
 *fill*         0x4001b982        0x2 
 .text._Z6WakeTxi
                0x4001b984       0x8c C:\Nburn/lib/NANO54415.a(serial.o)
                0x4001b984                _Z6WakeTxi
 .text._Z11BasePutCharih
                0x4001ba10       0xf0 C:\Nburn/lib/NANO54415.a(serial.o)
                0x4001ba10                _Z11BasePutCharih
 .text._Z8serwriteiPKci
                0x4001bb00      0x156 C:\Nburn/lib/NANO54415.a(serial.o)
                0x4001bb00                _Z8serwriteiPKci
 *fill*         0x4001bc56        0x2 
 .text._Z8DoSerIsri
                0x4001bc58      0x302 C:\Nburn/lib/NANO54415.a(serial.o)
                0x4001bc58                _Z8DoSerIsri
 *fill*         0x4001bf5a        0x2 
 .text._Z14fake_SER_0_ISRv
                0x4001bf5c       0x54 C:\Nburn/lib/NANO54415.a(serial.o)
                0x4001bf5c                _Z14fake_SER_0_ISRv
                0x4001bf60                SER_0_ISR
 .text.real_SER_0_ISR
                0x4001bfb0       0x12 C:\Nburn/lib/NANO54415.a(serial.o)
                0x4001bfb0                real_SER_0_ISR
 *fill*         0x4001bfc2        0x2 
 .text._Z14fake_SER_1_ISRv
                0x4001bfc4       0x54 C:\Nburn/lib/NANO54415.a(serial.o)
                0x4001bfc4                _Z14fake_SER_1_ISRv
                0x4001bfc8                SER_1_ISR
 .text.real_SER_1_ISR
                0x4001c018       0x14 C:\Nburn/lib/NANO54415.a(serial.o)
                0x4001c018                real_SER_1_ISR
 .text._Z14fake_SER_2_ISRv
                0x4001c02c       0x54 C:\Nburn/lib/NANO54415.a(serial.o)
                0x4001c02c                _Z14fake_SER_2_ISRv
                0x4001c030                SER_2_ISR
 .text.real_SER_2_ISR
                0x4001c080       0x14 C:\Nburn/lib/NANO54415.a(serial.o)
                0x4001c080                real_SER_2_ISR
 .text._Z14fake_SER_3_ISRv
                0x4001c094       0x54 C:\Nburn/lib/NANO54415.a(serial.o)
                0x4001c094                _Z14fake_SER_3_ISRv
                0x4001c098                SER_3_ISR
 .text.real_SER_3_ISR
                0x4001c0e8       0x14 C:\Nburn/lib/NANO54415.a(serial.o)
                0x4001c0e8                real_SER_3_ISR
 .text._Z14fake_SER_4_ISRv
                0x4001c0fc       0x54 C:\Nburn/lib/NANO54415.a(serial.o)
                0x4001c0fc                _Z14fake_SER_4_ISRv
                0x4001c100                SER_4_ISR
 .text.real_SER_4_ISR
                0x4001c150       0x14 C:\Nburn/lib/NANO54415.a(serial.o)
                0x4001c150                real_SER_4_ISR
 .text._Z14fake_SER_5_ISRv
                0x4001c164       0x54 C:\Nburn/lib/NANO54415.a(serial.o)
                0x4001c164                _Z14fake_SER_5_ISRv
                0x4001c168                SER_5_ISR
 .text.real_SER_5_ISR
                0x4001c1b8       0x14 C:\Nburn/lib/NANO54415.a(serial.o)
                0x4001c1b8                real_SER_5_ISR
 .text._Z14fake_SER_6_ISRv
                0x4001c1cc       0x54 C:\Nburn/lib/NANO54415.a(serial.o)
                0x4001c1cc                _Z14fake_SER_6_ISRv
                0x4001c1d0                SER_6_ISR
 .text.real_SER_6_ISR
                0x4001c220       0x14 C:\Nburn/lib/NANO54415.a(serial.o)
                0x4001c220                real_SER_6_ISR
 .text._Z14fake_SER_7_ISRv
                0x4001c234       0x54 C:\Nburn/lib/NANO54415.a(serial.o)
                0x4001c234                _Z14fake_SER_7_ISRv
                0x4001c238                SER_7_ISR
 .text.real_SER_7_ISR
                0x4001c288       0x14 C:\Nburn/lib/NANO54415.a(serial.o)
                0x4001c288                real_SER_7_ISR
 .text._Z14fake_SER_8_ISRv
                0x4001c29c       0x54 C:\Nburn/lib/NANO54415.a(serial.o)
                0x4001c29c                _Z14fake_SER_8_ISRv
                0x4001c2a0                SER_8_ISR
 .text.real_SER_8_ISR
                0x4001c2f0       0x14 C:\Nburn/lib/NANO54415.a(serial.o)
                0x4001c2f0                real_SER_8_ISR
 .text._Z14fake_SER_9_ISRv
                0x4001c304       0x54 C:\Nburn/lib/NANO54415.a(serial.o)
                0x4001c304                _Z14fake_SER_9_ISRv
                0x4001c308                SER_9_ISR
 .text.real_SER_9_ISR
                0x4001c358       0x14 C:\Nburn/lib/NANO54415.a(serial.o)
                0x4001c358                real_SER_9_ISR
 .text._Z10serreadwtoiPcii
                0x4001c36c      0x21a C:\Nburn/lib/NANO54415.a(serial.o)
                0x4001c36c                _Z10serreadwtoiPcii
 *fill*         0x4001c586        0x2 
 .text._Z7serreadiPci
                0x4001c588       0x1c C:\Nburn/lib/NANO54415.a(serial.o)
                0x4001c588                _Z7serreadiPci
 .text._Z10OpenSerialijii11parity_mode
                0x4001c5a4      0x6f0 C:\Nburn/lib/NANO54415.a(serial.o)
                0x4001c5a4                _Z10OpenSerialijii11parity_mode
 .text._Z11SerialClosei
                0x4001cc94       0xda C:\Nburn/lib/NANO54415.a(serial.o)
                0x4001cc94                _Z11SerialClosei
 *fill*         0x4001cd6e        0x2 
 .text._Z16serexternalclosei
                0x4001cd70       0x34 C:\Nburn/lib/NANO54415.a(serial.o)
                0x4001cd70                _Z16serexternalclosei
 .text.startup._GLOBAL__sub_I_Uarts
                0x4001cda4       0x5e C:\Nburn/lib/NANO54415.a(serial.o)
 *fill*         0x4001ce02        0x2 
 .text._ZN5PinIO3setEh
                0x4001ce04      0xa84 C:\Nburn/lib/NANO54415.a(pins.o)
                0x4001ce04                _ZN5PinIO3setEh
 .text._ZN5PinIO4readEv
                0x4001d888      0x5d8 C:\Nburn/lib/NANO54415.a(pins.o)
                0x4001d888                _ZN5PinIO4readEv
 .text._ZN5PinIO8functionEi
                0x4001de60      0x524 C:\Nburn/lib/NANO54415.a(pins.o)
                0x4001de60                _ZN5PinIO8functionEi
 .text._Z15GetSpiFlashCritv
                0x4001e384       0x46 C:\Nburn/lib/NANO54415.a(FlashOps.o)
                0x4001e384                _Z15GetSpiFlashCritv
 *fill*         0x4001e3ca        0x2 
 .text._Z10FlashErasePvi
                0x4001e3cc       0xac C:\Nburn/lib/NANO54415.a(FlashOps.o)
                0x4001e3cc                _Z10FlashErasePvi
 .text._Z12FlashProgramPvS_i
                0x4001e478      0x160 C:\Nburn/lib/NANO54415.a(FlashOps.o)
                0x4001e478                _Z12FlashProgramPvS_i
 .text.CopySPIFlashImageOnBoot
                0x4001e5d8       0x66 C:\Nburn/lib/NANO54415.a(FlashOps.o)
                0x4001e5d8                CopySPIFlashImageOnBoot
 *fill*         0x4001e63e        0x2 
 .text.startup._GLOBAL__sub_I_SPI_Main
                0x4001e640       0x4a C:\Nburn/lib/NANO54415.a(FlashOps.o)
 *fill*         0x4001e68a        0x2 
 .text.__tcf_0  0x4001e68c        0x8 C:\Nburn/lib/NANO54415.a(HiResTimer.o)
 .text._Z21fake_Timer0_Interruptv
                0x4001e694       0x54 C:\Nburn/lib/NANO54415.a(HiResTimer.o)
                0x4001e694                _Z21fake_Timer0_Interruptv
                0x4001e698                Timer0_Interrupt
 .text.real_Timer0_Interrupt
                0x4001e6e8       0x6c C:\Nburn/lib/NANO54415.a(HiResTimer.o)
                0x4001e6e8                real_Timer0_Interrupt
 .text._Z21fake_Timer1_Interruptv
                0x4001e754       0x54 C:\Nburn/lib/NANO54415.a(HiResTimer.o)
                0x4001e754                _Z21fake_Timer1_Interruptv
                0x4001e758                Timer1_Interrupt
 .text.real_Timer1_Interrupt
                0x4001e7a8       0x6c C:\Nburn/lib/NANO54415.a(HiResTimer.o)
                0x4001e7a8                real_Timer1_Interrupt
 .text._Z21fake_Timer2_Interruptv
                0x4001e814       0x54 C:\Nburn/lib/NANO54415.a(HiResTimer.o)
                0x4001e814                _Z21fake_Timer2_Interruptv
                0x4001e818                Timer2_Interrupt
 .text.real_Timer2_Interrupt
                0x4001e868       0x6c C:\Nburn/lib/NANO54415.a(HiResTimer.o)
                0x4001e868                real_Timer2_Interrupt
 .text._Z21fake_Timer3_Interruptv
                0x4001e8d4       0x54 C:\Nburn/lib/NANO54415.a(HiResTimer.o)
                0x4001e8d4                _Z21fake_Timer3_Interruptv
                0x4001e8d8                Timer3_Interrupt
 .text.real_Timer3_Interrupt
                0x4001e928       0x6c C:\Nburn/lib/NANO54415.a(HiResTimer.o)
                0x4001e928                real_Timer3_Interrupt
 .text._ZN10HiResTimer10init_ticksEmi
                0x4001e994       0xf2 C:\Nburn/lib/NANO54415.a(HiResTimer.o)
                0x4001e994                _ZN10HiResTimer10init_ticksEmi
 *fill*         0x4001ea86        0x2 
 .text._ZN10HiResTimer4initEd
                0x4001ea88      0x122 C:\Nburn/lib/NANO54415.a(HiResTimer.o)
                0x4001ea88                _ZN10HiResTimer4initEd
 *fill*         0x4001ebaa        0x2 
 .text._ZN10HiResTimer8readTimeEv
                0x4001ebac       0xfe C:\Nburn/lib/NANO54415.a(HiResTimer.o)
                0x4001ebac                _ZN10HiResTimer8readTimeEv
 *fill*         0x4001ecaa        0x2 
 .text._ZN10HiResTimer5delayEd
                0x4001ecac       0x70 C:\Nburn/lib/NANO54415.a(HiResTimer.o)
                0x4001ecac                _ZN10HiResTimer5delayEd
 .text._ZN10HiResTimerC2Ei
                0x4001ed1c       0x5e C:\Nburn/lib/NANO54415.a(HiResTimer.o)
                0x4001ed1c                _ZN10HiResTimerC2Ei
                0x4001ed1c                _ZN10HiResTimerC1Ei
 *fill*         0x4001ed7a        0x2 
 .text._ZN10HiResTimer13getHiResTimerEi
                0x4001ed7c       0xf8 C:\Nburn/lib/NANO54415.a(HiResTimer.o)
                0x4001ed7c                _ZN10HiResTimer13getHiResTimerEi
 .text.startup._GLOBAL__sub_I__ZN10HiResTimer6timersE
                0x4001ee74       0x58 C:\Nburn/lib/NANO54415.a(HiResTimer.o)
 .text._Z18fake_firq2_pin_isrv
                0x4001eecc       0x54 C:\Nburn/lib/NANO54415.a(pin_irq.o)
                0x4001eecc                _Z18fake_firq2_pin_isrv
                0x4001eed0                firq2_pin_isr
 .text.real_firq2_pin_isr
                0x4001ef20       0x28 C:\Nburn/lib/NANO54415.a(pin_irq.o)
                0x4001ef20                real_firq2_pin_isr
 .text._Z18fake_firq3_pin_isrv
                0x4001ef48       0x54 C:\Nburn/lib/NANO54415.a(pin_irq.o)
                0x4001ef48                _Z18fake_firq3_pin_isrv
                0x4001ef4c                firq3_pin_isr
 .text.real_firq3_pin_isr
                0x4001ef9c       0x28 C:\Nburn/lib/NANO54415.a(pin_irq.o)
                0x4001ef9c                real_firq3_pin_isr
 .text._Z9SetPinIrqiiPFvvE
                0x4001efc4      0x266 C:\Nburn/lib/NANO54415.a(pin_irq.o)
                0x4001efc4                _Z9SetPinIrqiiPFvvE
 *fill*         0x4001f22a        0x2 
 .text._Z5xTickv
                0x4001f22c       0x1c C:\Nburn/lib/NANO54415.a(bsp.o)
                0x4001f22c                _Z5xTickv
                0x4001f230                Tick5441X
 .text._Z7SetIntcilii
                0x4001f248       0xc0 C:\Nburn/lib/NANO54415.a(bsp.o)
                0x4001f248                _Z7SetIntcilii
 .text._Z11ForceRebootb
                0x4001f308       0x26 C:\Nburn/lib/NANO54415.a(bsp.o)
                0x4001f308                _Z11ForceRebootb
 *fill*         0x4001f32e        0x2 
 .text._Z12DisableCachev
                0x4001f330       0x56 C:\Nburn/lib/NANO54415.a(bsp.o)
                0x4001f330                _Z12DisableCachev
 *fill*         0x4001f386        0x2 
 .text._Z11EnableCachev
                0x4001f388       0x42 C:\Nburn/lib/NANO54415.a(bsp.o)
                0x4001f388                _Z11EnableCachev
 *fill*         0x4001f3ca        0x2 
 .text._Z13HardwareSetupl
                0x4001f3cc      0x1e0 C:\Nburn/lib/NANO54415.a(bsp.o)
                0x4001f3cc                _Z13HardwareSetupl
 .text._sbrk_r  0x4001f5ac       0x48 C:\Nburn/lib/NANO54415.a(bsp.o)
                0x4001f5ac                _sbrk_r
 .text._Z18BspGetTickFractionv
                0x4001f5f4       0x18 C:\Nburn/lib/NANO54415.a(bsp.o)
                0x4001f5f4                _Z18BspGetTickFractionv
 .text._Z13GetUartRecordi
                0x4001f60c       0x3a C:\Nburn/lib/NANO54415.a(localio.o)
                0x4001f60c                _Z13GetUartRecordi
 *fill*         0x4001f646        0x2 
 .text._Z11LocalInBytev
                0x4001f648       0x5e C:\Nburn/lib/NANO54415.a(localio.o)
                0x4001f648                _Z11LocalInBytev
 *fill*         0x4001f6a6        0x2 
 .text._Z12LocalOutBytec
                0x4001f6a8       0x66 C:\Nburn/lib/NANO54415.a(localio.o)
                0x4001f6a8                _Z12LocalOutBytec
 *fill*         0x4001f70e        0x2 
 .text.MultiChannel_I2CInit
                0x4001f710      0x1e6 C:\Nburn/lib/NANO54415.a(multichanneli2c.o)
                0x4001f710                MultiChannel_I2CInit
 *fill*         0x4001f8f6        0x2 
 .text.MultiChannel_I2CRestart
                0x4001f8f8       0x42 C:\Nburn/lib/NANO54415.a(multichanneli2c.o)
                0x4001f8f8                MultiChannel_I2CRestart
 *fill*         0x4001f93a        0x2 
 .text.MultiChannel_I2CSendBuf
                0x4001f93c      0x1ac C:\Nburn/lib/NANO54415.a(multichanneli2c.o)
                0x4001f93c                MultiChannel_I2CSendBuf
 .text.MultiChannel_I2CReadBuf
                0x4001fae8      0x25e C:\Nburn/lib/NANO54415.a(multichanneli2c.o)
                0x4001fae8                MultiChannel_I2CReadBuf
 *fill*         0x4001fd46        0x2 
 .text.I2CMultiChannelResetPeripheral
                0x4001fd48       0x24 C:\Nburn/lib/NANO54415.a(multichanneli2c.o)
                0x4001fd48                I2CMultiChannelResetPeripheral
 .text.startup._GLOBAL__sub_I_I2C_SlaveTX_Callback
                0x4001fd6c       0x26 C:\Nburn/lib/NANO54415.a(multichanneli2c.o)
 *fill*         0x4001fd92        0x2 
 .text._Z14SetDefPinUsagev
                0x4001fd94      0x1aa C:\Nburn/lib/NANO54415.a(defpins.o)
                0x4001fd94                _Z14SetDefPinUsagev
 *fill*         0x4001ff3e        0x2 
 .text._ZN8SPIFlashC2Ei
                0x4001ff40       0x66 C:\Nburn/lib/NANO54415.a(SPIFlash.o)
                0x4001ff40                _ZN8SPIFlashC1Ei
                0x4001ff40                _ZN8SPIFlashC2Ei
 *fill*         0x4001ffa6        0x2 
 .text._ZN8SPIFlashD2Ev
                0x4001ffa8        0x8 C:\Nburn/lib/NANO54415.a(SPIFlash.o)
                0x4001ffa8                _ZN8SPIFlashD1Ev
                0x4001ffa8                _ZN8SPIFlashD2Ev
 .text._ZN8SPIFlash9SpiAscCmdEPKc
                0x4001ffb0      0x1ce C:\Nburn/lib/NANO54415.a(SPIFlash.o)
                0x4001ffb0                _ZN8SPIFlash9SpiAscCmdEPKc
 *fill*         0x4002017e        0x2 
 .text._ZN8SPIFlash9WriteDataEPhii
                0x40020180      0x490 C:\Nburn/lib/NANO54415.a(SPIFlash.o)
                0x40020180                _ZN8SPIFlash9WriteDataEPhii
 .text._ZN8SPIFlash11EraseSectorEi
                0x40020610      0x2d6 C:\Nburn/lib/NANO54415.a(SPIFlash.o)
                0x40020610                _ZN8SPIFlash11EraseSectorEi
 *fill*         0x400208e6        0x2 
 .text._ZN8SPIFlash15WriteDataWEraseEPhii
                0x400208e8       0x7a C:\Nburn/lib/NANO54415.a(SPIFlash.o)
                0x400208e8                _ZN8SPIFlash15WriteDataWEraseEPhii
 *fill*         0x40020962        0x2 
 .text._ZN8SPIFlash10EraseRangeEii
                0x40020964       0x64 C:\Nburn/lib/NANO54415.a(SPIFlash.o)
                0x40020964                _ZN8SPIFlash10EraseRangeEii
 .text._ZN8SPIFlash7ResetMeEv
                0x400209c8      0x164 C:\Nburn/lib/NANO54415.a(SPIFlash.o)
                0x400209c8                _ZN8SPIFlash7ResetMeEv
 .text._ZN8SPIFlash8ReadDataEPhii
                0x40020b2c      0x34e C:\Nburn/lib/NANO54415.a(SPIFlash.o)
                0x40020b2c                _ZN8SPIFlash8ReadDataEPhii
 *fill*         0x40020e7a        0x2 
 .text._Z34fake_i2c0_multichannel_int_routinev
                0x40020e7c       0x54 C:\Nburn/lib/NANO54415.a(i2c_class.o)
                0x40020e7c                _Z34fake_i2c0_multichannel_int_routinev
                0x40020e80                i2c0_multichannel_int_routine
 .text._Z34fake_i2c1_multichannel_int_routinev
                0x40020ed0       0x54 C:\Nburn/lib/NANO54415.a(i2c_class.o)
                0x40020ed0                _Z34fake_i2c1_multichannel_int_routinev
                0x40020ed4                i2c1_multichannel_int_routine
 .text._Z34fake_i2c2_multichannel_int_routinev
                0x40020f24       0x54 C:\Nburn/lib/NANO54415.a(i2c_class.o)
                0x40020f24                _Z34fake_i2c2_multichannel_int_routinev
                0x40020f28                i2c2_multichannel_int_routine
 .text._Z34fake_i2c3_multichannel_int_routinev
                0x40020f78       0x54 C:\Nburn/lib/NANO54415.a(i2c_class.o)
                0x40020f78                _Z34fake_i2c3_multichannel_int_routinev
                0x40020f7c                i2c3_multichannel_int_routine
 .text._Z34fake_i2c4_multichannel_int_routinev
                0x40020fcc       0x54 C:\Nburn/lib/NANO54415.a(i2c_class.o)
                0x40020fcc                _Z34fake_i2c4_multichannel_int_routinev
                0x40020fd0                i2c4_multichannel_int_routine
 .text._Z34fake_i2c5_multichannel_int_routinev
                0x40021020       0x54 C:\Nburn/lib/NANO54415.a(i2c_class.o)
                0x40021020                _Z34fake_i2c5_multichannel_int_routinev
                0x40021024                i2c5_multichannel_int_routine
 .text._ZN10i2c_masterC2Ev
                0x40021074       0x48 C:\Nburn/lib/NANO54415.a(i2c_class.o)
                0x40021074                _ZN10i2c_masterC2Ev
                0x40021074                _ZN10i2c_masterC1Ev
 .text._ZN10i2c_master4initEhh
                0x400210bc      0x1b0 C:\Nburn/lib/NANO54415.a(i2c_class.o)
                0x400210bc                _ZN10i2c_master4initEhh
 .text._ZN10i2c_master5resetEv
                0x4002126c       0x8e C:\Nburn/lib/NANO54415.a(i2c_class.o)
                0x4002126c                _ZN10i2c_master5resetEv
 *fill*         0x400212fa        0x2 
 .text._ZN10i2c_master4stopEm
                0x400212fc       0x76 C:\Nburn/lib/NANO54415.a(i2c_class.o)
                0x400212fc                _ZN10i2c_master4stopEm
 *fill*         0x40021372        0x2 
 .text._ZN10i2c_master6write8Ehm
                0x40021374       0x96 C:\Nburn/lib/NANO54415.a(i2c_class.o)
                0x40021374                _ZN10i2c_master6write8Ehm
 *fill*         0x4002140a        0x2 
 .text._ZN10i2c_master5startEhbm
                0x4002140c       0xe4 C:\Nburn/lib/NANO54415.a(i2c_class.o)
                0x4002140c                _ZN10i2c_master5startEhbm
 .text._ZN10i2c_master7restartEhbm
                0x400214f0       0xaa C:\Nburn/lib/NANO54415.a(i2c_class.o)
                0x400214f0                _ZN10i2c_master7restartEhbm
 *fill*         0x4002159a        0x2 
 .text._ZN10i2c_master5read8EPhm
                0x4002159c       0x86 C:\Nburn/lib/NANO54415.a(i2c_class.o)
                0x4002159c                _ZN10i2c_master5read8EPhm
 *fill*         0x40021622        0x2 
 .text._ZN10i2c_master16SlaveRX_CallbackEh
                0x40021624       0x78 C:\Nburn/lib/NANO54415.a(i2c_class.o)
                0x40021624                _ZN10i2c_master16SlaveRX_CallbackEh
 .text._ZN10i2c_master3isrEv
                0x4002169c      0x35e C:\Nburn/lib/NANO54415.a(i2c_class.o)
                0x4002169c                _ZN10i2c_master3isrEv
 *fill*         0x400219fa        0x2 
 .text.real_i2c0_multichannel_int_routine
                0x400219fc       0x16 C:\Nburn/lib/NANO54415.a(i2c_class.o)
                0x400219fc                real_i2c0_multichannel_int_routine
 *fill*         0x40021a12        0x2 
 .text.real_i2c1_multichannel_int_routine
                0x40021a14       0x16 C:\Nburn/lib/NANO54415.a(i2c_class.o)
                0x40021a14                real_i2c1_multichannel_int_routine
 *fill*         0x40021a2a        0x2 
 .text.real_i2c2_multichannel_int_routine
                0x40021a2c       0x16 C:\Nburn/lib/NANO54415.a(i2c_class.o)
                0x40021a2c                real_i2c2_multichannel_int_routine
 *fill*         0x40021a42        0x2 
 .text.real_i2c3_multichannel_int_routine
                0x40021a44       0x16 C:\Nburn/lib/NANO54415.a(i2c_class.o)
                0x40021a44                real_i2c3_multichannel_int_routine
 *fill*         0x40021a5a        0x2 
 .text.real_i2c4_multichannel_int_routine
                0x40021a5c       0x16 C:\Nburn/lib/NANO54415.a(i2c_class.o)
                0x40021a5c                real_i2c4_multichannel_int_routine
 *fill*         0x40021a72        0x2 
 .text.real_i2c5_multichannel_int_routine
                0x40021a74       0x16 C:\Nburn/lib/NANO54415.a(i2c_class.o)
                0x40021a74                real_i2c5_multichannel_int_routine
 *fill*         0x40021a8a        0x2 
 .text.startup._GLOBAL__sub_I_I2C
                0x40021a8c       0x34 C:\Nburn/lib/NANO54415.a(i2c_class.o)
 .text.startup  0x40021ac0        0xc C:\Nburn/lib/NetBurner.a(main.o)
                0x40021ac0                main
 .text._Z22TopOfStackKillfunctionv
                0x40021acc        0xc C:\Nburn/lib/NetBurner.a(ucosmcfc.o)
                0x40021acc                _Z22TopOfStackKillfunctionv
                0x40021ad0                KillFunctionLink
 .text._Z9OSTCBInithPvS_PlPKc
                0x40021ad8       0xd6 C:\Nburn/lib/NetBurner.a(ucosmcfc.o)
                0x40021ad8                _Z9OSTCBInithPvS_PlPKc
 *fill*         0x40021bae        0x2 
 .text._Z17OSTaskCreatewNamePFvPvES_S_S_hPKc.part.0
                0x40021bb0      0x1d2 C:\Nburn/lib/NetBurner.a(ucosmcfc.o)
 *fill*         0x40021d82        0x2 
 .text._Z17OSTaskCreatewNamePFvPvES_S_S_hPKc
                0x40021d84       0x44 C:\Nburn/lib/NetBurner.a(ucosmcfc.o)
                0x40021d84                _Z17OSTaskCreatewNamePFvPvES_S_S_hPKc
 .text._ZL10OSTaskIdlePv
                0x40021dc8       0x2a C:\Nburn/lib/NetBurner.a(ucos.o)
 *fill*         0x40021df2        0x2 
 .text._Z6OSInitPvS_h
                0x40021df4      0x174 C:\Nburn/lib/NetBurner.a(ucos.o)
                0x40021df4                _Z6OSInitPvS_h
 .text._Z7OSStartv
                0x40021f68       0x7c C:\Nburn/lib/NetBurner.a(ucos.o)
                0x40021f68                _Z7OSStartv
 .text.OSSched  0x40021fe4       0x92 C:\Nburn/lib/NetBurner.a(ucos.o)
                0x40021fe4                OSSched
                0x40022068                UCOSWAITS_HERE
 *fill*         0x40022076        0x2 
 .text.OSIntExit
                0x40022078       0x94 C:\Nburn/lib/NetBurner.a(ucos.o)
                0x40022078                OSIntExit
 .text._Z9OSTimeDlyt
                0x4002210c       0xb4 C:\Nburn/lib/NetBurner.a(ucos.o)
                0x4002210c                _Z9OSTimeDlyt
 .text.OSTimeTick
                0x400221c0      0x104 C:\Nburn/lib/NetBurner.a(ucos.o)
                0x400221c0                OSTimeTick
 .text._Z12OSTCBGetFreev
                0x400222c4       0x2c C:\Nburn/lib/NetBurner.a(ucos.o)
                0x400222c4                _Z12OSTCBGetFreev
 .text._Z6OSLockv
                0x400222f0       0x26 C:\Nburn/lib/NetBurner.a(ucos.o)
                0x400222f0                _Z6OSLockv
 *fill*         0x40022316        0x2 
 .text._Z8OSUnlockv
                0x40022318       0x3e C:\Nburn/lib/NetBurner.a(ucos.o)
                0x40022318                _Z8OSUnlockv
 *fill*         0x40022356        0x2 
 .text._Z12OSChangePrioh
                0x40022358      0x100 C:\Nburn/lib/NetBurner.a(ucos.o)
                0x40022358                _Z12OSChangePrioh
 .text._Z12OSTaskDeletev
                0x40022458      0x112 C:\Nburn/lib/NetBurner.a(ucos.o)
                0x40022458                _Z12OSTaskDeletev
 *fill*         0x4002256a        0x2 
 .text._ZN15OS_TASK_DLY_OBJC2Ev
                0x4002256c       0x30 C:\Nburn/lib/NetBurner.a(ucos.o)
                0x4002256c                _ZN15OS_TASK_DLY_OBJC2Ev
                0x4002256c                _ZN15OS_TASK_DLY_OBJC1Ev
 .text._ZN6OS_SEM5ClaimEv
                0x4002259c       0x52 C:\Nburn/lib/NetBurner.a(ucos.o)
                0x4002259c                _ZN6OS_SEM5ClaimEv
 *fill*         0x400225ee        0x2 
 .text._ZN6OS_SEM4InitEl
                0x400225f0       0x88 C:\Nburn/lib/NetBurner.a(ucos.o)
                0x400225f0                _ZN6OS_SEM4InitEl
 .text._ZN6OS_SEM4PendEm
                0x40022678      0x1d6 C:\Nburn/lib/NetBurner.a(ucos.o)
                0x40022678                _ZN6OS_SEM4PendEm
 *fill*         0x4002284e        0x2 
 .text._ZN6OS_SEM10PendNoWaitEv
                0x40022850       0x3a C:\Nburn/lib/NetBurner.a(ucos.o)
                0x40022850                _ZN6OS_SEM10PendNoWaitEv
 *fill*         0x4002288a        0x2 
 .text._ZN6OS_SEM4PostEv
                0x4002288c      0x178 C:\Nburn/lib/NetBurner.a(ucos.o)
                0x4002288c                _ZN6OS_SEM4PostEv
 .text._ZN7OS_FIFO4InitEv
                0x40022a04       0x48 C:\Nburn/lib/NetBurner.a(ucos.o)
                0x40022a04                _ZN7OS_FIFO4InitEv
 .text._ZN7OS_FIFO4PendEPPV10os_fifo_elm
                0x40022a4c      0x1d6 C:\Nburn/lib/NetBurner.a(ucos.o)
                0x40022a4c                _ZN7OS_FIFO4PendEPPV10os_fifo_elm
 *fill*         0x40022c22        0x2 
 .text._ZN7OS_FIFO4PostEP10os_fifo_el
                0x40022c24      0x160 C:\Nburn/lib/NetBurner.a(ucos.o)
                0x40022c24                _ZN7OS_FIFO4PostEP10os_fifo_el
 .text.getpid   0x40022d84       0x18 C:\Nburn/lib/NetBurner.a(ucos.o)
                0x40022d84                getpid
 .text._ZN7OS_CRIT4InitEv
                0x40022d9c       0x4c C:\Nburn/lib/NetBurner.a(ucos.o)
                0x40022d9c                _ZN7OS_CRIT4InitEv
 .text._ZN7OS_CRIT5EnterEm
                0x40022de8      0x208 C:\Nburn/lib/NetBurner.a(ucos.o)
                0x40022de8                _ZN7OS_CRIT5EnterEm
 .text._ZN7OS_CRIT11EnterNoWaitEv
                0x40022ff0       0x70 C:\Nburn/lib/NetBurner.a(ucos.o)
                0x40022ff0                _ZN7OS_CRIT11EnterNoWaitEv
 .text._ZN7OS_CRIT5LeaveEv
                0x40023060      0x19e C:\Nburn/lib/NetBurner.a(ucos.o)
                0x40023060                _ZN7OS_CRIT5LeaveEv
 *fill*         0x400231fe        0x2 
 .text.cppmain  0x40023200       0x40 C:\Nburn/lib/NetBurner.a(cppmain.o)
                0x40023200                cppmain
 .text._Z24SetAddressWriteRangeTrapmm
                0x40023240       0xec C:\Nburn/lib/NetBurner.a(debugtrap.o)
                0x40023240                _Z24SetAddressWriteRangeTrapmm
 .text._Z23SetAddressReadRangeTrapmm
                0x4002332c       0xec C:\Nburn/lib/NetBurner.a(debugtrap.o)
                0x4002332c                _Z23SetAddressReadRangeTrapmm
 .text.UCosSetup
                0x40023418       0x80 C:\Nburn/lib/NetBurner.a(ucosmain.o)
                0x40023418                UCosSetup
 .text.__malloc_lock
                0x40023498       0x1c C:\Nburn/lib/NetBurner.a(ucosmain.o)
                0x40023498                __malloc_lock
 .text.__malloc_unlock
                0x400234b4       0x1c C:\Nburn/lib/NetBurner.a(ucosmain.o)
                0x400234b4                __malloc_unlock
 .text._Z9UCosBeginv
                0x400234d0       0xba C:\Nburn/lib/NetBurner.a(ucosmain.o)
                0x400234d0                _Z9UCosBeginv
 *fill*         0x4002358a        0x2 
 .text._Z22EnableOSStackProtectorv
                0x4002358c       0x14 C:\Nburn/lib/NetBurner.a(ucosmain.o)
                0x4002358c                _Z22EnableOSStackProtectorv
 .text.OSStackProtector
                0x400235a0       0x24 C:\Nburn/lib/NetBurner.a(ucosmain.o)
                0x400235a0                OSStackProtector
 .text.startup._GLOBAL__sub_I_OSIdleTaskStk
                0x400235c4       0x22 C:\Nburn/lib/NetBurner.a(ucosmain.o)
 *fill*         0x400235e6        0x2 
 .text.ioctl    0x400235e8       0x76 C:\Nburn/lib/NetBurner.a(fileio.o)
                0x400235e8                ioctl
 *fill*         0x4002365e        0x2 
 .text.close    0x40023660       0x4c C:\Nburn/lib/NetBurner.a(fileio.o)
                0x40023660                close
 .text.write    0x400236ac      0x150 C:\Nburn/lib/NetBurner.a(fileio.o)
                0x400236ac                write
 .text._Z8rawwriteiPKci
                0x400237fc       0x82 C:\Nburn/lib/NetBurner.a(fileio.o)
                0x400237fc                _Z8rawwriteiPKci
 *fill*         0x4002387e        0x2 
 .text.isatty   0x40023880       0x14 C:\Nburn/lib/NetBurner.a(fileio.o)
                0x40023880                isatty
 .text.lseek    0x40023894       0x16 C:\Nburn/lib/NetBurner.a(fileio.o)
                0x40023894                lseek
 *fill*         0x400238aa        0x2 
 .text.fstat    0x400238ac       0x1c C:\Nburn/lib/NetBurner.a(fileio.o)
                0x400238ac                fstat
 .text._Z11stdioinbytei
                0x400238c8       0x76 C:\Nburn/lib/NetBurner.a(fileio.o)
                0x400238c8                _Z11stdioinbytei
 *fill*         0x4002393e        0x2 
 .text.read     0x40023940      0x1aa C:\Nburn/lib/NetBurner.a(fileio.o)
                0x40023940                read
 *fill*         0x40023aea        0x2 
 .text.ReplaceStdio
                0x40023aec       0xa0 C:\Nburn/lib/NetBurner.a(fileio.o)
                0x40023aec                ReplaceStdio
 .text.CurrentStdioFD
                0x40023b8c       0x22 C:\Nburn/lib/NetBurner.a(fileio.o)
                0x40023b8c                CurrentStdioFD
 *fill*         0x40023bae        0x2 
 .text._Z9isvalidcrP12ConfigRecord
                0x40023bb0       0x46 C:\Nburn/lib/NetBurner.a(system.o)
                0x40023bb0                _Z9isvalidcrP12ConfigRecord
 *fill*         0x40023bf6        0x2 
 .text._Z12RawGetConfigi
                0x40023bf8       0x24 C:\Nburn/lib/NetBurner.a(system.o)
                0x40023bf8                _Z12RawGetConfigi
 .text._Z22UpdateConfigRecord_NumP12ConfigRecordi
                0x40023c1c      0x184 C:\Nburn/lib/NetBurner.a(system.o)
                0x40023c1c                _Z22UpdateConfigRecord_NumP12ConfigRecordi
 .text._Z18UpdateConfigRecordP12ConfigRecord
                0x40023da0       0x16 C:\Nburn/lib/NetBurner.a(system.o)
                0x40023da0                _Z18UpdateConfigRecordP12ConfigRecord
 *fill*         0x40023db6        0x2 
 .text.kill     0x40023db8        0x8 C:\Nburn/lib/NetBurner.a(utils.o)
                0x40023db8                kill
 .text._exit    0x40023dc0        0x6 C:\Nburn/lib/NetBurner.a(utils.o)
                0x40023dc0                _exit
 *fill*         0x40023dc6        0x2 
 .text._Z7ShowMacP6MACADR
                0x40023dc8       0x42 C:\Nburn/lib/NetBurner.a(utils.o)
                0x40023dc8                _Z7ShowMacP6MACADR
 *fill*         0x40023e0a        0x2 
 .text._Z7ShowIP47IPADDR4
                0x40023e0c       0x36 C:\Nburn/lib/NetBurner.a(utils.o)
                0x40023e0c                _Z7ShowIP47IPADDR4
 *fill*         0x40023e42        0x2 
 .text._Z9snShowIP4Pcm7IPADDR4
                0x40023e44       0x3a C:\Nburn/lib/NetBurner.a(utils.o)
                0x40023e44                _Z9snShowIP4Pcm7IPADDR4
 *fill*         0x40023e7e        0x2 
 .text._Z8ShowDataPKht
                0x40023e80      0x556 C:\Nburn/lib/NetBurner.a(utils.o)
                0x40023e80                _Z8ShowDataPKht
 *fill*         0x400243d6        0x2 
 .text._Z11IsBroadCast7IPADDR4i.part.1
                0x400243d8       0x48 C:\Nburn/lib/NetBurner.a(ip.o)
 .text._Z12AddInterface7IPADDR4S_S_i
                0x40024420      0x156 C:\Nburn/lib/NetBurner.a(ip.o)
                0x40024420                _Z12AddInterface7IPADDR4S_S_i
 *fill*         0x40024576        0x2 
 .text._Z22GetMultiHomeInterface47IPADDR4i
                0x40024578       0x6e C:\Nburn/lib/NetBurner.a(ip.o)
                0x40024578                _Z22GetMultiHomeInterface47IPADDR4i
 *fill*         0x400245e6        0x2 
 .text._Z10DoIPPacketP11pool_bufferP6EFRAMEt
                0x400245e8      0x1ae C:\Nburn/lib/NetBurner.a(ip.o)
                0x400245e8                _Z10DoIPPacketP11pool_bufferP6EFRAMEt
 *fill*         0x40024796        0x2 
 .text._Z20GetLocalIPInterface47IPADDR4
                0x40024798       0x5e C:\Nburn/lib/NetBurner.a(ip.o)
                0x40024798                _Z20GetLocalIPInterface47IPADDR4
 *fill*         0x400247f6        0x2 
 .text._Z8IsLocal47IPADDR4i
                0x400247f8       0x44 C:\Nburn/lib/NetBurner.a(ip.o)
                0x400247f8                _Z8IsLocal47IPADDR4i
 .text._Z11IsBroadCast7IPADDR4i
                0x4002483c       0x1c C:\Nburn/lib/NetBurner.a(ip.o)
                0x4002483c                _Z11IsBroadCast7IPADDR4i
 .text._Z7IsMyIp47IPADDR4
                0x40024858       0x20 C:\Nburn/lib/NetBurner.a(ip.o)
                0x40024858                _Z7IsMyIp47IPADDR4
 .text._Z16FixHeaderAndSendP11pool_bufferP5IPPKT
                0x40024878      0x210 C:\Nburn/lib/NetBurner.a(ip.o)
                0x40024878                _Z16FixHeaderAndSendP11pool_bufferP5IPPKT
 .text._Z28FixHeaderAndSendViaInterfaceP11pool_bufferP5IPPKTi
                0x40024a88      0x192 C:\Nburn/lib/NetBurner.a(ip.o)
                0x40024a88                _Z28FixHeaderAndSendViaInterfaceP11pool_bufferP5IPPKTi
 *fill*         0x40024c1a        0x2 
 .text._Z9SaveErrorP11pool_buffer
                0x40024c1c       0x42 C:\Nburn/lib/NetBurner.a(ip.o)
                0x40024c1c                _Z9SaveErrorP11pool_buffer
 *fill*         0x40024c5e        0x2 
 .text._Z13process_icmp4P11pool_bufferP5IPPKTt
                0x40024c60      0x150 C:\Nburn/lib/NetBurner.a(ip.o)
                0x40024c60                _Z13process_icmp4P11pool_bufferP5IPPKTt
 .text._Z6IPTaskPv
                0x40024db0      0x23a C:\Nburn/lib/NetBurner.a(ip.o)
                0x40024db0                _Z6IPTaskPv
 *fill*         0x40024fea        0x2 
 .text._Z15InitializeStack7IPADDR4S_S_S_
                0x40024fec      0x144 C:\Nburn/lib/NetBurner.a(ip.o)
                0x40024fec                _Z15InitializeStack7IPADDR4S_S_S_
 .text._Z9FixUpICMPP5IPPKThhPht
                0x40025130       0x68 C:\Nburn/lib/NetBurner.a(ip.o)
                0x40025130                _Z9FixUpICMPP5IPPKThhPht
 .text._Z13SendICMPErrorP11pool_bufferhh
                0x40025198       0xa8 C:\Nburn/lib/NetBurner.a(ip.o)
                0x40025198                _Z13SendICMPErrorP11pool_bufferhh
 .text._Z16GetEphemeralPortv
                0x40025240       0x40 C:\Nburn/lib/NetBurner.a(ip.o)
                0x40025240                _Z16GetEphemeralPortv
 .text.startup._GLOBAL__sub_I_wGlobalPktId
                0x40025280       0x5c C:\Nburn/lib/NetBurner.a(ip.o)
 .text._Z13IncUsageCountP11pool_buffer
                0x400252dc       0x3e C:\Nburn/lib/NetBurner.a(buffers.o)
                0x400252dc                _Z13IncUsageCountP11pool_buffer
 *fill*         0x4002531a        0x2 
 .text._Z12GetFreeCountv
                0x4002531c       0x16 C:\Nburn/lib/NetBurner.a(buffers.o)
                0x4002531c                _Z12GetFreeCountv
 *fill*         0x40025332        0x2 
 .text._ZN11buffer_list10InsertHeadEP11pool_buffer
                0x40025334       0x6c C:\Nburn/lib/NetBurner.a(buffers.o)
                0x40025334                _ZN11buffer_list10InsertHeadEP11pool_buffer
 .text._Z10FreeBufferP11pool_buffer
                0x400253a0       0x8c C:\Nburn/lib/NetBurner.a(buffers.o)
                0x400253a0                _Z10FreeBufferP11pool_buffer
 .text._Z11InitBuffersv
                0x4002542c       0xca C:\Nburn/lib/NetBurner.a(buffers.o)
                0x4002542c                _Z11InitBuffersv
 *fill*         0x400254f6        0x2 
 .text._ZN11buffer_list10InsertTailEP11pool_buffer
                0x400254f8       0x5e C:\Nburn/lib/NetBurner.a(buffers.o)
                0x400254f8                _ZN11buffer_list10InsertTailEP11pool_buffer
 *fill*         0x40025556        0x2 
 .text._ZN11buffer_list10RemoveHeadEv
                0x40025558       0x62 C:\Nburn/lib/NetBurner.a(buffers.o)
                0x40025558                _ZN11buffer_list10RemoveHeadEv
 *fill*         0x400255ba        0x2 
 .text._Z9GetBufferv
                0x400255bc       0x44 C:\Nburn/lib/NetBurner.a(buffers.o)
                0x400255bc                _Z9GetBufferv
 .text._ZN19fifo_buffer_storage14LongSpaceAvailEv
                0x40025600       0xc4 C:\Nburn/lib/NetBurner.a(buffers.o)
                0x40025600                _ZN19fifo_buffer_storage14LongSpaceAvailEv
 .text._ZN19fifo_buffer_storage10SpaceAvailEv
                0x400256c4       0x1e C:\Nburn/lib/NetBurner.a(buffers.o)
                0x400256c4                _ZN19fifo_buffer_storage10SpaceAvailEv
 *fill*         0x400256e2        0x2 
 .text._ZN19fifo_buffer_storage9SpaceUsedEv
                0x400256e4       0x10 C:\Nburn/lib/NetBurner.a(buffers.o)
                0x400256e4                _ZN19fifo_buffer_storage9SpaceUsedEv
 .text._ZN19fifo_buffer_storage8ReadDataEPhi
                0x400256f4      0x144 C:\Nburn/lib/NetBurner.a(buffers.o)
                0x400256f4                _ZN19fifo_buffer_storage8ReadDataEPhi
 .text._ZN19fifo_buffer_storage12ReadDatawSumEPhiRm
                0x40025838      0x1aa C:\Nburn/lib/NetBurner.a(buffers.o)
                0x40025838                _ZN19fifo_buffer_storage12ReadDatawSumEPhiRm
 *fill*         0x400259e2        0x2 
 .text._ZN19fifo_buffer_storage9WriteDataEPhi
                0x400259e4      0x274 C:\Nburn/lib/NetBurner.a(buffers.o)
                0x400259e4                _ZN19fifo_buffer_storage9WriteDataEPhi
 .text._ZN19fifo_buffer_storageC2Ehh
                0x40025c58       0x7c C:\Nburn/lib/NetBurner.a(buffers.o)
                0x40025c58                _ZN19fifo_buffer_storageC1Ehh
                0x40025c58                _ZN19fifo_buffer_storageC2Ehh
 .text._ZN19fifo_buffer_storage4InitEhh
                0x40025cd4       0x6c C:\Nburn/lib/NetBurner.a(buffers.o)
                0x40025cd4                _ZN19fifo_buffer_storage4InitEhh
 .text._ZN19fifo_buffer_storage5ResetEh
                0x40025d40       0xd4 C:\Nburn/lib/NetBurner.a(buffers.o)
                0x40025d40                _ZN19fifo_buffer_storage5ResetEh
 .text._ZN19fifo_buffer_storageD2Ev
                0x40025e14       0x16 C:\Nburn/lib/NetBurner.a(buffers.o)
                0x40025e14                _ZN19fifo_buffer_storageD1Ev
                0x40025e14                _ZN19fifo_buffer_storageD2Ev
 *fill*         0x40025e2a        0x2 
 .text._ZN19fifo_buffer_storage5EmptyEv
                0x40025e2c       0x14 C:\Nburn/lib/NetBurner.a(buffers.o)
                0x40025e2c                _ZN19fifo_buffer_storage5EmptyEv
 .text._ZN19fifo_buffer_storage4FullEv
                0x40025e40       0x40 C:\Nburn/lib/NetBurner.a(buffers.o)
                0x40025e40                _ZN19fifo_buffer_storage4FullEv
 .text.startup._GLOBAL__sub_I_static_pool_buffers
                0x40025e80       0x2e C:\Nburn/lib/NetBurner.a(buffers.o)
 *fill*         0x40025eae        0x2 
 .text._Z6IsNullP9ArpRecord
                0x40025eb0       0x24 C:\Nburn/lib/NetBurner.a(arp.o)
                0x40025eb0                _Z6IsNullP9ArpRecord
 .text._Z25GetInterfaceForMyAddress47IPADDR4
                0x40025ed4       0x58 C:\Nburn/lib/NetBurner.a(arp.o)
                0x40025ed4                _Z25GetInterfaceForMyAddress47IPADDR4
 .text._Z13InitializeArpv
                0x40025f2c       0x88 C:\Nburn/lib/NetBurner.a(arp.o)
                0x40025f2c                _Z13InitializeArpv
 .text._Z7FindArp7IPADDR4
                0x40025fb4      0x118 C:\Nburn/lib/NetBurner.a(arp.o)
                0x40025fb4                _Z7FindArp7IPADDR4
 .text._Z9GetSrcIp47IPADDR4
                0x400260cc       0xf8 C:\Nburn/lib/NetBurner.a(arp.o)
                0x400260cc                _Z9GetSrcIp47IPADDR4
 .text._Z19GetProperInterface47IPADDR4
                0x400261c4       0xbc C:\Nburn/lib/NetBurner.a(arp.o)
                0x400261c4                _Z19GetProperInterface47IPADDR4
 .text._Z9DeleteArpP9ArpRecord
                0x40026280      0x1d2 C:\Nburn/lib/NetBurner.a(arp.o)
                0x40026280                _Z9DeleteArpP9ArpRecord
 *fill*         0x40026452        0x2 
 .text._Z11GetFirstArpv
                0x40026454       0x62 C:\Nburn/lib/NetBurner.a(arp.o)
                0x40026454                _Z11GetFirstArpv
 *fill*         0x400264b6        0x2 
 .text._Z10GetNextArpP9ArpRecord
                0x400264b8       0x78 C:\Nburn/lib/NetBurner.a(arp.o)
                0x400264b8                _Z10GetNextArpP9ArpRecord
 .text._Z10RawSendArpP9ArpRecord7IPADDR4i
                0x40026530       0xea C:\Nburn/lib/NetBurner.a(arp.o)
                0x40026530                _Z10RawSendArpP9ArpRecord7IPADDR4i
 *fill*         0x4002661a        0x2 
 .text._Z17sendGratuitousArpi
                0x4002661c       0xc8 C:\Nburn/lib/NetBurner.a(arp.o)
                0x4002661c                _Z17sendGratuitousArpi
 .text._Z7SendArpP9ArpRecordi
                0x400266e4       0x70 C:\Nburn/lib/NetBurner.a(arp.o)
                0x400266e4                _Z7SendArpP9ArpRecordi
 .text._Z6AgeArpv
                0x40026754      0x10e C:\Nburn/lib/NetBurner.a(arp.o)
                0x40026754                _Z6AgeArpv
 *fill*         0x40026862        0x2 
 .text._Z10FreeOneArpv
                0x40026864       0xa6 C:\Nburn/lib/NetBurner.a(arp.o)
                0x40026864                _Z10FreeOneArpv
 *fill*         0x4002690a        0x2 
 .text._Z10FindAddArp7IPADDR4
                0x4002690c      0x210 C:\Nburn/lib/NetBurner.a(arp.o)
                0x4002690c                _Z10FindAddArp7IPADDR4
 .text._Z6SetMacP9ArpRecord6MACADRi
                0x40026b1c       0x8c C:\Nburn/lib/NetBurner.a(arp.o)
                0x40026b1c                _Z6SetMacP9ArpRecord6MACADRi
 .text._Z10AddPendingP6MACADR7IPADDR4i
                0x40026ba8       0x5a C:\Nburn/lib/NetBurner.a(arp.o)
                0x40026ba8                _Z10AddPendingP6MACADR7IPADDR4i
 *fill*         0x40026c02        0x2 
 .text._Z11AddCheckArpP6MACADR7IPADDR4i
                0x40026c04       0xa2 C:\Nburn/lib/NetBurner.a(arp.o)
                0x40026c04                _Z11AddCheckArpP6MACADR7IPADDR4i
 *fill*         0x40026ca6        0x2 
 .text._Z10processArpP11pool_bufferP6EFRAME
                0x40026ca8      0x2d6 C:\Nburn/lib/NetBurner.a(arp.o)
                0x40026ca8                _Z10processArpP11pool_bufferP6EFRAME
 *fill*         0x40026f7e        0x2 
 .text._Z8NeedsArpi
                0x40026f80       0x32 C:\Nburn/lib/NetBurner.a(arp.o)
                0x40026f80                _Z8NeedsArpi
 *fill*         0x40026fb2        0x2 
 .text._Z8RouteOutP6EFRAME7IPADDR4P11pool_buffer
                0x40026fb4      0x272 C:\Nburn/lib/NetBurner.a(arp.o)
                0x40026fb4                _Z8RouteOutP6EFRAME7IPADDR4P11pool_buffer
 *fill*         0x40027226        0x2 
 .text._Z11RouteOutViaP6EFRAME7IPADDR4P11pool_bufferi
                0x40027228      0x22c C:\Nburn/lib/NetBurner.a(arp.o)
                0x40027228                _Z11RouteOutViaP6EFRAME7IPADDR4P11pool_bufferi
 .text._Z8MacEqual6MACADRS_
                0x40027454       0x3e C:\Nburn/lib/NetBurner.a(arp.o)
                0x40027454                _Z8MacEqual6MACADRS_
 *fill*         0x40027492        0x2 
 .text.startup._GLOBAL__sub_I_ARP_critical_section
                0x40027494       0x38 C:\Nburn/lib/NetBurner.a(arp.o)
 .text._Z13GetUdpFifoRecti
                0x400274cc       0xcc C:\Nburn/lib/NetBurner.a(udp.o)
                0x400274cc                _Z13GetUdpFifoRecti
 .text._ZN9UDPPacketC2EP11pool_buffer
                0x40027598       0x28 C:\Nburn/lib/NetBurner.a(udp.o)
                0x40027598                _ZN9UDPPacketC1EP11pool_buffer
                0x40027598                _ZN9UDPPacketC2EP11pool_buffer
 .text._ZN9UDPPacketC2ERS_
                0x400275c0       0x28 C:\Nburn/lib/NetBurner.a(udp.o)
                0x400275c0                _ZN9UDPPacketC1ERS_
                0x400275c0                _ZN9UDPPacketC2ERS_
 .text._ZN9UDPPacketC2Eb
                0x400275e8       0x5a C:\Nburn/lib/NetBurner.a(udp.o)
                0x400275e8                _ZN9UDPPacketC2Eb
                0x400275e8                _ZN9UDPPacketC1Eb
 *fill*         0x40027642        0x2 
 .text._ZN9UDPPacketD2Ev
                0x40027644       0x1c C:\Nburn/lib/NetBurner.a(udp.o)
                0x40027644                _ZN9UDPPacketD1Ev
                0x40027644                _ZN9UDPPacketD2Ev
 .text._ZN9UDPPacket13SetSourcePortEt
                0x40027660       0x1a C:\Nburn/lib/NetBurner.a(udp.o)
                0x40027660                _ZN9UDPPacket13SetSourcePortEt
 *fill*         0x4002767a        0x2 
 .text._ZNK9UDPPacket13GetSourcePortEv
                0x4002767c       0x1c C:\Nburn/lib/NetBurner.a(udp.o)
                0x4002767c                _ZNK9UDPPacket13GetSourcePortEv
 .text._ZN9UDPPacket17GetSourceAddress4Ev
                0x40027698       0x2c C:\Nburn/lib/NetBurner.a(udp.o)
                0x40027698                _ZN9UDPPacket17GetSourceAddress4Ev
 .text._ZN9UDPPacket22GetDestinationAddress4Ev
                0x400276c4       0x2c C:\Nburn/lib/NetBurner.a(udp.o)
                0x400276c4                _ZN9UDPPacket22GetDestinationAddress4Ev
 .text._ZN9UDPPacket18SetDestinationPortEt
                0x400276f0       0x1c C:\Nburn/lib/NetBurner.a(udp.o)
                0x400276f0                _ZN9UDPPacket18SetDestinationPortEt
 .text._ZNK9UDPPacket18GetDestinationPortEv
                0x4002770c       0x1e C:\Nburn/lib/NetBurner.a(udp.o)
                0x4002770c                _ZNK9UDPPacket18GetDestinationPortEv
 *fill*         0x4002772a        0x2 
 .text._ZN9UDPPacket13GetDataBufferEb
                0x4002772c       0x62 C:\Nburn/lib/NetBurner.a(udp.o)
                0x4002772c                _ZN9UDPPacket13GetDataBufferEb
 *fill*         0x4002778e        0x2 
 .text._ZN9UDPPacket11SetDataSizeEt
                0x40027790       0x1e C:\Nburn/lib/NetBurner.a(udp.o)
                0x40027790                _ZN9UDPPacket11SetDataSizeEt
 *fill*         0x400277ae        0x2 
 .text._ZNK9UDPPacket11GetDataSizeEv
                0x400277b0       0x20 C:\Nburn/lib/NetBurner.a(udp.o)
                0x400277b0                _ZNK9UDPPacket11GetDataSizeEv
 .text._ZN9UDPPacket7AddDataEPKht
                0x400277d0       0x98 C:\Nburn/lib/NetBurner.a(udp.o)
                0x400277d0                _ZN9UDPPacket7AddDataEPKht
 .text._ZN9UDPPacket7AddDataEPKc
                0x40027868       0x30 C:\Nburn/lib/NetBurner.a(udp.o)
                0x40027868                _ZN9UDPPacket7AddDataEPKc
 .text._ZN9UDPPacket11AddDataByteEh
                0x40027898       0x24 C:\Nburn/lib/NetBurner.a(udp.o)
                0x40027898                _ZN9UDPPacket11AddDataByteEh
 .text._ZN9UDPPacket9ResetDataEv
                0x400278bc       0x1a C:\Nburn/lib/NetBurner.a(udp.o)
                0x400278bc                _ZN9UDPPacket9ResetDataEv
 *fill*         0x400278d6        0x2 
 .text._ZN9UDPPacket5Send4E7IPADDR4h
                0x400278d8       0xfa C:\Nburn/lib/NetBurner.a(udp.o)
                0x400278d8                _ZN9UDPPacket5Send4E7IPADDR4h
 *fill*         0x400279d2        0x2 
 .text._ZN9UDPPacket20SendViaInterfaceNum4E7IPADDR4ih
                0x400279d4       0xfc C:\Nburn/lib/NetBurner.a(udp.o)
                0x400279d4                _ZN9UDPPacket20SendViaInterfaceNum4E7IPADDR4ih
 .text._ZN9UDPPacket8ValidateEv
                0x40027ad0       0x82 C:\Nburn/lib/NetBurner.a(udp.o)
                0x40027ad0                _ZN9UDPPacket8ValidateEv
 *fill*         0x40027b52        0x2 
 .text._Z15FixIDDataPacketR9UDPPacketP15_InterfaceBlock
                0x40027b54       0xb4 C:\Nburn/lib/NetBurner.a(udp.o)
                0x40027b54                _Z15FixIDDataPacketR9UDPPacketP15_InterfaceBlock
 .text._Z13FixWifiConfigR12ConfigRecord
                0x40027c08      0x156 C:\Nburn/lib/NetBurner.a(udp.o)
                0x40027c08                _Z13FixWifiConfigR12ConfigRecord
 *fill*         0x40027d5e        0x2 
 .text._Z15ProcessIDPacketR9UDPPacketi
                0x40027d60      0x668 C:\Nburn/lib/NetBurner.a(udp.o)
                0x40027d60                _Z15ProcessIDPacketR9UDPPacketi
 .text._ZN9UDPPacket15process_all_udpEv
                0x400283c8      0x27c C:\Nburn/lib/NetBurner.a(udp.o)
                0x400283c8                _ZN9UDPPacket15process_all_udpEv
 .text._Z12process_udp4P11pool_bufferP5IPPKTt
                0x40028644       0x8a C:\Nburn/lib/NetBurner.a(udp.o)
                0x40028644                _Z12process_udp4P11pool_bufferP5IPPKTt
 *fill*         0x400286ce        0x2 
 .text._Z13Return200Funci
                0x400286d0       0x2e C:\Nburn/lib/NetBurner.a(ftpd.o)
                0x400286d0                _Z13Return200Funci
 *fill*         0x400286fe        0x2 
 .text._Z8SYSTFunci
                0x40028700       0x2e C:\Nburn/lib/NetBurner.a(ftpd.o)
                0x40028700                _Z8SYSTFunci
 *fill*         0x4002872e        0x2 
 .text._Z8UserFunci
                0x40028730       0x4a C:\Nburn/lib/NetBurner.a(ftpd.o)
                0x40028730                _Z8UserFunci
 *fill*         0x4002877a        0x2 
 .text._Z8QUITFunci
                0x4002877c       0x9c C:\Nburn/lib/NetBurner.a(ftpd.o)
                0x4002877c                _Z8QUITFunci
 .text._Z8HELPFunci
                0x40028818       0xda C:\Nburn/lib/NetBurner.a(ftpd.o)
                0x40028818                _Z8HELPFunci
 *fill*         0x400288f2        0x2 
 .text._Z8PASVFunci
                0x400288f4      0x110 C:\Nburn/lib/NetBurner.a(ftpd.o)
                0x400288f4                _Z8PASVFunci
 .text._Z8PORTFunci
                0x40028a04      0x16a C:\Nburn/lib/NetBurner.a(ftpd.o)
                0x40028a04                _Z8PORTFunci
 *fill*         0x40028b6e        0x2 
 .text._Z7RMDFunci
                0x40028b70      0x118 C:\Nburn/lib/NetBurner.a(ftpd.o)
                0x40028b70                _Z7RMDFunci
 .text._Z7MKDFunci
                0x40028c88      0x176 C:\Nburn/lib/NetBurner.a(ftpd.o)
                0x40028c88                _Z7MKDFunci
 *fill*         0x40028dfe        0x2 
 .text._Z8SIZEFunci.part.9
                0x40028e00       0x2e C:\Nburn/lib/NetBurner.a(ftpd.o)
 *fill*         0x40028e2e        0x2 
 .text._Z8RNTOFunci
                0x40028e30       0xea C:\Nburn/lib/NetBurner.a(ftpd.o)
                0x40028e30                _Z8RNTOFunci
 *fill*         0x40028f1a        0x2 
 .text._Z8RNFRFunci
                0x40028f1c       0xe6 C:\Nburn/lib/NetBurner.a(ftpd.o)
                0x40028f1c                _Z8RNFRFunci
 *fill*         0x40029002        0x2 
 .text._Z8DELEFunci
                0x40029004       0xde C:\Nburn/lib/NetBurner.a(ftpd.o)
                0x40029004                _Z8DELEFunci
 *fill*         0x400290e2        0x2 
 .text._Z8MODEFunci
                0x400290e4       0x78 C:\Nburn/lib/NetBurner.a(ftpd.o)
                0x400290e4                _Z8MODEFunci
 .text._Z8STRUFunci
                0x4002915c       0x78 C:\Nburn/lib/NetBurner.a(ftpd.o)
                0x4002915c                _Z8STRUFunci
 .text._Z8PassFunci
                0x400291d4       0x84 C:\Nburn/lib/NetBurner.a(ftpd.o)
                0x400291d4                _Z8PassFunci
 .text._Z8TYPEFunci
                0x40029258       0x3e C:\Nburn/lib/NetBurner.a(ftpd.o)
                0x40029258                _Z8TYPEFunci
 *fill*         0x40029296        0x2 
 .text._Z7PwdFunci
                0x40029298       0x6e C:\Nburn/lib/NetBurner.a(ftpd.o)
                0x40029298                _Z7PwdFunci
 *fill*         0x40029306        0x2 
 .text._Z12FTPDDoAcceptv
                0x40029308       0xc8 C:\Nburn/lib/NetBurner.a(ftpd.o)
                0x40029308                _Z12FTPDDoAcceptv
 .text._Z12FTPdRawErrori
                0x400293d0       0x80 C:\Nburn/lib/NetBurner.a(ftpd.o)
                0x400293d0                _Z12FTPdRawErrori
 .text._Z9GetDataFdi
                0x40029450      0x1c8 C:\Nburn/lib/NetBurner.a(ftpd.o)
                0x40029450                _Z9GetDataFdi
 .text._Z8RETRFunci
                0x40029618      0x16a C:\Nburn/lib/NetBurner.a(ftpd.o)
                0x40029618                _Z8RETRFunci
 *fill*         0x40029782        0x2 
 .text._Z8NLSTFunci
                0x40029784      0x10c C:\Nburn/lib/NetBurner.a(ftpd.o)
                0x40029784                _Z8NLSTFunci
 .text._Z8LISTFunci
                0x40029890      0x13e C:\Nburn/lib/NetBurner.a(ftpd.o)
                0x40029890                _Z8LISTFunci
 *fill*         0x400299ce        0x2 
 .text._Z8STORFunci
                0x400299d0      0x16a C:\Nburn/lib/NetBurner.a(ftpd.o)
                0x400299d0                _Z8STORFunci
 *fill*         0x40029b3a        0x2 
 .text._Z12SIZECallBackiPKc
                0x40029b3c       0x44 C:\Nburn/lib/NetBurner.a(ftpd.o)
                0x40029b3c                _Z12SIZECallBackiPKc
 .text._Z13DLISTCallBackiPKc
                0x40029b80        0xc C:\Nburn/lib/NetBurner.a(ftpd.o)
                0x40029b80                _Z13DLISTCallBackiPKc
 .text._Z12LISTCallBackiPKc
                0x40029b8c        0xc C:\Nburn/lib/NetBurner.a(ftpd.o)
                0x40029b8c                _Z12LISTCallBackiPKc
 .text._Z12NLSTCallBackiPKc
                0x40029b98        0xc C:\Nburn/lib/NetBurner.a(ftpd.o)
                0x40029b98                _Z12NLSTCallBackiPKc
 .text._Z7TrimDirPc
                0x40029ba4       0x5a C:\Nburn/lib/NetBurner.a(ftpd.o)
                0x40029ba4                _Z7TrimDirPc
 *fill*         0x40029bfe        0x2 
 .text._Z7CWDFunci
                0x40029c00      0x2a2 C:\Nburn/lib/NetBurner.a(ftpd.o)
                0x40029c00                _Z7CWDFunci
 *fill*         0x40029ea2        0x2 
 .text._Z8CDUPFunci
                0x40029ea4       0x3a C:\Nburn/lib/NetBurner.a(ftpd.o)
                0x40029ea4                _Z8CDUPFunci
 *fill*         0x40029ede        0x2 
 .text._Z14FTPdRawCommandi
                0x40029ee0       0xac C:\Nburn/lib/NetBurner.a(ftpd.o)
                0x40029ee0                _Z14FTPdRawCommandi
 .text._Z11FTPdRawReadi
                0x40029f8c      0x2ca C:\Nburn/lib/NetBurner.a(ftpd.o)
                0x40029f8c                _Z11FTPdRawReadi
 *fill*         0x4002a256        0x2 
 .text._Z8FTPdTaskPv
                0x4002a258      0x1ee C:\Nburn/lib/NetBurner.a(ftpd.o)
                0x4002a258                _Z8FTPdTaskPv
 *fill*         0x4002a446        0x2 
 .text._Z9FTPDStartth
                0x4002a448       0xb6 C:\Nburn/lib/NetBurner.a(ftpd.o)
                0x4002a448                _Z9FTPDStartth
 *fill*         0x4002a4fe        0x2 
 .text._Z8SIZEFunci
                0x4002a500       0xe2 C:\Nburn/lib/NetBurner.a(ftpd.o)
                0x4002a500                _Z8SIZEFunci
 *fill*         0x4002a5e2        0x2 
 .text.startup._GLOBAL__sub_I__Z12FTPDDoAcceptv
                0x4002a5e4       0x40 C:\Nburn/lib/NetBurner.a(ftpd.o)
 .text.__tcf_0  0x4002a624       0x3a C:\Nburn/lib/NetBurner.a(tcp.o)
 *fill*         0x4002a65e        0x2 
 .text._ZN16TcpCarrierPacket9GetDefMssERK7IPADDR6.part.25
                0x4002a660       0x3e C:\Nburn/lib/NetBurner.a(tcp.o)
 *fill*         0x4002a69e        0x2 
 .text._Z12ValidateTCP4P5IPPKTt
                0x4002a6a0       0xc6 C:\Nburn/lib/NetBurner.a(tcp.o)
                0x4002a6a0                _Z12ValidateTCP4P5IPPKTt
 *fill*         0x4002a766        0x2 
 .text._Z20FixHeaderAndSendTcp4P11pool_bufferP5IPPKTP13socket_struct
                0x4002a768      0x122 C:\Nburn/lib/NetBurner.a(tcp.o)
                0x4002a768                _Z20FixHeaderAndSendTcp4P11pool_bufferP5IPPKTP13socket_struct
 *fill*         0x4002a88a        0x2 
 .text._Z12TcpSendwSum4P13socket_struct7IPADDR4R16TcpCarrierPackethm
                0x4002a88c      0x24e C:\Nburn/lib/NetBurner.a(tcp.o)
                0x4002a88c                _Z12TcpSendwSum4P13socket_struct7IPADDR4R16TcpCarrierPackethm
 *fill*         0x4002aada        0x2 
 .text._Z11TcpSendwSumP13socket_structRK7IPADDR6R16TcpCarrierPackethm
                0x4002aadc       0x70 C:\Nburn/lib/NetBurner.a(tcp.o)
                0x4002aadc                _Z11TcpSendwSumP13socket_structRK7IPADDR6R16TcpCarrierPackethm
 .text._Z15TcpSendwSumFromRK7IPADDR6S1_R16TcpCarrierPackethm
                0x4002ab4c       0x6e C:\Nburn/lib/NetBurner.a(tcp.o)
                0x4002ab4c                _Z15TcpSendwSumFromRK7IPADDR6S1_R16TcpCarrierPackethm
 *fill*         0x4002abba        0x2 
 .text._Z7TcpSendP13socket_structRK7IPADDR6R16TcpCarrierPacketh
                0x4002abbc       0xd6 C:\Nburn/lib/NetBurner.a(tcp.o)
                0x4002abbc                _Z7TcpSendP13socket_structRK7IPADDR6R16TcpCarrierPacketh
 *fill*         0x4002ac92        0x2 
 .text._Z7InitTCPv
                0x4002ac94      0x24e C:\Nburn/lib/NetBurner.a(tcp.o)
                0x4002ac94                _Z7InitTCPv
 *fill*         0x4002aee2        0x2 
 .text._Z10FREESOCKETP13socket_struct
                0x4002aee4       0x96 C:\Nburn/lib/NetBurner.a(tcp.o)
                0x4002aee4                _Z10FREESOCKETP13socket_struct
 *fill*         0x4002af7a        0x2 
 .text._Z16FindListenSocketP13socket_struct
                0x4002af7c       0xaa C:\Nburn/lib/NetBurner.a(tcp.o)
                0x4002af7c                _Z16FindListenSocketP13socket_struct
 *fill*         0x4002b026        0x2 
 .text._ZN13socket_struct18MyAdvertisedWindowEv
                0x4002b028       0x76 C:\Nburn/lib/NetBurner.a(tcp.o)
                0x4002b028                _ZN13socket_struct18MyAdvertisedWindowEv
 *fill*         0x4002b09e        0x2 
 .text._Z10fixoverlapmmRmS_
                0x4002b0a0       0x76 C:\Nburn/lib/NetBurner.a(tcp.o)
                0x4002b0a0                _Z10fixoverlapmmRmS_
 *fill*         0x4002b116        0x2 
 .text._ZN13socket_struct14processoptionsER16TcpCarrierPacket
                0x4002b118       0xf6 C:\Nburn/lib/NetBurner.a(tcp.o)
                0x4002b118                _ZN13socket_struct14processoptionsER16TcpCarrierPacket
 *fill*         0x4002b20e        0x2 
 .text._ZN13socket_struct8SetTimerEm
                0x4002b210       0x7e C:\Nburn/lib/NetBurner.a(tcp.o)
                0x4002b210                _ZN13socket_struct8SetTimerEm
 *fill*         0x4002b28e        0x2 
 .text._ZN13socket_struct8SaveDataEPhth
                0x4002b290       0xcc C:\Nburn/lib/NetBurner.a(tcp.o)
                0x4002b290                _ZN13socket_struct8SaveDataEPhth
 .text._Z20GetSocketRemoteAddr4i
                0x4002b35c       0x34 C:\Nburn/lib/NetBurner.a(tcp.o)
                0x4002b35c                _Z20GetSocketRemoteAddr4i
 .text._Z20GetSocketRemoteAddr6i
                0x4002b390       0x56 C:\Nburn/lib/NetBurner.a(tcp.o)
                0x4002b390                _Z20GetSocketRemoteAddr6i
 *fill*         0x4002b3e6        0x2 
 .text._Z19GetSocketLocalAddr6i
                0x4002b3e8       0x56 C:\Nburn/lib/NetBurner.a(tcp.o)
                0x4002b3e8                _Z19GetSocketLocalAddr6i
 *fill*         0x4002b43e        0x2 
 .text._Z19GetSocketRemotePorti
                0x4002b440       0x30 C:\Nburn/lib/NetBurner.a(tcp.o)
                0x4002b440                _Z19GetSocketRemotePorti
 .text._ZN13socket_struct7CalcRTOEm
                0x4002b470       0xaa C:\Nburn/lib/NetBurner.a(tcp.o)
                0x4002b470                _ZN13socket_struct7CalcRTOEm
 *fill*         0x4002b51a        0x2 
 .text._ZN13socket_struct19SetUpNextRetransmitEv
                0x4002b51c      0x128 C:\Nburn/lib/NetBurner.a(tcp.o)
                0x4002b51c                _ZN13socket_struct19SetUpNextRetransmitEv
 .text._Z13setsockoptionii
                0x4002b644       0x38 C:\Nburn/lib/NetBurner.a(tcp.o)
                0x4002b644                _Z13setsockoptionii
 .text._Z13getsockoptioni
                0x4002b67c       0x30 C:\Nburn/lib/NetBurner.a(tcp.o)
                0x4002b67c                _Z13getsockoptioni
 .text._ZN13socket_struct9DoCleanupEv
                0x4002b6ac      0x1be C:\Nburn/lib/NetBurner.a(tcp.o)
                0x4002b6ac                _ZN13socket_struct9DoCleanupEv
 *fill*         0x4002b86a        0x2 
 .text._Z23RemoveFromUserCloseListP13socket_struct.part.20
                0x4002b86c       0x96 C:\Nburn/lib/NetBurner.a(tcp.o)
 *fill*         0x4002b902        0x2 
 .text._ZN13socket_struct12ClearPendingEi
                0x4002b904       0x78 C:\Nburn/lib/NetBurner.a(tcp.o)
                0x4002b904                _ZN13socket_struct12ClearPendingEi
 .text._ZNK14HashSocketList9AddSocketEP13socket_struct
                0x4002b97c       0x82 C:\Nburn/lib/NetBurner.a(tcp.o)
                0x4002b97c                _ZNK14HashSocketList9AddSocketEP13socket_struct
 *fill*         0x4002b9fe        0x2 
 .text._ZNK14HashSocketList12RemoveSocketEP13socket_struct
                0x4002ba00       0xb8 C:\Nburn/lib/NetBurner.a(tcp.o)
                0x4002ba00                _ZNK14HashSocketList12RemoveSocketEP13socket_struct
 .text._ZN13socket_struct10ProcessRSTEv
                0x4002bab8      0x12a C:\Nburn/lib/NetBurner.a(tcp.o)
                0x4002bab8                _ZN13socket_struct10ProcessRSTEv
 *fill*         0x4002bbe2        0x2 
 .text._ZN15ShortSocketList12GetFreeShortEv
                0x4002bbe4      0x130 C:\Nburn/lib/NetBurner.a(tcp.o)
                0x4002bbe4                _ZN15ShortSocketList12GetFreeShortEv
 .text._ZN15ShortSocketList9AddSocketEP13socket_struct
                0x4002bd14      0x13c C:\Nburn/lib/NetBurner.a(tcp.o)
                0x4002bd14                _ZN15ShortSocketList9AddSocketEP13socket_struct
 .text._ZN15ShortSocketList11processTickEv
                0x4002be50       0xd2 C:\Nburn/lib/NetBurner.a(tcp.o)
                0x4002be50                _ZN15ShortSocketList11processTickEv
 *fill*         0x4002bf22        0x2 
 .text._ZN16TcpCarrierPacket10IsSourceIPERK7IPADDR6
                0x4002bf24       0x8a C:\Nburn/lib/NetBurner.a(tcp.o)
                0x4002bf24                _ZN16TcpCarrierPacket10IsSourceIPERK7IPADDR6
 *fill*         0x4002bfae        0x2 
 .text._Z16FindListenSocketR16TcpCarrierPacket
                0x4002bfb0       0xec C:\Nburn/lib/NetBurner.a(tcp.o)
                0x4002bfb0                _Z16FindListenSocketR16TcpCarrierPacket
 .text._ZN16TcpCarrierPacket16GetDestinationIPEv
                0x4002c09c       0x5c C:\Nburn/lib/NetBurner.a(tcp.o)
                0x4002c09c                _ZN16TcpCarrierPacket16GetDestinationIPEv
 .text._ZN16TcpCarrierPacket11GetSourceIPEv
                0x4002c0f8       0x5c C:\Nburn/lib/NetBurner.a(tcp.o)
                0x4002c0f8                _ZN16TcpCarrierPacket11GetSourceIPEv
 .text._Z13SendTcpSynRstR16TcpCarrierPacket
                0x4002c154       0x8a C:\Nburn/lib/NetBurner.a(tcp.o)
                0x4002c154                _Z13SendTcpSynRstR16TcpCarrierPacket
 *fill*         0x4002c1de        0x2 
 .text._Z10SendTcpRstR16TcpCarrierPacket
                0x4002c1e0      0x100 C:\Nburn/lib/NetBurner.a(tcp.o)
                0x4002c1e0                _Z10SendTcpRstR16TcpCarrierPacket
 .text._ZN16TcpCarrierPacket20SourceShouldLoopBackEv
                0x4002c2e0       0xa8 C:\Nburn/lib/NetBurner.a(tcp.o)
                0x4002c2e0                _ZN16TcpCarrierPacket20SourceShouldLoopBackEv
 .text._ZNK14HashSocketList10findsocketER16TcpCarrierPacket
                0x4002c388      0x1a8 C:\Nburn/lib/NetBurner.a(tcp.o)
                0x4002c388                _ZNK14HashSocketList10findsocketER16TcpCarrierPacket
 .text._Z12GetTcpSocketR16TcpCarrierPacket
                0x4002c530       0x96 C:\Nburn/lib/NetBurner.a(tcp.o)
                0x4002c530                _Z12GetTcpSocketR16TcpCarrierPacket
 *fill*         0x4002c5c6        0x2 
 .text._ZNK15ShortSocketList10findsocketER16TcpCarrierPacket
                0x4002c5c8      0x118 C:\Nburn/lib/NetBurner.a(tcp.o)
                0x4002c5c8                _ZNK15ShortSocketList10findsocketER16TcpCarrierPacket
 .text._ZNK15ShortSocketList7processER16TcpCarrierPacket
                0x4002c6e0      0x180 C:\Nburn/lib/NetBurner.a(tcp.o)
                0x4002c6e0                _ZNK15ShortSocketList7processER16TcpCarrierPacket
 .text._ZN16TcpCarrierPacket15InitIPv6CarrierER25IPv6FrameProcessingStruct
                0x4002c860       0x88 C:\Nburn/lib/NetBurner.a(tcp.o)
                0x4002c860                _ZN16TcpCarrierPacket15InitIPv6CarrierER25IPv6FrameProcessingStruct
 .text._ZN16TcpCarrierPacketC2EP11pool_buffer
                0x4002c8e8      0x118 C:\Nburn/lib/NetBurner.a(tcp.o)
                0x4002c8e8                _ZN16TcpCarrierPacketC2EP11pool_buffer
                0x4002c8e8                _ZN16TcpCarrierPacketC1EP11pool_buffer
 .text._ZN13socket_struct14TestOutofOrderEv
                0x4002ca00      0x1ec C:\Nburn/lib/NetBurner.a(tcp.o)
                0x4002ca00                _ZN13socket_struct14TestOutofOrderEv
 .text._ZN16TcpCarrierPacket9InitBlankEP11pool_bufferb
                0x4002cbec       0xf2 C:\Nburn/lib/NetBurner.a(tcp.o)
                0x4002cbec                _ZN16TcpCarrierPacket9InitBlankEP11pool_bufferb
 *fill*         0x4002ccde        0x2 
 .text._ZN13socket_struct24CreateInitOutBoundPacketER16TcpCarrierPackettP11pool_buffer
                0x4002cce0       0xba C:\Nburn/lib/NetBurner.a(tcp.o)
                0x4002cce0                _ZN13socket_struct24CreateInitOutBoundPacketER16TcpCarrierPackettP11pool_buffer
 *fill*         0x4002cd9a        0x2 
 .text._ZN13socket_struct9DoRawSendEv
                0x4002cd9c      0x38c C:\Nburn/lib/NetBurner.a(tcp.o)
                0x4002cd9c                _ZN13socket_struct9DoRawSendEv
 .text._Z21_Socket_Private_writeiPKci
                0x4002d128      0x240 C:\Nburn/lib/NetBurner.a(tcp.o)
                0x4002d128                _Z21_Socket_Private_writeiPKci
 .text._ZN13socket_struct7DoCloseEi
                0x4002d368      0x338 C:\Nburn/lib/NetBurner.a(tcp.o)
                0x4002d368                _ZN13socket_struct7DoCloseEi
 .text._ZN13socket_struct12DoRetransmitEh
                0x4002d6a0      0x152 C:\Nburn/lib/NetBurner.a(tcp.o)
                0x4002d6a0                _ZN13socket_struct12DoRetransmitEh
 *fill*         0x4002d7f2        0x2 
 .text._Z21_Socket_Private_closei
                0x4002d7f4      0x168 C:\Nburn/lib/NetBurner.a(tcp.o)
                0x4002d7f4                _Z21_Socket_Private_closei
 .text._ZN13socket_struct10ProcessAckER16TcpCarrierPacket
                0x4002d95c      0x2be C:\Nburn/lib/NetBurner.a(tcp.o)
                0x4002d95c                _ZN13socket_struct10ProcessAckER16TcpCarrierPacket
 *fill*         0x4002dc1a        0x2 
 .text._Z13clrsockoptionii
                0x4002dc1c       0x90 C:\Nburn/lib/NetBurner.a(tcp.o)
                0x4002dc1c                _Z13clrsockoptionii
 .text._Z32GetProperInterfaceForDestinationRK7IPADDR6
                0x4002dcac       0x48 C:\Nburn/lib/NetBurner.a(tcp.o)
                0x4002dcac                _Z32GetProperInterfaceForDestinationRK7IPADDR6
 .text._Z7IsLocalRK7IPADDR6i
                0x4002dcf4       0x60 C:\Nburn/lib/NetBurner.a(tcp.o)
                0x4002dcf4                _Z7IsLocalRK7IPADDR6i
 .text._ZN13socket_struct9SendStateEtR16TcpCarrierPacket
                0x4002dd54      0x556 C:\Nburn/lib/NetBurner.a(tcp.o)
                0x4002dd54                _ZN13socket_struct9SendStateEtR16TcpCarrierPacket
 *fill*         0x4002e2aa        0x2 
 .text._ZN13socket_struct9SendStateEtP11pool_buffer
                0x4002e2ac       0xbe C:\Nburn/lib/NetBurner.a(tcp.o)
                0x4002e2ac                _ZN13socket_struct9SendStateEtP11pool_buffer
 *fill*         0x4002e36a        0x2 
 .text._Z7accept6iP7IPADDR6Ptt
                0x4002e36c      0x2c0 C:\Nburn/lib/NetBurner.a(tcp.o)
                0x4002e36c                _Z7accept6iP7IPADDR6Ptt
 .text._Z7accept4iP7IPADDR4Ptt
                0x4002e62c       0x68 C:\Nburn/lib/NetBurner.a(tcp.o)
                0x4002e62c                _Z7accept4iP7IPADDR4Ptt
 .text._ZN13socket_struct10OpenWindowEv
                0x4002e694       0x58 C:\Nburn/lib/NetBurner.a(tcp.o)
                0x4002e694                _ZN13socket_struct10OpenWindowEv
 .text._Z19SockReadWithTimeoutiPcim
                0x4002e6ec      0x218 C:\Nburn/lib/NetBurner.a(tcp.o)
                0x4002e6ec                _Z19SockReadWithTimeoutiPcim
 .text._Z20_Socket_Private_readiPci
                0x4002e904       0x1c C:\Nburn/lib/NetBurner.a(tcp.o)
                0x4002e904                _Z20_Socket_Private_readiPci
 .text._ZN13socket_struct12ProcessTimerEv
                0x4002e920      0x112 C:\Nburn/lib/NetBurner.a(tcp.o)
                0x4002e920                _ZN13socket_struct12ProcessTimerEv
 *fill*         0x4002ea32        0x2 
 .text._Z12TCPTimerTaskPv
                0x4002ea34      0x13e C:\Nburn/lib/NetBurner.a(tcp.o)
                0x4002ea34                _Z12TCPTimerTaskPv
 *fill*         0x4002eb72        0x2 
 .text._Z11abortsocketi
                0x4002eb74      0x136 C:\Nburn/lib/NetBurner.a(tcp.o)
                0x4002eb74                _Z11abortsocketi
 *fill*         0x4002ecaa        0x2 
 .text._Z13GetFreeSocketv
                0x4002ecac       0xec C:\Nburn/lib/NetBurner.a(tcp.o)
                0x4002ecac                _Z13GetFreeSocketv
 .text._Z7listen47IPADDR4th
                0x4002ed98      0x130 C:\Nburn/lib/NetBurner.a(tcp.o)
                0x4002ed98                _Z7listen47IPADDR4th
 .text._Z7listen6RK7IPADDR6th
                0x4002eec8      0x130 C:\Nburn/lib/NetBurner.a(tcp.o)
                0x4002eec8                _Z7listen6RK7IPADDR6th
 .text._ZN13socket_struct10ProcessFINER16TcpCarrierPackett
                0x4002eff8      0x286 C:\Nburn/lib/NetBurner.a(tcp.o)
                0x4002eff8                _ZN13socket_struct10ProcessFINER16TcpCarrierPackett
 *fill*         0x4002f27e        0x2 
 .text._ZN13socket_struct18ProcessDataSegmentER16TcpCarrierPackettPh
                0x4002f280      0x1aa C:\Nburn/lib/NetBurner.a(tcp.o)
                0x4002f280                _ZN13socket_struct18ProcessDataSegmentER16TcpCarrierPackettPh
 *fill*         0x4002f42a        0x2 
 .text._ZN13socket_struct7processER16TcpCarrierPacket
                0x4002f42c      0x864 C:\Nburn/lib/NetBurner.a(tcp.o)
                0x4002f42c                _ZN13socket_struct7processER16TcpCarrierPacket
 .text._Z16core_process_tcpR16TcpCarrierPacket
                0x4002fc90       0xa0 C:\Nburn/lib/NetBurner.a(tcp.o)
                0x4002fc90                _Z16core_process_tcpR16TcpCarrierPacket
 .text._Z16core_process_tcpP11pool_buffer
                0x4002fd30       0x48 C:\Nburn/lib/NetBurner.a(tcp.o)
                0x4002fd30                _Z16core_process_tcpP11pool_buffer
 .text._Z12process_tcp4P11pool_bufferP5IPPKTt
                0x4002fd78       0x50 C:\Nburn/lib/NetBurner.a(tcp.o)
                0x4002fd78                _Z12process_tcp4P11pool_bufferP5IPPKTt
 .text._Z12process_tcp6R25IPv6FrameProcessingStruct
                0x4002fdc8       0x5a C:\Nburn/lib/NetBurner.a(tcp.o)
                0x4002fdc8                _Z12process_tcp6R25IPv6FrameProcessingStruct
 *fill*         0x4002fe22        0x2 
 .text._Z28GetInterfaceNumberFromMyAddr7IPADDR6
                0x4002fe24       0x48 C:\Nburn/lib/NetBurner.a(tcp.o)
                0x4002fe24                _Z28GetInterfaceNumberFromMyAddr7IPADDR6
 .text._ZN13socket_struct11CoreConnectE7IPADDR6ttS0_
                0x4002fe6c      0x3a4 C:\Nburn/lib/NetBurner.a(tcp.o)
                0x4002fe6c                _ZN13socket_struct11CoreConnectE7IPADDR6ttS0_
 .text._Z11connectvia47IPADDR4ttmS_
                0x40030210      0x150 C:\Nburn/lib/NetBurner.a(tcp.o)
                0x40030210                _Z11connectvia47IPADDR4ttmS_
 .text._Z8connect47IPADDR4ttmS_
                0x40030360       0x98 C:\Nburn/lib/NetBurner.a(tcp.o)
                0x40030360                _Z8connect47IPADDR4ttmS_
 .text._Z8connect47IPADDR4ttm
                0x400303f8       0x32 C:\Nburn/lib/NetBurner.a(tcp.o)
                0x400303f8                _Z8connect47IPADDR4ttm
 *fill*         0x4003042a        0x2 
 .text.startup._GLOBAL__sub_I__Z11GetFirstSeqv
                0x4003042c      0x10a C:\Nburn/lib/NetBurner.a(tcp.o)
 *fill*         0x40030536        0x2 
 .text._Z10ExpandReadiPci
                0x40030538       0x3c C:\Nburn/lib/NetBurner.a(extraio.o)
                0x40030538                _Z10ExpandReadiPci
 .text._Z11ExpandWriteiPKci
                0x40030574       0x3e C:\Nburn/lib/NetBurner.a(extraio.o)
                0x40030574                _Z11ExpandWriteiPKci
 *fill*         0x400305b2        0x2 
 .text._Z11ExpandClosei
                0x400305b4       0x38 C:\Nburn/lib/NetBurner.a(extraio.o)
                0x400305b4                _Z11ExpandClosei
 .text._Z15GetExtraFDwIntfPvP14IoExpandStructi
                0x400305ec       0xac C:\Nburn/lib/NetBurner.a(extraio.o)
                0x400305ec                _Z15GetExtraFDwIntfPvP14IoExpandStructi
 .text._Z10GetExtraFDPvP14IoExpandStruct
                0x40030698       0x18 C:\Nburn/lib/NetBurner.a(extraio.o)
                0x40030698                _Z10GetExtraFDPvP14IoExpandStruct
 .text._Z11FreeExtraFdi
                0x400306b0       0x42 C:\Nburn/lib/NetBurner.a(extraio.o)
                0x400306b0                _Z11FreeExtraFdi
 *fill*         0x400306f2        0x2 
 .text._Z17GetExtraInterfacei
                0x400306f4       0x28 C:\Nburn/lib/NetBurner.a(extraio.o)
                0x400306f4                _Z17GetExtraInterfacei
 .text._Z18processHttpRequestPPcS_S_iR12HTTP_Request
                0x4003071c       0xf8 C:\Nburn/lib/NetBurner.a(http.o)
                0x4003071c                _Z18processHttpRequestPPcS_S_iR12HTTP_Request
 .text._Z8HttpMainPv
                0x40030814      0x4ba C:\Nburn/lib/NetBurner.a(http.o)
                0x40030814                _Z8HttpMainPv
 *fill*         0x40030cce        0x2 
 .text._Z9StartHTTPt
                0x40030cd0       0x42 C:\Nburn/lib/NetBurner.a(http.o)
                0x40030cd0                _Z9StartHTTPt
 *fill*         0x40030d12        0x2 
 .text.startup._GLOBAL__sub_I_HTTPStk
                0x40030d14       0x28 C:\Nburn/lib/NetBurner.a(http.o)
 .text._Z10BaseDoPostiPcS_S_
                0x40030d3c        0xa C:\Nburn/lib/NetBurner.a(httpinternal.o)
                0x40030d3c                _Z10BaseDoPostiPcS_S_
 *fill*         0x40030d46        0x2 
 .text._ZN12HTTP_Request11ProcessLineEPc
                0x40030d48      0x496 C:\Nburn/lib/NetBurner.a(httpinternal.o)
                0x40030d48                _ZN12HTTP_Request11ProcessLineEPc
 *fill*         0x400311de        0x2 
 .text._ZN12HTTP_Request7RespondEi
                0x400311e0      0x160 C:\Nburn/lib/NetBurner.a(httpinternal.o)
                0x400311e0                _ZN12HTTP_Request7RespondEi
 .text._Z15writesafestringiPKc
                0x40031340       0xf6 C:\Nburn/lib/NetBurner.a(httpinternal.o)
                0x40031340                _Z15writesafestringiPKc
 *fill*         0x40031436        0x2 
 .text._Z16RedirectResponseiPKc
                0x40031438       0x46 C:\Nburn/lib/NetBurner.a(httpinternal.o)
                0x40031438                _Z16RedirectResponseiPKc
 *fill*         0x4003147e        0x2 
 .text._Z16NotFoundResponseiPKc
                0x40031480       0x50 C:\Nburn/lib/NetBurner.a(httpinternal.o)
                0x40031480                _Z16NotFoundResponseiPKc
 .text._Z9BaseDoGetiPcS_
                0x400314d0      0x112 C:\Nburn/lib/NetBurner.a(httpinternal.o)
                0x400314d0                _Z9BaseDoGetiPcS_
 *fill*         0x400315e2        0x2 
 .text._Z10BaseDoHeadiPcS_
                0x400315e4       0xa4 C:\Nburn/lib/NetBurner.a(httpinternal.o)
                0x400315e4                _Z10BaseDoHeadiPcS_
 .text._Z17ForbiddenResponseiPKc
                0x40031688       0x50 C:\Nburn/lib/NetBurner.a(httpinternal.o)
                0x40031688                _Z17ForbiddenResponseiPKc
 .text._Z15BaseInterfaceOKiP16HTML_FILE_RECORD
                0x400316d8       0x86 C:\Nburn/lib/NetBurner.a(httpinternal.o)
                0x400316d8                _Z15BaseInterfaceOKiP16HTML_FILE_RECORD
 *fill*         0x4003175e        0x2 
 .text._Z8InitHttpv
                0x40031760       0x38 C:\Nburn/lib/NetBurner.a(httpinternal.o)
                0x40031760                _Z8InitHttpv
 .text._Z11httpstricmpPKcS0_
                0x40031798       0x74 C:\Nburn/lib/NetBurner.a(httpstricmp.o)
                0x40031798                _Z11httpstricmpPKcS0_
 .text._ZL23strcasecmp_ignore_qmarkPKcS0_
                0x4003180c       0xc4 C:\Nburn/lib/NetBurner.a(htmldecomp.o)
 .text._ZL5compfPKvS0_
                0x400318d0       0x14 C:\Nburn/lib/NetBurner.a(htmldecomp.o)
 .text._Z17GetRecordFromNamePKc
                0x400318e4       0x5e C:\Nburn/lib/NetBurner.a(htmldecomp.o)
                0x400318e4                _Z17GetRecordFromNamePKc
 *fill*         0x40031942        0x2 
 .text._Z8SendHtmliPciPKc
                0x40031944      0x29a C:\Nburn/lib/NetBurner.a(htmldecomp.o)
                0x40031944                _Z8SendHtmliPciPKc
 *fill*         0x40031bde        0x2 
 .text._Z8SendDataP16HTML_FILE_RECORDiPKc
                0x40031be0       0x86 C:\Nburn/lib/NetBurner.a(htmldecomp.o)
                0x40031be0                _Z8SendDataP16HTML_FILE_RECORDiPKc
 *fill*         0x40031c66        0x2 
 .text._Z10SendHeaderiPKcmb
                0x40031c68       0xfa C:\Nburn/lib/NetBurner.a(htmldecomp.o)
                0x40031c68                _Z10SendHeaderiPKcmb
 *fill*         0x40031d62        0x2 
 .text._Z16SendFullResponsePKci
                0x40031d64       0xfc C:\Nburn/lib/NetBurner.a(htmldecomp.o)
                0x40031d64                _Z16SendFullResponsePKci
 .text._Z18SendHeaderResponsePKci
                0x40031e60       0xcc C:\Nburn/lib/NetBurner.a(htmldecomp.o)
                0x40031e60                _Z18SendHeaderResponsePKci
 .text.FD_CLR.part.1
                0x40031f2c       0x5c C:\Nburn/lib/NetBurner.a(iosys.o)
 .text.FD_SET.part.2
                0x40031f88       0x54 C:\Nburn/lib/NetBurner.a(iosys.o)
 .text._Z15RawCheckSelectsv
                0x40031fdc       0x98 C:\Nburn/lib/NetBurner.a(iosys.o)
                0x40031fdc                _Z15RawCheckSelectsv
 .text._Z12CheckSelectsv
                0x40032074       0x34 C:\Nburn/lib/NetBurner.a(iosys.o)
                0x40032074                _Z12CheckSelectsv
 .text._Z9AddSelectP13PendingSelect
                0x400320a8       0x58 C:\Nburn/lib/NetBurner.a(iosys.o)
                0x400320a8                _Z9AddSelectP13PendingSelect
 .text._Z12RemoveSelectP13PendingSelect
                0x40032100       0x7e C:\Nburn/lib/NetBurner.a(iosys.o)
                0x40032100                _Z12RemoveSelectP13PendingSelect
 *fill*         0x4003217e        0x2 
 .text._Z12SetDataAvaili
                0x40032180       0x52 C:\Nburn/lib/NetBurner.a(iosys.o)
                0x40032180                _Z12SetDataAvaili
 *fill*         0x400321d2        0x2 
 .text._Z12ClrDataAvaili
                0x400321d4       0x26 C:\Nburn/lib/NetBurner.a(iosys.o)
                0x400321d4                _Z12ClrDataAvaili
 *fill*         0x400321fa        0x2 
 .text._Z13SetWriteAvaili
                0x400321fc       0x52 C:\Nburn/lib/NetBurner.a(iosys.o)
                0x400321fc                _Z13SetWriteAvaili
 *fill*         0x4003224e        0x2 
 .text._Z13ClrWriteAvaili
                0x40032250       0x26 C:\Nburn/lib/NetBurner.a(iosys.o)
                0x40032250                _Z13ClrWriteAvaili
 *fill*         0x40032276        0x2 
 .text._Z12SetHaveErrori
                0x40032278       0x2e C:\Nburn/lib/NetBurner.a(iosys.o)
                0x40032278                _Z12SetHaveErrori
 *fill*         0x400322a6        0x2 
 .text._Z12ClrHaveErrori
                0x400322a8       0x26 C:\Nburn/lib/NetBurner.a(iosys.o)
                0x400322a8                _Z12ClrHaveErrori
 *fill*         0x400322ce        0x2 
 .text.FD_ZERO  0x400322d0       0x16 C:\Nburn/lib/NetBurner.a(iosys.o)
                0x400322d0                FD_ZERO
 *fill*         0x400322e6        0x2 
 .text.FD_SET   0x400322e8       0x28 C:\Nburn/lib/NetBurner.a(iosys.o)
                0x400322e8                FD_SET
 .text.FD_ISSET
                0x40032310       0x42 C:\Nburn/lib/NetBurner.a(iosys.o)
                0x40032310                FD_ISSET
 *fill*         0x40032352        0x2 
 .text.ZeroWaitSelect
                0x40032354       0xc2 C:\Nburn/lib/NetBurner.a(iosys.o)
                0x40032354                ZeroWaitSelect
 *fill*         0x40032416        0x2 
 .text.select   0x40032418       0xb6 C:\Nburn/lib/NetBurner.a(iosys.o)
                0x40032418                select
 *fill*         0x400324ce        0x2 
 .text.ReadWithTimeout
                0x400324d0       0xdc C:\Nburn/lib/NetBurner.a(iosys.o)
                0x400324d0                ReadWithTimeout
 .text.writeall
                0x400325ac       0x5c C:\Nburn/lib/NetBurner.a(iosys.o)
                0x400325ac                writeall
 .text.writestring
                0x40032608       0x5a C:\Nburn/lib/NetBurner.a(iosys.o)
                0x40032608                writestring
 *fill*         0x40032662        0x2 
 .text._Znwm    0x40032664       0x18 C:\Nburn/lib/NetBurner.a(new_ops.o)
                0x40032664                _Znwm
 .text._ZN12AutoIPClientC2Ei
                0x4003267c       0x7c C:\Nburn/lib/NetBurner.a(autoip.o)
                0x4003267c                _ZN12AutoIPClientC2Ei
                0x4003267c                _ZN12AutoIPClientC1Ei
 .text._ZN12AutoIPClient16addressCollisionEv
                0x400326f8       0x34 C:\Nburn/lib/NetBurner.a(autoip.o)
                0x400326f8                _ZN12AutoIPClient16addressCollisionEv
 .text._ZN12AutoIPClient11getNextTickEv
                0x4003272c        0xe C:\Nburn/lib/NetBurner.a(autoip.o)
                0x4003272c                _ZN12AutoIPClient11getNextTickEv
 *fill*         0x4003273a        0x2 
 .text._ZN12AutoIPClient6setRNGEv
                0x4003273c       0x5c C:\Nburn/lib/NetBurner.a(autoip.o)
                0x4003273c                _ZN12AutoIPClient6setRNGEv
 .text._ZN12AutoIPClient17generateNewIPAddrEv
                0x40032798       0x44 C:\Nburn/lib/NetBurner.a(autoip.o)
                0x40032798                _ZN12AutoIPClient17generateNewIPAddrEv
 .text._ZN12AutoIPClient9negotiateEv
                0x400327dc       0x68 C:\Nburn/lib/NetBurner.a(autoip.o)
                0x400327dc                _ZN12AutoIPClient9negotiateEv
 .text._ZN12AutoIPClient8startArpEv
                0x40032844       0xfe C:\Nburn/lib/NetBurner.a(autoip.o)
                0x40032844                _ZN12AutoIPClient8startArpEv
 *fill*         0x40032942        0x2 
 .text._ZN12AutoIPClient8announceEv
                0x40032944       0x54 C:\Nburn/lib/NetBurner.a(autoip.o)
                0x40032944                _ZN12AutoIPClient8announceEv
 .text._ZN12AutoIPClient8arpCheckEv
                0x40032998      0x118 C:\Nburn/lib/NetBurner.a(autoip.o)
                0x40032998                _ZN12AutoIPClient8arpCheckEv
 .text._ZN12AutoIPClient8timeTickEv
                0x40032ab0       0x76 C:\Nburn/lib/NetBurner.a(autoip.o)
                0x40032ab0                _ZN12AutoIPClient8timeTickEv
 *fill*         0x40032b26        0x2 
 .text._ZN12AutoIPClient14staticTimeTickEv
                0x40032b28       0x5a C:\Nburn/lib/NetBurner.a(autoip.o)
                0x40032b28                _ZN12AutoIPClient14staticTimeTickEv
 *fill*         0x40032b82        0x2 
 .text._Z18AddAutoIPInterfacei
                0x40032b84       0xbc C:\Nburn/lib/NetBurner.a(autoip.o)
                0x40032b84                _Z18AddAutoIPInterfacei
 .text._ZN11DHCPMessage15MsgForInterfaceEi
                0x40032c40       0x46 C:\Nburn/lib/NetBurner.a(dhcpc.o)
                0x40032c40                _ZN11DHCPMessage15MsgForInterfaceEi
 *fill*         0x40032c86        0x2 
 .text._ZN11DHCPMessage7SendMsgE7IPADDR4i
                0x40032c88       0x7c C:\Nburn/lib/NetBurner.a(dhcpc.o)
                0x40032c88                _ZN11DHCPMessage7SendMsgE7IPADDR4i
 .text._Z14AddDhcpOptionsR11DHCPMessageRi
                0x40032d04       0xbc C:\Nburn/lib/NetBurner.a(dhcpc.o)
                0x40032d04                _Z14AddDhcpOptionsR11DHCPMessageRi
 .text._Z21CreateDhcpDiscoverMsgR11DHCPMessagei
                0x40032dc0      0x1d0 C:\Nburn/lib/NetBurner.a(dhcpc.o)
                0x40032dc0                _Z21CreateDhcpDiscoverMsgR11DHCPMessagei
 .text._Z20CreateDhcpRequestMsgR11DHCPMessageS0_i
                0x40032f90      0x33e C:\Nburn/lib/NetBurner.a(dhcpc.o)
                0x40032f90                _Z20CreateDhcpRequestMsgR11DHCPMessageS0_i
 *fill*         0x400332ce        0x2 
 .text._ZN10DhcpObject18CreateDhcpRenewMsgER11DHCPMessage
                0x400332d0      0x1ce C:\Nburn/lib/NetBurner.a(dhcpc.o)
                0x400332d0                _ZN10DhcpObject18CreateDhcpRenewMsgER11DHCPMessage
 *fill*         0x4003349e        0x2 
 .text._ZN10DhcpObject20CreateDhcpReleaseMsgER11DHCPMessage
                0x400334a0      0x142 C:\Nburn/lib/NetBurner.a(dhcpc.o)
                0x400334a0                _ZN10DhcpObject20CreateDhcpReleaseMsgER11DHCPMessage
 *fill*         0x400335e2        0x2 
 .text._ZN10DhcpObject11BootpConfigER11DHCPMessage
                0x400335e4      0x108 C:\Nburn/lib/NetBurner.a(dhcpc.o)
                0x400335e4                _ZN10DhcpObject11BootpConfigER11DHCPMessage
 .text._ZN10DhcpObject10DhcpConfigER11DHCPMessage
                0x400336ec      0x3da C:\Nburn/lib/NetBurner.a(dhcpc.o)
                0x400336ec                _ZN10DhcpObject10DhcpConfigER11DHCPMessage
 *fill*         0x40033ac6        0x2 
 .text._ZN10DhcpObject19UpdateIPRuntimeVarsEh
                0x40033ac8       0x78 C:\Nburn/lib/NetBurner.a(dhcpc.o)
                0x40033ac8                _ZN10DhcpObject19UpdateIPRuntimeVarsEh
 .text._ZN10DhcpObject8StopDHCPEv
                0x40033b40       0x86 C:\Nburn/lib/NetBurner.a(dhcpc.o)
                0x40033b40                _ZN10DhcpObject8StopDHCPEv
 *fill*         0x40033bc6        0x2 
 .text._ZN10DhcpObject14CreateBootpMsgER11DHCPMessage
                0x40033bc8      0x1b4 C:\Nburn/lib/NetBurner.a(dhcpc.o)
                0x40033bc8                _ZN10DhcpObject14CreateBootpMsgER11DHCPMessage
 .text._ZN10DhcpObject16ReTransmitPacketEm
                0x40033d7c      0x160 C:\Nburn/lib/NetBurner.a(dhcpc.o)
                0x40033d7c                _ZN10DhcpObject16ReTransmitPacketEm
 .text._ZN10DhcpObject9DHCPTimerEv
                0x40033edc      0x12c C:\Nburn/lib/NetBurner.a(dhcpc.o)
                0x40033edc                _ZN10DhcpObject9DHCPTimerEv
 .text._ZN10DhcpObject15staticDHCPTimerEv
                0x40034008       0x42 C:\Nburn/lib/NetBurner.a(dhcpc.o)
                0x40034008                _ZN10DhcpObject15staticDHCPTimerEv
 *fill*         0x4003404a        0x2 
 .text._ZN10DhcpObject10DHCPPacketEP11pool_buffer
                0x4003404c      0x34a C:\Nburn/lib/NetBurner.a(dhcpc.o)
                0x4003404c                _ZN10DhcpObject10DHCPPacketEP11pool_buffer
 *fill*         0x40034396        0x2 
 .text._ZN10DhcpObject16staticDHCPPacketEP11pool_buffer
                0x40034398       0x48 C:\Nburn/lib/NetBurner.a(dhcpc.o)
                0x40034398                _ZN10DhcpObject16staticDHCPPacketEP11pool_buffer
 .text._ZN10DhcpObject11RestartDHCPEv
                0x400343e0       0x48 C:\Nburn/lib/NetBurner.a(dhcpc.o)
                0x400343e0                _ZN10DhcpObject11RestartDHCPEv
 .text._Z13__restartDHCPP10DhcpObject
                0x40034428        0xc C:\Nburn/lib/NetBurner.a(dhcpc.o)
                0x40034428                _Z13__restartDHCPP10DhcpObject
 .text._ZN10DhcpObjectC2Ei
                0x40034434      0x110 C:\Nburn/lib/NetBurner.a(dhcpc.o)
                0x40034434                _ZN10DhcpObjectC2Ei
                0x40034434                _ZN10DhcpObjectC1Ei
 .text._Z14GetDHCPAddressi
                0x40034544       0xee C:\Nburn/lib/NetBurner.a(dhcpc.o)
                0x40034544                _Z14GetDHCPAddressi
 *fill*         0x40034632        0x2 
 .text._Z29All_GetDHCPAddressIfNecessaryb
                0x40034634      0x196 C:\Nburn/lib/NetBurner.a(dhcpc.o)
                0x40034634                _Z29All_GetDHCPAddressIfNecessaryb
 *fill*         0x400347ca        0x2 
 .text._Z25GetDHCPAddressIfNecessaryib
                0x400347cc       0x7c C:\Nburn/lib/NetBurner.a(dhcpc.o)
                0x400347cc                _Z25GetDHCPAddressIfNecessaryib
 .text._Z14TransmitBufferP11pool_bufferi
                0x40034848       0x44 C:\Nburn/lib/NetBurner.a(netinterface.o)
                0x40034848                _Z14TransmitBufferP11pool_bufferi
 .text._Z17GetFirstInterfacev
                0x4003488c       0x1e C:\Nburn/lib/NetBurner.a(netinterface.o)
                0x4003488c                _Z17GetFirstInterfacev
 *fill*         0x400348aa        0x2 
 .text._Z16GetnextInterfacei
                0x400348ac       0x44 C:\Nburn/lib/NetBurner.a(netinterface.o)
                0x400348ac                _Z16GetnextInterfacei
 .text._Z17GetInterFaceBlocki
                0x400348f0       0x46 C:\Nburn/lib/NetBurner.a(netinterface.o)
                0x400348f0                _Z17GetInterFaceBlocki
 *fill*         0x40034936        0x2 
 .text._Z18GetInterfaceNumberP15_InterfaceBlock
                0x40034938       0x26 C:\Nburn/lib/NetBurner.a(netinterface.o)
                0x40034938                _Z18GetInterfaceNumberP15_InterfaceBlock
 *fill*         0x4003495e        0x2 
 .text._Z11InterfaceIPi
                0x40034960       0x2e C:\Nburn/lib/NetBurner.a(netinterface.o)
                0x40034960                _Z11InterfaceIPi
 *fill*         0x4003498e        0x2 
 .text._Z13InterfaceGatei
                0x40034990       0x2e C:\Nburn/lib/NetBurner.a(netinterface.o)
                0x40034990                _Z13InterfaceGatei
 *fill*         0x400349be        0x2 
 .text._Z12InterfaceMACi
                0x400349c0       0x40 C:\Nburn/lib/NetBurner.a(netinterface.o)
                0x400349c0                _Z12InterfaceMACi
 .text._Z9GetEframeP11pool_buffer
                0x40034a00       0x12 C:\Nburn/lib/NetBurner.a(netinterface.o)
                0x40034a00                _Z9GetEframeP11pool_buffer
 *fill*         0x40034a12        0x2 
 .text._Z15EnableMulticast6MACADRi
                0x40034a14       0x60 C:\Nburn/lib/NetBurner.a(netinterface.o)
                0x40034a14                _Z15EnableMulticast6MACADRi
 .text._Z17InitializeNetworkPFvP11pool_bufferP6EFRAMEtEPFvS0_S2_E
                0x40034a74       0x66 C:\Nburn/lib/NetBurner.a(netinterface.o)
                0x40034a74                _Z17InitializeNetworkPFvP11pool_bufferP6EFRAMEtEPFvS0_S2_E
 *fill*         0x40034ada        0x2 
 .text._Z26RegisterMultiHomeInterfaceP15_InterfaceBlock
                0x40034adc       0x6e C:\Nburn/lib/NetBurner.a(netinterface.o)
                0x40034adc                _Z26RegisterMultiHomeInterfaceP15_InterfaceBlock
 *fill*         0x40034b4a        0x2 
 .text._Z17RegisterInterfaceP15_InterfaceBlock
                0x40034b4c       0x74 C:\Nburn/lib/NetBurner.a(netinterface.o)
                0x40034b4c                _Z17RegisterInterfaceP15_InterfaceBlock
 .text._Z11GetIfConfigi
                0x40034bc0       0x30 C:\Nburn/lib/NetBurner.a(netinterface.o)
                0x40034bc0                _Z11GetIfConfigi
 .text._Z18BufferDumpTCBStateP6os_tcb
                0x40034bf0      0x504 C:\Nburn/lib/NetBurner.a(taskmon.o)
                0x40034bf0                _Z18BufferDumpTCBStateP6os_tcb
 .text._Z17ProcessTaskPacketR9UDPPacketi
                0x400350f4       0xbc C:\Nburn/lib/NetBurner.a(taskmon.o)
                0x400350f4                _Z17ProcessTaskPacketR9UDPPacketi
 .text._Z17EnableTaskMonitorv
                0x400351b0       0x14 C:\Nburn/lib/NetBurner.a(taskmon.o)
                0x400351b0                _Z17EnableTaskMonitorv
 .text._Z12Local_OutHexmi
                0x400351c4       0x82 C:\Nburn/lib/NetBurner.a(smarttrap.o)
                0x400351c4                _Z12Local_OutHexmi
 *fill*         0x40035246        0x2 
 .text._Z18Local_ShowTaskNamePV6os_tcb
                0x40035248      0x22c C:\Nburn/lib/NetBurner.a(smarttrap.o)
                0x40035248                _Z18Local_ShowTaskNamePV6os_tcb
 .text._Z9WalkStackP6os_tcbmm
                0x40035474       0xb2 C:\Nburn/lib/NetBurner.a(smarttrap.o)
                0x40035474                _Z9WalkStackP6os_tcbmm
 *fill*         0x40035526        0x2 
 .text._Z17Local_OutTCBStateP6os_tcbmm
                0x40035528      0x31a C:\Nburn/lib/NetBurner.a(smarttrap.o)
                0x40035528                _Z17Local_OutTCBStateP6os_tcbmm
 *fill*         0x40035842        0x2 
 .text._Z17Smart_Trap_Holderv
                0x40035844      0x7d4 C:\Nburn/lib/NetBurner.a(smarttrap.o)
                0x40035844                _Z17Smart_Trap_Holderv
                0x4003584c                smart_trap_asm
 .text._Z16EnableSmartTrapsv
                0x40036018       0x1c C:\Nburn/lib/NetBurner.a(smarttrap.o)
                0x40036018                _Z16EnableSmartTrapsv
 .text._Z16EnableAutoUpdatev
                0x40036034       0x14 C:\Nburn/lib/NetBurner.a(autoupdate.o)
                0x40036034                _Z16EnableAutoUpdatev
 .text._Z7DoStartR9UDPPacket
                0x40036048      0x1d4 C:\Nburn/lib/NetBurner.a(autoupdate.o)
                0x40036048                _Z7DoStartR9UDPPacket
 .text._Z6DoDataR9UDPPacket
                0x4003621c       0xf2 C:\Nburn/lib/NetBurner.a(autoupdate.o)
                0x4003621c                _Z6DoDataR9UDPPacket
 *fill*         0x4003630e        0x2 
 .text._Z8DoRebootv
                0x40036310       0x32 C:\Nburn/lib/NetBurner.a(autoupdate.o)
                0x40036310                _Z8DoRebootv
 *fill*         0x40036342        0x2 
 .text._Z9DoExecuteR9UDPPacketi
                0x40036344      0x156 C:\Nburn/lib/NetBurner.a(autoupdate.o)
                0x40036344                _Z9DoExecuteR9UDPPacketi
 *fill*         0x4003649a        0x2 
 .text._Z23ProcessAutoUpdatePacketR9UDPPacket
                0x4003649c       0xba C:\Nburn/lib/NetBurner.a(autoupdate.o)
                0x4003649c                _Z23ProcessAutoUpdatePacketR9UDPPacket
 *fill*         0x40036556        0x2 
 .text._Z19DeviceInitializeSemv
                0x40036558       0x30 C:\Nburn/lib/NetBurner.a(device.o)
                0x40036558                _Z19DeviceInitializeSemv
 .text.startup._GLOBAL__sub_I_DeviceQspiSem
                0x40036588       0x48 C:\Nburn/lib/NetBurner.a(device.o)
 .text._Z26NormalGetNextParamFunctionPv
                0x400365d0       0x16 C:\Nburn/lib/NetBurner.a(nbiprintf.o)
                0x400365d0                _Z26NormalGetNextParamFunctionPv
 *fill*         0x400365e6        0x2 
 .text._Z8putcharsPvPKci
                0x400365e8       0x1c C:\Nburn/lib/NetBurner.a(nbiprintf.o)
                0x400365e8                _Z8putcharsPvPKci
 .text._Z10decimallenm
                0x40036604       0x88 C:\Nburn/lib/NetBurner.a(nbiprintf.o)
                0x40036604                _Z10decimallenm
 .text._Z13decimallenully
                0x4003668c      0x144 C:\Nburn/lib/NetBurner.a(nbiprintf.o)
                0x4003668c                _Z13decimallenully
 .text._Z6hexlenm
                0x400367d0       0x6e C:\Nburn/lib/NetBurner.a(nbiprintf.o)
                0x400367d0                _Z6hexlenm
 *fill*         0x4003683e        0x2 
 .text._Z9hexlenully
                0x40036840       0x46 C:\Nburn/lib/NetBurner.a(nbiprintf.o)
                0x40036840                _Z9hexlenully
 *fill*         0x40036886        0x2 
 .text._Z6octlenm
                0x40036888       0x96 C:\Nburn/lib/NetBurner.a(nbiprintf.o)
                0x40036888                _Z6octlenm
 *fill*         0x4003691e        0x2 
 .text._Z6binlenm
                0x40036920      0x1aa C:\Nburn/lib/NetBurner.a(nbiprintf.o)
                0x40036920                _Z6binlenm
 *fill*         0x40036aca        0x2 
 .text._Z10Put20CharsPvPFiS_PKciEiS1_
                0x40036acc       0x58 C:\Nburn/lib/NetBurner.a(nbiprintf.o)
                0x40036acc                _Z10Put20CharsPvPFiS_PKciEiS1_
 .text._Z8leadzeroimiPFiPvPKciES_Ri.part.8
                0x40036b24       0x38 C:\Nburn/lib/NetBurner.a(nbiprintf.o)
 .text._Z8prespaceimiPFiPvPKciES_Ri
                0x40036b5c       0x5e C:\Nburn/lib/NetBurner.a(nbiprintf.o)
                0x40036b5c                _Z8prespaceimiPFiPvPKciES_Ri
 *fill*         0x40036bba        0x2 
 .text._Z9postspaceimiPFiPvPKciES_Ri
                0x40036bbc       0x64 C:\Nburn/lib/NetBurner.a(nbiprintf.o)
                0x40036bbc                _Z9postspaceimiPFiPvPKciES_Ri
 .text._Z8leadzeroimiPFiPvPKciES_Ri
                0x40036c20       0x54 C:\Nburn/lib/NetBurner.a(nbiprintf.o)
                0x40036c20                _Z8leadzeroimiPFiPvPKciES_Ri
 .text._Z15CoreLongLongDecyPFiPvPKciES_R7pfstate
                0x40036c74      0x33a C:\Nburn/lib/NetBurner.a(nbiprintf.o)
                0x40036c74                _Z15CoreLongLongDecyPFiPvPKciES_R7pfstate
 *fill*         0x40036fae        0x2 
 .text._Z7CoreDecmPFiPvPKciES_R7pfstate
                0x40036fb0      0x2e2 C:\Nburn/lib/NetBurner.a(nbiprintf.o)
                0x40036fb0                _Z7CoreDecmPFiPvPKciES_R7pfstate
 *fill*         0x40037292        0x2 
 .text._Z23NB_internal_iprintf_indPFiPvPKciES_PFmS_ES_
                0x40037294     0x162e C:\Nburn/lib/NetBurner.a(nbiprintf.o)
                0x40037294                _Z23NB_internal_iprintf_indPFiPvPKciES_PFmS_ES_
 *fill*         0x400388c2        0x2 
 .text._Z19NB_internal_iprintfPFiPvPKciES_Pm
                0x400388c4       0x20 C:\Nburn/lib/NetBurner.a(nbiprintf.o)
                0x400388c4                _Z19NB_internal_iprintfPFiPvPKciES_Pm
 .text.iprintf  0x400388e4       0x26 C:\Nburn/lib/NetBurner.a(nbiprintf.o)
                0x400388e4                iprintf
 *fill*         0x4003890a        0x2 
 .text.printf   0x4003890c       0x26 C:\Nburn/lib/NetBurner.a(nbprintf.o)
                0x4003890c                printf
 *fill*         0x40038932        0x2 
 .text._Z11putstrcharsPvPKci
                0x40038934       0x52 C:\Nburn/lib/NetBurner.a(nbsiprintf.o)
                0x40038934                _Z11putstrcharsPvPKci
 *fill*         0x40038986        0x2 
 .text.siprintf
                0x40038988       0x36 C:\Nburn/lib/NetBurner.a(nbsiprintf.o)
                0x40038988                siprintf
 *fill*         0x400389be        0x2 
 .text.sniprintf
                0x400389c0       0x3a C:\Nburn/lib/NetBurner.a(nbsiprintf.o)
                0x400389c0                sniprintf
 *fill*         0x400389fa        0x2 
 .text.sprintf  0x400389fc       0x3c C:\Nburn/lib/NetBurner.a(nbsprintf.o)
                0x400389fc                sprintf
 .text._Z8UserMainPv
                0x40038a38        0xc C:\Nburn/lib/NetBurner.a(weakumain.o)
                0x40038a38                _Z8UserMainPv
 .text.callcusermain
                0x40038a44        0xc C:\Nburn/lib/NetBurner.a(cusermain.o)
                0x40038a44                callcusermain
 .text._Z8fdprintfiPKcz
                0x40038a50       0x8a C:\Nburn/lib/NetBurner.a(fdprintf.o)
                0x40038a50                _Z8fdprintfiPKcz
 *fill*         0x40038ada        0x2 
 .text._ZL7colapsePcPKc
                0x40038adc       0x5c C:\Nburn/lib/NetBurner.a(ipv6_addr.o)
 .text._ZNK7IPADDR68McastMacEv
                0x40038b38       0x46 C:\Nburn/lib/NetBurner.a(ipv6_addr.o)
                0x40038b38                _ZNK7IPADDR68McastMacEv
 *fill*         0x40038b7e        0x2 
 .text._ZNK7IPADDR613CompactformatEPc
                0x40038b80      0x154 C:\Nburn/lib/NetBurner.a(ipv6_addr.o)
                0x40038b80                _ZNK7IPADDR613CompactformatEPc
 .text._ZNK7IPADDR65printEbb
                0x40038cd4       0xd0 C:\Nburn/lib/NetBurner.a(ipv6_addr.o)
                0x40038cd4                _ZNK7IPADDR65printEbb
 .text._ZNK7IPADDR67fdprintEibb
                0x40038da4      0x10e C:\Nburn/lib/NetBurner.a(ipv6_addr.o)
                0x40038da4                _ZNK7IPADDR67fdprintEibb
 *fill*         0x40038eb2        0x2 
 .text._ZNK7IPADDR67sprintfEPcibb
                0x40038eb4      0x108 C:\Nburn/lib/NetBurner.a(ipv6_addr.o)
                0x40038eb4                _ZNK7IPADDR67sprintfEPcibb
 .text._ZN7IPADDR612SetFromAsciiEPKcb
                0x40038fbc      0x31a C:\Nburn/lib/NetBurner.a(ipv6_addr.o)
                0x40038fbc                _ZN7IPADDR612SetFromAsciiEPKcb
 *fill*         0x400392d6        0x2 
 .text._ZN7IPADDR616SolicitedNodeIP6ERKS_
                0x400392d8       0x30 C:\Nburn/lib/NetBurner.a(ipv6_addr.o)
                0x400392d8                _ZN7IPADDR616SolicitedNodeIP6ERKS_
 .text._ZN7IPADDR610AsciiToIp6EPKcb
                0x40039308       0x34 C:\Nburn/lib/NetBurner.a(ipv6_addr.o)
                0x40039308                _ZN7IPADDR610AsciiToIp6EPKcb
 .text._ZN7IPADDR66NullIPEv
                0x4003933c       0x18 C:\Nburn/lib/NetBurner.a(ipv6_addr.o)
                0x4003933c                _ZN7IPADDR66NullIPEv
 .text._ZN7IPADDR69SetGlobalER6MACADRRKS_
                0x40039354       0x7a C:\Nburn/lib/NetBurner.a(ipv6_addr.o)
                0x40039354                _ZN7IPADDR69SetGlobalER6MACADRRKS_
 *fill*         0x400393ce        0x2 
 .text._ZN7IPADDR613SetFromIPMaskER6MACADRRKS_i
                0x400393d0      0x15e C:\Nburn/lib/NetBurner.a(ipv6_addr.o)
                0x400393d0                _ZN7IPADDR613SetFromIPMaskER6MACADRRKS_i
 *fill*         0x4003952e        0x2 
 .text._ZN7IPADDR610SetFromIP4E7IPADDR4
                0x40039530       0x24 C:\Nburn/lib/NetBurner.a(ipv6_addr.o)
                0x40039530                _ZN7IPADDR610SetFromIP4E7IPADDR4
 .text._ZN7IPADDR64csumEv
                0x40039554       0x68 C:\Nburn/lib/NetBurner.a(ipv6_addr.o)
                0x40039554                _ZN7IPADDR64csumEv
 .text._Z7IsMyIp6RK7IPADDR6
                0x400395bc       0x3a C:\Nburn/lib/NetBurner.a(ipv6_tcp.o)
                0x400395bc                _Z7IsMyIp6RK7IPADDR6
 *fill*         0x400395f6        0x2 
 .text._Z9GetSrcIp6RK7IPADDR6
                0x400395f8       0x9c C:\Nburn/lib/NetBurner.a(ipv6_tcp.o)
                0x400395f8                _Z9GetSrcIp6RK7IPADDR6
 .text._Z8SumTCPV6R25IPv6FrameProcessingStructR16TcpCarrierPacketm
                0x40039694       0xa0 C:\Nburn/lib/NetBurner.a(ipv6_tcp.o)
                0x40039694                _Z8SumTCPV6R25IPv6FrameProcessingStructR16TcpCarrierPacketm
 .text._Z18RetransmitV6PacketP11pool_bufferP13socket_struct
                0x40039734       0xc6 C:\Nburn/lib/NetBurner.a(ipv6_tcp.o)
                0x40039734                _Z18RetransmitV6PacketP11pool_bufferP13socket_struct
 *fill*         0x400397fa        0x2 
 .text._Z16TcpSendwSumFrom6RK7IPADDR6S1_R16TcpCarrierPackethm
                0x400397fc      0x20e C:\Nburn/lib/NetBurner.a(ipv6_tcp.o)
                0x400397fc                _Z16TcpSendwSumFrom6RK7IPADDR6S1_R16TcpCarrierPackethm
 *fill*         0x40039a0a        0x2 
 .text._Z12TcpSendwSum6P13socket_structRK7IPADDR6R16TcpCarrierPackethm
                0x40039a0c      0x2ee C:\Nburn/lib/NetBurner.a(ipv6_tcp.o)
                0x40039a0c                _Z12TcpSendwSum6P13socket_structRK7IPADDR6R16TcpCarrierPackethm
 *fill*         0x40039cfa        0x2 
 .text._ZN13IPv6Interface17GetDestinationMTUERK7IPADDR6
                0x40039cfc        0xc C:\Nburn/lib/NetBurner.a(ipv6_tcp.o)
                0x40039cfc                _ZN13IPv6Interface17GetDestinationMTUERK7IPADDR6
 .text._ZN11IPV6_PREFIX12free_elementEv
                0x40039d08       0x1a C:\Nburn/lib/NetBurner.a(ipv6_ip.o)
                0x40039d08                _ZN11IPV6_PREFIX12free_elementEv
 *fill*         0x40039d22        0x2 
 .text._ZN9IPV6_DEST12free_elementEv
                0x40039d24       0x1a C:\Nburn/lib/NetBurner.a(ipv6_ip.o)
                0x40039d24                _ZN9IPV6_DEST12free_elementEv
 *fill*         0x40039d3e        0x2 
 .text._ZN11IPV6_ROUTER12free_elementEv
                0x40039d40       0x1a C:\Nburn/lib/NetBurner.a(ipv6_ip.o)
                0x40039d40                _ZN11IPV6_ROUTER12free_elementEv
 *fill*         0x40039d5a        0x2 
 .text._ZN13IPV6_NEIGHBOR12free_elementEv
                0x40039d5c       0x1a C:\Nburn/lib/NetBurner.a(ipv6_ip.o)
                0x40039d5c                _ZN13IPV6_NEIGHBOR12free_elementEv
 *fill*         0x40039d76        0x2 
 .text._ZN8IPV6_DNS12free_elementEv
                0x40039d78       0x1a C:\Nburn/lib/NetBurner.a(ipv6_ip.o)
                0x40039d78                _ZN8IPV6_DNS12free_elementEv
 *fill*         0x40039d92        0x2 
 .text._ZN10IPV6_DHCPD12free_elementEv
                0x40039d94       0x1a C:\Nburn/lib/NetBurner.a(ipv6_ip.o)
                0x40039d94                _ZN10IPV6_DHCPD12free_elementEv
 *fill*         0x40039dae        0x2 
 .text._ZN11IPV6_ROUTER17AgeStillValidTestEv
                0x40039db0       0x22 C:\Nburn/lib/NetBurner.a(ipv6_ip.o)
                0x40039db0                _ZN11IPV6_ROUTER17AgeStillValidTestEv
 *fill*         0x40039dd2        0x2 
 .text._ZN12IPV6_ROOT_EL17AgeStillValidTestEv
                0x40039dd4        0xa C:\Nburn/lib/NetBurner.a(ipv6_ip.o)
                0x40039dd4                _ZN10IPV6_DHCPD17AgeStillValidTestEv
                0x40039dd4                _ZN13IPV6_NEIGHBOR17AgeStillValidTestEv
                0x40039dd4                _ZN12IPV6_ROOT_EL17AgeStillValidTestEv
 *fill*         0x40039dde        0x2 
 .text._ZN8IPV6_DNSD2Ev
                0x40039de0        0x8 C:\Nburn/lib/NetBurner.a(ipv6_ip.o)
                0x40039de0                _ZN8IPV6_DNSD2Ev
                0x40039de0                _ZN8IPV6_DNSD1Ev
 .text._ZN10IPV6_DHCPDD2Ev
                0x40039de8        0x8 C:\Nburn/lib/NetBurner.a(ipv6_ip.o)
                0x40039de8                _ZN10IPV6_DHCPDD1Ev
                0x40039de8                _ZN10IPV6_DHCPDD2Ev
 .text._ZN13IPV6_NEIGHBORD2Ev
                0x40039df0        0x8 C:\Nburn/lib/NetBurner.a(ipv6_ip.o)
                0x40039df0                _ZN13IPV6_NEIGHBORD1Ev
                0x40039df0                _ZN13IPV6_NEIGHBORD2Ev
 .text._ZN11IPV6_ROUTERD2Ev
                0x40039df8        0x8 C:\Nburn/lib/NetBurner.a(ipv6_ip.o)
                0x40039df8                _ZN11IPV6_ROUTERD1Ev
                0x40039df8                _ZN11IPV6_ROUTERD2Ev
 .text._ZN9IPV6_DESTD2Ev
                0x40039e00        0x8 C:\Nburn/lib/NetBurner.a(ipv6_ip.o)
                0x40039e00                _ZN9IPV6_DESTD1Ev
                0x40039e00                _ZN9IPV6_DESTD2Ev
 .text._ZN11IPV6_PREFIXD2Ev
                0x40039e08        0x8 C:\Nburn/lib/NetBurner.a(ipv6_ip.o)
                0x40039e08                _ZN11IPV6_PREFIXD2Ev
                0x40039e08                _ZN11IPV6_PREFIXD1Ev
 .text._ZL18FreeCombinedBufferRP11pool_buffer
                0x40039e10       0x34 C:\Nburn/lib/NetBurner.a(ipv6_ip.o)
 .text._ZN11IPV6_PREFIXD0Ev
                0x40039e44       0x18 C:\Nburn/lib/NetBurner.a(ipv6_ip.o)
                0x40039e44                _ZN11IPV6_PREFIXD0Ev
 .text._ZN9IPV6_DESTD0Ev
                0x40039e5c       0x18 C:\Nburn/lib/NetBurner.a(ipv6_ip.o)
                0x40039e5c                _ZN9IPV6_DESTD0Ev
 .text._ZN11IPV6_ROUTERD0Ev
                0x40039e74       0x18 C:\Nburn/lib/NetBurner.a(ipv6_ip.o)
                0x40039e74                _ZN11IPV6_ROUTERD0Ev
 .text._ZN13IPV6_NEIGHBORD0Ev
                0x40039e8c       0x18 C:\Nburn/lib/NetBurner.a(ipv6_ip.o)
                0x40039e8c                _ZN13IPV6_NEIGHBORD0Ev
 .text._ZN8IPV6_DNSD0Ev
                0x40039ea4       0x18 C:\Nburn/lib/NetBurner.a(ipv6_ip.o)
                0x40039ea4                _ZN8IPV6_DNSD0Ev
 .text._ZN10IPV6_DHCPDD0Ev
                0x40039ebc       0x18 C:\Nburn/lib/NetBurner.a(ipv6_ip.o)
                0x40039ebc                _ZN10IPV6_DHCPDD0Ev
 .text._ZL28FindFragmentHeaderNextHeaderR25IPv6FrameProcessingStruct.isra.0
                0x40039ed4       0xd2 C:\Nburn/lib/NetBurner.a(ipv6_ip.o)
 *fill*         0x40039fa6        0x2 
 .text._ZN11IPV6_PREFIX17AgeStillValidTestEv
                0x40039fa8       0x66 C:\Nburn/lib/NetBurner.a(ipv6_ip.o)
                0x40039fa8                _ZN11IPV6_PREFIX17AgeStillValidTestEv
 *fill*         0x4003a00e        0x2 
 .text._ZN9IPV6_DEST17AgeStillValidTestEv
                0x4003a010       0x36 C:\Nburn/lib/NetBurner.a(ipv6_ip.o)
                0x4003a010                _ZN9IPV6_DEST17AgeStillValidTestEv
 *fill*         0x4003a046        0x2 
 .text._ZN8IPV6_DNS17AgeStillValidTestEv
                0x4003a048       0x48 C:\Nburn/lib/NetBurner.a(ipv6_ip.o)
                0x4003a048                _ZN8IPV6_DNS17AgeStillValidTestEv
 .text._ZL17fragmentidcompareP11pool_bufferS0_
                0x4003a090      0x1bc C:\Nburn/lib/NetBurner.a(ipv6_ip.o)
 .text._ZN25IPv6FrameProcessingStruct16free_proc_structEv
                0x4003a24c       0x44 C:\Nburn/lib/NetBurner.a(ipv6_ip.o)
                0x4003a24c                _ZN25IPv6FrameProcessingStruct16free_proc_structEv
 .text._ZL24TransmitBufferwFragmentsR25IPv6FrameProcessingStructi
                0x4003a290      0x204 C:\Nburn/lib/NetBurner.a(ipv6_ip.o)
 .text._ZN25IPv6FrameProcessingStruct7releaseEv
                0x4003a494       0x20 C:\Nburn/lib/NetBurner.a(ipv6_ip.o)
                0x4003a494                _ZN25IPv6FrameProcessingStruct7releaseEv
 .text._ZN25IPv6FrameProcessingStruct21HopByHopParseHasErrorEPhPi
                0x4003a4b4       0xcc C:\Nburn/lib/NetBurner.a(ipv6_ip.o)
                0x4003a4b4                _ZN25IPv6FrameProcessingStruct21HopByHopParseHasErrorEPhPi
 .text._ZN25IPv6FrameProcessingStruct14WalkNextHeaderEPi
                0x4003a580      0x258 C:\Nburn/lib/NetBurner.a(ipv6_ip.o)
                0x4003a580                _ZN25IPv6FrameProcessingStruct14WalkNextHeaderEPi
 .text._ZL14CopyInFragmentPhP11pool_buffer
                0x4003a7d8       0x70 C:\Nburn/lib/NetBurner.a(ipv6_ip.o)
 .text._ZN13IPv6Interface7SumIcmpER25IPv6FrameProcessingStruct
                0x4003a848       0xa8 C:\Nburn/lib/NetBurner.a(ipv6_ip.o)
                0x4003a848                _ZN13IPv6Interface7SumIcmpER25IPv6FrameProcessingStruct
 .text._ZN13IPv6Interface16ProcessPingReplyER25IPv6FrameProcessingStruct
                0x4003a8f0       0x52 C:\Nburn/lib/NetBurner.a(ipv6_ip.o)
                0x4003a8f0                _ZN13IPv6Interface16ProcessPingReplyER25IPv6FrameProcessingStruct
 *fill*         0x4003a942        0x2 
 .text._ZN11IPV6_PREFIX6OnLinkERK7IPADDR6
                0x4003a944       0x90 C:\Nburn/lib/NetBurner.a(ipv6_ip.o)
                0x4003a944                _ZN11IPV6_PREFIX6OnLinkERK7IPADDR6
 .text._ZN13IPv6Interface6OnLinkERK7IPADDR6
                0x4003a9d4       0x6e C:\Nburn/lib/NetBurner.a(ipv6_ip.o)
                0x4003a9d4                _ZN13IPv6Interface6OnLinkERK7IPADDR6
 *fill*         0x4003aa42        0x2 
 .text._ZN13IPv6Interface11IsMyAddressERK7IPADDR6b
                0x4003aa44      0x13c C:\Nburn/lib/NetBurner.a(ipv6_ip.o)
                0x4003aa44                _ZN13IPv6Interface11IsMyAddressERK7IPADDR6b
 .text._ZN13IPv6Interface18ValidateIcmpPacketER25IPv6FrameProcessingStruct
                0x4003ab80       0xd6 C:\Nburn/lib/NetBurner.a(ipv6_ip.o)
                0x4003ab80                _ZN13IPv6Interface18ValidateIcmpPacketER25IPv6FrameProcessingStruct
 *fill*         0x4003ac56        0x2 
 .text._ZN25IPv6FrameProcessingStructC2EP11pool_buffer
                0x4003ac58       0x30 C:\Nburn/lib/NetBurner.a(ipv6_ip.o)
                0x4003ac58                _ZN25IPv6FrameProcessingStructC2EP11pool_buffer
                0x4003ac58                _ZN25IPv6FrameProcessingStructC1EP11pool_buffer
 .text._ZN13IPv6InterfaceC2Ei
                0x4003ac88      0x2c6 C:\Nburn/lib/NetBurner.a(ipv6_ip.o)
                0x4003ac88                _ZN13IPv6InterfaceC1Ei
                0x4003ac88                _ZN13IPv6InterfaceC2Ei
 *fill*         0x4003af4e        0x2 
 .text._ZN13IPv6Interface13GetInterfaceNEi
                0x4003af50       0x36 C:\Nburn/lib/NetBurner.a(ipv6_ip.o)
                0x4003af50                _ZN13IPv6Interface13GetInterfaceNEi
 *fill*         0x4003af86        0x2 
 .text._ZN13IPv6Interface21GetInterfaceForSourceERK7IPADDR6
                0x4003af88       0x4c C:\Nburn/lib/NetBurner.a(ipv6_ip.o)
                0x4003af88                _ZN13IPv6Interface21GetInterfaceForSourceERK7IPADDR6
 .text._Z8InitIPv6i
                0x4003afd4       0xd6 C:\Nburn/lib/NetBurner.a(ipv6_ip.o)
                0x4003afd4                _Z8InitIPv6i
 *fill*         0x4003b0aa        0x2 
 .text._ZN13IPv6Interface11PrefixAllocERK7IPADDR6
                0x4003b0ac       0x92 C:\Nburn/lib/NetBurner.a(ipv6_ip.o)
                0x4003b0ac                _ZN13IPv6Interface11PrefixAllocERK7IPADDR6
 *fill*         0x4003b13e        0x2 
 .text._ZN13IPv6Interface9DestAllocERK7IPADDR6
                0x4003b140       0x8a C:\Nburn/lib/NetBurner.a(ipv6_ip.o)
                0x4003b140                _ZN13IPv6Interface9DestAllocERK7IPADDR6
 *fill*         0x4003b1ca        0x2 
 .text._ZN13IPv6Interface11RouterAllocERK7IPADDR6
                0x4003b1cc       0x76 C:\Nburn/lib/NetBurner.a(ipv6_ip.o)
                0x4003b1cc                _ZN13IPv6Interface11RouterAllocERK7IPADDR6
 *fill*         0x4003b242        0x2 
 .text._ZN13IPv6Interface13NeighborAllocERK7IPADDR6
                0x4003b244       0x9e C:\Nburn/lib/NetBurner.a(ipv6_ip.o)
                0x4003b244                _ZN13IPv6Interface13NeighborAllocERK7IPADDR6
 *fill*         0x4003b2e2        0x2 
 .text._ZN13IPv6Interface8DnsAllocERK7IPADDR6b
                0x4003b2e4       0xb8 C:\Nburn/lib/NetBurner.a(ipv6_ip.o)
                0x4003b2e4                _ZN13IPv6Interface8DnsAllocERK7IPADDR6b
 .text._ZN13IPv6Interface10DHCPDAllocERK7IPADDR6
                0x4003b39c       0x6c C:\Nburn/lib/NetBurner.a(ipv6_ip.o)
                0x4003b39c                _ZN13IPv6Interface10DHCPDAllocERK7IPADDR6
 .text._ZN22IPV6_ROOT_EL_CONTAINER6RemoveEP12IPV6_ROOT_EL
                0x4003b408       0xb0 C:\Nburn/lib/NetBurner.a(ipv6_ip.o)
                0x4003b408                _ZN22IPV6_ROOT_EL_CONTAINER6RemoveEP12IPV6_ROOT_EL
 .text._ZN13IPv6Interface14ClearDHCPDInfoEP10IPV6_DHCPD
                0x4003b4b8       0xb4 C:\Nburn/lib/NetBurner.a(ipv6_ip.o)
                0x4003b4b8                _ZN13IPv6Interface14ClearDHCPDInfoEP10IPV6_DHCPD
 .text._ZN22IPV6_ROOT_EL_CONTAINER4FindERK7IPADDR6b
                0x4003b56c       0x94 C:\Nburn/lib/NetBurner.a(ipv6_ip.o)
                0x4003b56c                _ZN22IPV6_ROOT_EL_CONTAINER4FindERK7IPADDR6b
 .text._ZN13IPv6Interface13ProcessTooBigER25IPv6FrameProcessingStruct
                0x4003b600       0xba C:\Nburn/lib/NetBurner.a(ipv6_ip.o)
                0x4003b600                _ZN13IPv6Interface13ProcessTooBigER25IPv6FrameProcessingStruct
 *fill*         0x4003b6ba        0x2 
 .text._ZN13IPv6Interface7FindDNSERK7IPADDR6bP10IPV6_DHCPD
                0x4003b6bc       0xb0 C:\Nburn/lib/NetBurner.a(ipv6_ip.o)
                0x4003b6bc                _ZN13IPv6Interface7FindDNSERK7IPADDR6bP10IPV6_DHCPD
 .text._ZN13IPv6Interface14FindDNSByDHCPDEP10IPV6_DHCPDP8IPV6_DNS
                0x4003b76c       0x3c C:\Nburn/lib/NetBurner.a(ipv6_ip.o)
                0x4003b76c                _ZN13IPv6Interface14FindDNSByDHCPDEP10IPV6_DHCPDP8IPV6_DNS
 .text._ZN10IPV6_DHCPD11FindIA_AddrEP11IPV6_PREFIX
                0x4003b7a8       0x30 C:\Nburn/lib/NetBurner.a(ipv6_ip.o)
                0x4003b7a8                _ZN10IPV6_DHCPD11FindIA_AddrEP11IPV6_PREFIX
 .text._ZN22IPV6_ROOT_EL_CONTAINER5FirstEv
                0x4003b7d8       0x10 C:\Nburn/lib/NetBurner.a(ipv6_ip.o)
                0x4003b7d8                _ZN22IPV6_ROOT_EL_CONTAINER5FirstEv
 .text._ZN13IPV6_NEIGHBOR15Send_ND_SolicitEb
                0x4003b7e8      0x2d6 C:\Nburn/lib/NetBurner.a(ipv6_ip.o)
                0x4003b7e8                _ZN13IPV6_NEIGHBOR15Send_ND_SolicitEb
 *fill*         0x4003babe        0x2 
 .text._ZN13IPV6_NEIGHBOR7DiscardEv
                0x4003bac0       0x80 C:\Nburn/lib/NetBurner.a(ipv6_ip.o)
                0x4003bac0                _ZN13IPV6_NEIGHBOR7DiscardEv
 .text._ZN11IPV6_ROUTER16CleanUpAndRemoveEv
                0x4003bb40      0x100 C:\Nburn/lib/NetBurner.a(ipv6_ip.o)
                0x4003bb40                _ZN11IPV6_ROUTER16CleanUpAndRemoveEv
 .text._ZN11IPV6_ROUTER17RemoveFromDefaultEv
                0x4003bc40       0xba C:\Nburn/lib/NetBurner.a(ipv6_ip.o)
                0x4003bc40                _ZN11IPV6_ROUTER17RemoveFromDefaultEv
 *fill*         0x4003bcfa        0x2 
 .text._ZN13IPv6Interface14FirstDefRouterEv
                0x4003bcfc       0x58 C:\Nburn/lib/NetBurner.a(ipv6_ip.o)
                0x4003bcfc                _ZN13IPv6Interface14FirstDefRouterEv
 .text._ZN13IPv6Interface26GetInterfaceForDestinationERK7IPADDR6
                0x4003bd54       0x80 C:\Nburn/lib/NetBurner.a(ipv6_ip.o)
                0x4003bd54                _ZN13IPv6Interface26GetInterfaceForDestinationERK7IPADDR6
 .text._ZN11IPV6_ROUTER12GetNextValidEv
                0x4003bdd4       0x62 C:\Nburn/lib/NetBurner.a(ipv6_ip.o)
                0x4003bdd4                _ZN11IPV6_ROUTER12GetNextValidEv
 *fill*         0x4003be36        0x2 
 .text._ZN6MACADR5printEv
                0x4003be38        0xc C:\Nburn/lib/NetBurner.a(ipv6_ip.o)
                0x4003be38                _ZN6MACADR5printEv
 .text._Z13bFullFragmentP11pool_bufferS0_
                0x4003be44       0xae C:\Nburn/lib/NetBurner.a(ipv6_ip.o)
                0x4003be44                _Z13bFullFragmentP11pool_bufferS0_
 *fill*         0x4003bef2        0x2 
 .text._ZN13IPv6Interface11Process_TCPER25IPv6FrameProcessingStruct
                0x4003bef4       0x4c C:\Nburn/lib/NetBurner.a(ipv6_ip.o)
                0x4003bef4                _ZN13IPv6Interface11Process_TCPER25IPv6FrameProcessingStruct
 .text._ZN13IPv6Interface15MySourceAddressERK7IPADDR6
                0x4003bf40      0x19e C:\Nburn/lib/NetBurner.a(ipv6_ip.o)
                0x4003bf40                _ZN13IPv6Interface15MySourceAddressERK7IPADDR6
 *fill*         0x4003c0de        0x2 
 .text._ZN13IPV6_NEIGHBOR12CoreSendPendEP11pool_buffer
                0x4003c0e0       0xf8 C:\Nburn/lib/NetBurner.a(ipv6_ip.o)
                0x4003c0e0                _ZN13IPV6_NEIGHBOR12CoreSendPendEP11pool_buffer
 .text._ZN13IPV6_NEIGHBOR11SendPendingEv
                0x4003c1d8       0x46 C:\Nburn/lib/NetBurner.a(ipv6_ip.o)
                0x4003c1d8                _ZN13IPV6_NEIGHBOR11SendPendingEv
 *fill*         0x4003c21e        0x2 
 .text._ZN13IPV6_NEIGHBOR8SetStateE18eMY_NEIGHBOR_STATE
                0x4003c220       0x82 C:\Nburn/lib/NetBurner.a(ipv6_ip.o)
                0x4003c220                _ZN13IPV6_NEIGHBOR8SetStateE18eMY_NEIGHBOR_STATE
 *fill*         0x4003c2a2        0x2 
 .text._ZN13IPv6Interface18FindCreateNeighborERK7IPADDR6
                0x4003c2a4       0x7a C:\Nburn/lib/NetBurner.a(ipv6_ip.o)
                0x4003c2a4                _ZN13IPv6Interface18FindCreateNeighborERK7IPADDR6
 *fill*         0x4003c31e        0x2 
 .text._ZN13IPv6Interface18ProcessND_RedirectER25IPv6FrameProcessingStruct
                0x4003c320      0x2d8 C:\Nburn/lib/NetBurner.a(ipv6_ip.o)
                0x4003c320                _ZN13IPv6Interface18ProcessND_RedirectER25IPv6FrameProcessingStruct
 .text._ZN13IPV6_NEIGHBOR13ProcessAdvertER25IPv6FrameProcessingStructP15ICMP6_ND_ADVERT
                0x4003c5f8      0x382 C:\Nburn/lib/NetBurner.a(ipv6_ip.o)
                0x4003c5f8                _ZN13IPV6_NEIGHBOR13ProcessAdvertER25IPv6FrameProcessingStructP15ICMP6_ND_ADVERT
 *fill*         0x4003c97a        0x2 
 .text._ZN13IPv6Interface21ProcessND_N_AdvertiseER25IPv6FrameProcessingStruct
                0x4003c97c      0x1ea C:\Nburn/lib/NetBurner.a(ipv6_ip.o)
                0x4003c97c                _ZN13IPv6Interface21ProcessND_N_AdvertiseER25IPv6FrameProcessingStruct
 *fill*         0x4003cb66        0x2 
 .text._ZN13IPV6_NEIGHBOR11ProcessTickEv
                0x4003cb68      0x154 C:\Nburn/lib/NetBurner.a(ipv6_ip.o)
                0x4003cb68                _ZN13IPV6_NEIGHBOR11ProcessTickEv
 .text._ZN13IPV6_NEIGHBOR4SendER25IPv6FrameProcessingStructt
                0x4003ccbc      0x2b2 C:\Nburn/lib/NetBurner.a(ipv6_ip.o)
                0x4003ccbc                _ZN13IPV6_NEIGHBOR4SendER25IPv6FrameProcessingStructt
 *fill*         0x4003cf6e        0x2 
 .text._ZN13IPv6Interface20ProcessRouterOptionsEP11IPV6_ROUTERR25IPv6FrameProcessingStructRiRPh
                0x4003cf70      0x636 C:\Nburn/lib/NetBurner.a(ipv6_ip.o)
                0x4003cf70                _ZN13IPv6Interface20ProcessRouterOptionsEP11IPV6_ROUTERR25IPv6FrameProcessingStructRiRPh
 *fill*         0x4003d5a6        0x2 
 .text._ZN13IPv6Interface21ProcessND_R_AdvertiseER25IPv6FrameProcessingStruct
                0x4003d5a8      0x570 C:\Nburn/lib/NetBurner.a(ipv6_ip.o)
                0x4003d5a8                _ZN13IPv6Interface21ProcessND_R_AdvertiseER25IPv6FrameProcessingStruct
 .text._ZN13IPv6Interface13ProcessIcmpV6ER25IPv6FrameProcessingStruct
                0x4003db18      0x166 C:\Nburn/lib/NetBurner.a(ipv6_ip.o)
                0x4003db18                _ZN13IPv6Interface13ProcessIcmpV6ER25IPv6FrameProcessingStruct
 *fill*         0x4003dc7e        0x2 
 .text._ZN13IPv6Interface9ProcessV6ER25IPv6FrameProcessingStruct
                0x4003dc80      0x1b2 C:\Nburn/lib/NetBurner.a(ipv6_ip.o)
                0x4003dc80                _ZN13IPv6Interface9ProcessV6ER25IPv6FrameProcessingStruct
 *fill*         0x4003de32        0x2 
 .text._ZN13IPv6Interface13RootProcessV6EP11pool_buffer
                0x4003de34       0xb4 C:\Nburn/lib/NetBurner.a(ipv6_ip.o)
                0x4003de34                _ZN13IPv6Interface13RootProcessV6EP11pool_buffer
 .text._ZN13IPv6Interface8RouteOutER25IPv6FrameProcessingStructP9IPV6_DEST
                0x4003dee8      0x4b2 C:\Nburn/lib/NetBurner.a(ipv6_ip.o)
                0x4003dee8                _ZN13IPv6Interface8RouteOutER25IPv6FrameProcessingStructP9IPV6_DEST
 *fill*         0x4003e39a        0x2 
 .text._ZN13IPv6Interface19ProcessND_N_SolicitER25IPv6FrameProcessingStruct
                0x4003e39c      0x542 C:\Nburn/lib/NetBurner.a(ipv6_ip.o)
                0x4003e39c                _ZN13IPv6Interface19ProcessND_N_SolicitER25IPv6FrameProcessingStruct
 *fill*         0x4003e8de        0x2 
 .text._ZN13IPv6Interface18ProcessPingRequestER25IPv6FrameProcessingStruct
                0x4003e8e0      0x1e4 C:\Nburn/lib/NetBurner.a(ipv6_ip.o)
                0x4003e8e0                _ZN13IPv6Interface18ProcessPingRequestER25IPv6FrameProcessingStruct
 .text._ZN13IPv6Interface10RootErrorsEhhmR25IPv6FrameProcessingStruct
                0x4003eac4      0x3ce C:\Nburn/lib/NetBurner.a(ipv6_ip.o)
                0x4003eac4                _ZN13IPv6Interface10RootErrorsEhhmR25IPv6FrameProcessingStruct
 *fill*         0x4003ee92        0x2 
 .text._ZN13IPv6Interface16SendTimeExceededEP11pool_buffer
                0x4003ee94       0x4a C:\Nburn/lib/NetBurner.a(ipv6_ip.o)
                0x4003ee94                _ZN13IPv6Interface16SendTimeExceededEP11pool_buffer
 *fill*         0x4003eede        0x2 
 .text._ZN13IPv6Interface11Process_UDPER25IPv6FrameProcessingStruct
                0x4003eee0      0x262 C:\Nburn/lib/NetBurner.a(ipv6_ip.o)
                0x4003eee0                _ZN13IPv6Interface11Process_UDPER25IPv6FrameProcessingStruct
 *fill*         0x4003f142        0x2 
 .text._ZN13IPv6Interface17SendRouterSolicitEb
                0x4003f144      0x1f2 C:\Nburn/lib/NetBurner.a(ipv6_ip.o)
                0x4003f144                _ZN13IPv6Interface17SendRouterSolicitEb
 *fill*         0x4003f336        0x2 
 .text._ZN13IPv6Interface16SendDUP_DiscoverERK7IPADDR6
                0x4003f338      0x21e C:\Nburn/lib/NetBurner.a(ipv6_ip.o)
                0x4003f338                _ZN13IPv6Interface16SendDUP_DiscoverERK7IPADDR6
 *fill*         0x4003f556        0x2 
 .text._ZN13IPv6Interface13AddDefAddressERK7IPADDR6
                0x4003f558       0xd4 C:\Nburn/lib/NetBurner.a(ipv6_ip.o)
                0x4003f558                _ZN13IPv6Interface13AddDefAddressERK7IPADDR6
 .text._ZN13IPv6Interface7StartNDEv
                0x4003f62c      0x150 C:\Nburn/lib/NetBurner.a(ipv6_ip.o)
                0x4003f62c                _ZN13IPv6Interface7StartNDEv
 .text._ZN13IPv6Interface4TickEv
                0x4003f77c      0x2ae C:\Nburn/lib/NetBurner.a(ipv6_ip.o)
                0x4003f77c                _ZN13IPv6Interface4TickEv
 *fill*         0x4003fa2a        0x2 
 .text._ZN13IPv6Interface17RootProcessV6TickEv
                0x4003fa2c       0x32 C:\Nburn/lib/NetBurner.a(ipv6_ip.o)
                0x4003fa2c                _ZN13IPv6Interface17RootProcessV6TickEv
 *fill*         0x4003fa5e        0x2 
 .text._ZN13IPv6Interface16Process_FragmentER25IPv6FrameProcessingStruct
                0x4003fa60      0x4de C:\Nburn/lib/NetBurner.a(ipv6_ip.o)
                0x4003fa60                _ZN13IPv6Interface16Process_FragmentER25IPv6FrameProcessingStruct
 *fill*         0x4003ff3e        0x2 
 .text._ZN13IPv6Interface17NotifyUnreachableERK7IPADDR6
                0x4003ff40       0x64 C:\Nburn/lib/NetBurner.a(ipv6_ip.o)
                0x4003ff40                _ZN13IPv6Interface17NotifyUnreachableERK7IPADDR6
 .text._ZN13IPv6Interface15NotifyReachableERK7IPADDR6
                0x4003ffa4       0x68 C:\Nburn/lib/NetBurner.a(ipv6_ip.o)
                0x4003ffa4                _ZN13IPv6Interface15NotifyReachableERK7IPADDR6
 .text.startup._GLOBAL__sub_I_IPV6_Frame_RX
                0x4004000c       0x20 C:\Nburn/lib/NetBurner.a(ipv6_ip.o)
 .text._ZN9UDPPacket11SetUpUdpPktEP11pool_buffer
                0x4004002c       0xa4 C:\Nburn/lib/NetBurner.a(ipv6_udp.o)
                0x4004002c                _ZN9UDPPacket11SetUpUdpPktEP11pool_buffer
 .text._ZN9UDPPacket10InitUdpPktEb
                0x400400d0       0x78 C:\Nburn/lib/NetBurner.a(ipv6_udp.o)
                0x400400d0                _ZN9UDPPacket10InitUdpPktEb
 .text._ZN9UDPPacketC2ER25IPv6FrameProcessingStruct
                0x40040148       0x1e C:\Nburn/lib/NetBurner.a(ipv6_udp.o)
                0x40040148                _ZN9UDPPacketC2ER25IPv6FrameProcessingStruct
                0x40040148                _ZN9UDPPacketC1ER25IPv6FrameProcessingStruct
 *fill*         0x40040166        0x2 
 .text._Z12process_udp6R25IPv6FrameProcessingStruct
                0x40040168       0x70 C:\Nburn/lib/NetBurner.a(ipv6_udp.o)
                0x40040168                _Z12process_udp6R25IPv6FrameProcessingStruct
 .text._ZN9UDPPacket17GetSourceAddress6Ev
                0x400401d8       0x62 C:\Nburn/lib/NetBurner.a(ipv6_udp.o)
                0x400401d8                _ZN9UDPPacket17GetSourceAddress6Ev
 *fill*         0x4004023a        0x2 
 .text._ZN9UDPPacket22GetDestinationAddress6Ev
                0x4004023c       0x90 C:\Nburn/lib/NetBurner.a(ipv6_udp.o)
                0x4004023c                _ZN9UDPPacket22GetDestinationAddress6Ev
 .text._Z6SumUDPR25IPv6FrameProcessingStruct
                0x400402cc       0xc2 C:\Nburn/lib/NetBurner.a(ipv6_udp.o)
                0x400402cc                _Z6SumUDPR25IPv6FrameProcessingStruct
 *fill*         0x4004038e        0x2 
 .text._ZN9UDPPacket10Fix_6_Sb_4Ev
                0x40040390       0xd8 C:\Nburn/lib/NetBurner.a(ipv6_udp.o)
                0x40040390                _ZN9UDPPacket10Fix_6_Sb_4Ev
 .text._ZN9UDPPacket20SendViaInterfaceNum6ERK7IPADDR6ih
                0x40040468      0x2f4 C:\Nburn/lib/NetBurner.a(ipv6_udp.o)
                0x40040468                _ZN9UDPPacket20SendViaInterfaceNum6ERK7IPADDR6ih
 .text._ZN9UDPPacket5Send6ERK7IPADDR6h
                0x4004075c       0x84 C:\Nburn/lib/NetBurner.a(ipv6_udp.o)
                0x4004075c                _ZN9UDPPacket5Send6ERK7IPADDR6h
 .text._ZN7IPADDR611GetPrintLenEb
                0x400407e0       0x26 C:\Nburn/lib/NetBurner.a(ipv6_printhelp.o)
                0x400407e0                _ZN7IPADDR611GetPrintLenEb
 *fill*         0x40040806        0x2 
 .text._ZN7IPADDR611PrintHelperEPFiPvPKciES0_b
                0x40040808       0x4a C:\Nburn/lib/NetBurner.a(ipv6_printhelp.o)
                0x40040808                _ZN7IPADDR611PrintHelperEPFiPvPKciES0_b
 *fill*         0x40040852        0x2 
 .text._ZN13IPv6Interface12ReadyMLDBaseER25IPv6FrameProcessingStructRK7IPADDR6
                0x40040854      0x25c C:\Nburn/lib/NetBurner.a(ipv6_extensions.o)
                0x40040854                _ZN13IPv6Interface12ReadyMLDBaseER25IPv6FrameProcessingStructRK7IPADDR6
 .text._ZN13IPv6Interface19SendMLDRegistrationERK7IPADDR6b
                0x40040ab0       0xbe C:\Nburn/lib/NetBurner.a(ipv6_extensions.o)
                0x40040ab0                _ZN13IPv6Interface19SendMLDRegistrationERK7IPADDR6b
 *fill*         0x40040b6e        0x2 
 .text._ZN13IPv6Interface18JoinMulticastGroupERK7IPADDR6
                0x40040b70       0x1e C:\Nburn/lib/NetBurner.a(ipv6_extensions.o)
                0x40040b70                _ZN13IPv6Interface18JoinMulticastGroupERK7IPADDR6
 *fill*         0x40040b8e        0x2 
 .text._ZN13IPv6Interface19LinkLocalIsNowValidEv
                0x40040b90       0xb6 C:\Nburn/lib/NetBurner.a(ipv6_extensions.o)
                0x40040b90                _ZN13IPv6Interface19LinkLocalIsNowValidEv
 *fill*         0x40040c46        0x2 
 .text._ZN13IPv6Interface7MLDTickEv
                0x40040c48      0x110 C:\Nburn/lib/NetBurner.a(ipv6_extensions.o)
                0x40040c48                _ZN13IPv6Interface7MLDTickEv
 .text._ZN13IPv6Interface20ProcessICMPExtensionER25IPv6FrameProcessingStruct
                0x40040d58        0xa C:\Nburn/lib/NetBurner.a(ipv6_extensions.o)
                0x40040d58                _ZN13IPv6Interface20ProcessICMPExtensionER25IPv6FrameProcessingStruct
 *fill*         0x40040d62        0x2 
 .text._Z17ListeningForGroupRK7IPADDR6
                0x40040d64       0x6a C:\Nburn/lib/NetBurner.a(ipv6_multicast.o)
                0x40040d64                _Z17ListeningForGroupRK7IPADDR6
 *fill*         0x40040dce        0x2 
 .text._ZN11IPV6_PREFIX8ShowItemEv
                0x40040dd0       0xd2 C:\Nburn/lib/NetBurner.a(ipv6_show.o)
                0x40040dd0                _ZN11IPV6_PREFIX8ShowItemEv
 *fill*         0x40040ea2        0x2 
 .text._ZN13IPV6_NEIGHBOR8ShowItemEv
                0x40040ea4      0x13c C:\Nburn/lib/NetBurner.a(ipv6_show.o)
                0x40040ea4                _ZN13IPV6_NEIGHBOR8ShowItemEv
 .text._ZN11IPV6_ROUTER8ShowItemEv
                0x40040fe0       0x52 C:\Nburn/lib/NetBurner.a(ipv6_show.o)
                0x40040fe0                _ZN11IPV6_ROUTER8ShowItemEv
 *fill*         0x40041032        0x2 
 .text._ZN9IPV6_DEST8ShowItemEv
                0x40041034       0x9a C:\Nburn/lib/NetBurner.a(ipv6_show.o)
                0x40041034                _ZN9IPV6_DEST8ShowItemEv
 *fill*         0x400410ce        0x2 
 .text._ZN10IPV6_DHCPD8ShowItemEv
                0x400410d0       0x42 C:\Nburn/lib/NetBurner.a(ipv6_show.o)
                0x400410d0                _ZN10IPV6_DHCPD8ShowItemEv
 *fill*         0x40041112        0x2 
 .text._ZN8IPV6_DNS8ShowItemEv
                0x40041114       0xb2 C:\Nburn/lib/NetBurner.a(ipv6_show.o)
                0x40041114                _ZN8IPV6_DNS8ShowItemEv
 *fill*         0x400411c6        0x2 
 .text._ZN2NB2V66DHCPv610DHCPClient19ProcessReply_DNSOptEP10IPV6_DHCPDPNS1_3Opt11DNS_ServersEm.part.4.constprop.9
                0x400411c8      0x1fe C:\Nburn/lib/NetBurner.a(ipv6_dhcp.o)
 *fill*         0x400413c6        0x2 
 .text._ZN2NB2V66DHCPv613DHCPv6MessageC2Ev
                0x400413c8       0x54 C:\Nburn/lib/NetBurner.a(ipv6_dhcp.o)
                0x400413c8                _ZN2NB2V66DHCPv613DHCPv6MessageC2Ev
                0x400413c8                _ZN2NB2V66DHCPv613DHCPv6MessageC1Ev
 .text._ZN2NB2V66DHCPv613DHCPv6MessageC2EP9UDPPacket
                0x4004141c       0x42 C:\Nburn/lib/NetBurner.a(ipv6_dhcp.o)
                0x4004141c                _ZN2NB2V66DHCPv613DHCPv6MessageC1EP9UDPPacket
                0x4004141c                _ZN2NB2V66DHCPv613DHCPv6MessageC2EP9UDPPacket
 *fill*         0x4004145e        0x2 
 .text._ZN2NB2V66DHCPv613DHCPv6Message11AddClientIDEv
                0x40041460       0x60 C:\Nburn/lib/NetBurner.a(ipv6_dhcp.o)
                0x40041460                _ZN2NB2V66DHCPv613DHCPv6Message11AddClientIDEv
 .text._ZN2NB2V66DHCPv613DHCPv6Message6AddOROEPNS1_9Option_IDEti
                0x400414c0      0x158 C:\Nburn/lib/NetBurner.a(ipv6_dhcp.o)
                0x400414c0                _ZN2NB2V66DHCPv613DHCPv6Message6AddOROEPNS1_9Option_IDEti
 .text._ZN2NB2V66DHCPv613DHCPv6Message7AddFQDNEPKc
                0x40041618       0x7c C:\Nburn/lib/NetBurner.a(ipv6_dhcp.o)
                0x40041618                _ZN2NB2V66DHCPv613DHCPv6Message7AddFQDNEPKc
 .text._ZN2NB2V66DHCPv613DHCPv6Message11SendSolicitEmmm
                0x40041694      0x16c C:\Nburn/lib/NetBurner.a(ipv6_dhcp.o)
                0x40041694                _ZN2NB2V66DHCPv613DHCPv6Message11SendSolicitEmmm
 .text._ZN2NB2V66DHCPv613DHCPv6Message11SendRequestEmmmPNS1_3Opt14ClientServerIDEPNS3_5IA_NAE
                0x40041800      0x248 C:\Nburn/lib/NetBurner.a(ipv6_dhcp.o)
                0x40041800                _ZN2NB2V66DHCPv613DHCPv6Message11SendRequestEmmmPNS1_3Opt14ClientServerIDEPNS3_5IA_NAE
 .text._ZN2NB2V66DHCPv613DHCPv6Message11SendInfoReqEmm
                0x40041a48      0x10c C:\Nburn/lib/NetBurner.a(ipv6_dhcp.o)
                0x40041a48                _ZN2NB2V66DHCPv613DHCPv6Message11SendInfoReqEmm
 .text._ZN2NB2V66DHCPv610DHCPClient12StartInfoReqEv
                0x40041b54       0x72 C:\Nburn/lib/NetBurner.a(ipv6_dhcp.o)
                0x40041b54                _ZN2NB2V66DHCPv610DHCPClient12StartInfoReqEv
 *fill*         0x40041bc6        0x2 
 .text._ZN2NB2V66DHCPv610DHCPClient11SendSolicitEv
                0x40041bc8       0x38 C:\Nburn/lib/NetBurner.a(ipv6_dhcp.o)
                0x40041bc8                _ZN2NB2V66DHCPv610DHCPClient11SendSolicitEv
 .text._ZN2NB2V66DHCPv610DHCPClient12StartSolicitEv
                0x40041c00       0xb6 C:\Nburn/lib/NetBurner.a(ipv6_dhcp.o)
                0x40041c00                _ZN2NB2V66DHCPv610DHCPClient12StartSolicitEv
 *fill*         0x40041cb6        0x2 
 .text._ZN2NB2V66DHCPv610DHCPClient16ProcessDHCPAvailEP13IPv6Interfaceh
                0x40041cb8       0xf8 C:\Nburn/lib/NetBurner.a(ipv6_dhcp.o)
                0x40041cb8                _ZN2NB2V66DHCPv610DHCPClient16ProcessDHCPAvailEP13IPv6Interfaceh
 .text._ZN2NB2V66DHCPv610DHCPClient11SendRequestEv
                0x40041db0      0x122 C:\Nburn/lib/NetBurner.a(ipv6_dhcp.o)
                0x40041db0                _ZN2NB2V66DHCPv610DHCPClient11SendRequestEv
 *fill*         0x40041ed2        0x2 
 .text._ZN2NB2V66DHCPv610DHCPClient13ProcessAdvertERNS1_13DHCPv6MessageE.part.5
                0x40041ed4      0x1c8 C:\Nburn/lib/NetBurner.a(ipv6_dhcp.o)
 .text._ZN2NB2V66DHCPv610DHCPClient15SendRenewRebindEb
                0x4004209c      0x24c C:\Nburn/lib/NetBurner.a(ipv6_dhcp.o)
                0x4004209c                _ZN2NB2V66DHCPv610DHCPClient15SendRenewRebindEb
 .text._ZN2NB2V66DHCPv610DHCPClient17ProcessReply_InfoERNS1_13DHCPv6MessageE
                0x400422e8      0x1ea C:\Nburn/lib/NetBurner.a(ipv6_dhcp.o)
                0x400422e8                _ZN2NB2V66DHCPv610DHCPClient17ProcessReply_InfoERNS1_13DHCPv6MessageE
 *fill*         0x400424d2        0x2 
 .text._ZN2NB2V66DHCPv610DHCPClient20ProcessReply_SolicitERNS1_13DHCPv6MessageEb
                0x400424d4      0x520 C:\Nburn/lib/NetBurner.a(ipv6_dhcp.o)
                0x400424d4                _ZN2NB2V66DHCPv610DHCPClient20ProcessReply_SolicitERNS1_13DHCPv6MessageEb
 .text._ZN2NB2V66DHCPv610DHCPClient12ProcessReplyERNS1_13DHCPv6MessageE
                0x400429f4       0x72 C:\Nburn/lib/NetBurner.a(ipv6_dhcp.o)
                0x400429f4                _ZN2NB2V66DHCPv610DHCPClient12ProcessReplyERNS1_13DHCPv6MessageE
 *fill*         0x40042a66        0x2 
 .text._ZN2NB2V66DHCPv610DHCPClient10ProcessMsgERNS1_13DHCPv6MessageE
                0x40042a68       0x5a C:\Nburn/lib/NetBurner.a(ipv6_dhcp.o)
                0x40042a68                _ZN2NB2V66DHCPv610DHCPClient10ProcessMsgERNS1_13DHCPv6MessageE
 *fill*         0x40042ac2        0x2 
 .text._ZN2NB2V66DHCPv610DHCPClient14ProcessDHCPMsgEP9UDPPacket
                0x40042ac4       0x5c C:\Nburn/lib/NetBurner.a(ipv6_dhcp.o)
                0x40042ac4                _ZN2NB2V66DHCPv610DHCPClient14ProcessDHCPMsgEP9UDPPacket
 .text._ZN2NB2V66DHCPv610DHCPClient21IncrementCurrentDelayEm
                0x40042b20       0x54 C:\Nburn/lib/NetBurner.a(ipv6_dhcp.o)
                0x40042b20                _ZN2NB2V66DHCPv610DHCPClient21IncrementCurrentDelayEm
 .text._ZN2NB2V66DHCPv610DHCPClient4TickEv
                0x40042b74      0x408 C:\Nburn/lib/NetBurner.a(ipv6_dhcp.o)
                0x40042b74                _ZN2NB2V66DHCPv610DHCPClient4TickEv
 .text.startup._GLOBAL__sub_I__ZN2NB2V66DHCPv69pAddOROCBE
                0x40042f7c       0x3c C:\Nburn/lib/NetBurner.a(ipv6_dhcp.o)
 .text.startup._GLOBAL__sub_I_mrecs
                0x40042fb8       0x42 C:\Nburn/lib/NetBurner.a(multicast.o)
 *fill*         0x40042ffa        0x2 
 .text._Z18DoRandomGatherSeedv
                0x40042ffc      0x154 C:\Nburn/lib/NetBurner.a(random.o)
                0x40042ffc                _Z18DoRandomGatherSeedv
 .text._Z13GetRandomBytev
                0x40043150       0x6c C:\Nburn/lib/NetBurner.a(random.o)
                0x40043150                _Z13GetRandomBytev
 .text._Z14GetRandomDwordv
                0x400431bc       0x4a C:\Nburn/lib/NetBurner.a(random.o)
                0x400431bc                _Z14GetRandomDwordv
 *fill*         0x40043206        0x2 
 .text._Z7NetDoRXP11pool_bufferti
                0x40043208      0x222 C:\Nburn/lib/NetBurner.a(netrx.o)
                0x40043208                _Z7NetDoRXP11pool_bufferti
 *fill*         0x4004342a        0x2 
 .text._Z12count_gstuffPvPKci
                0x4004342c      0x142 C:\Nburn/lib/NetBurner.a(nbfloatprint.o)
                0x4004342c                _Z12count_gstuffPvPKci
 *fill*         0x4004356e        0x2 
 .text._Z13ulldecimalleny
                0x40043570      0x1f8 C:\Nburn/lib/NetBurner.a(nbfloatprint.o)
                0x40043570                _Z13ulldecimalleny
 .text._Z9Get_f_lendR7pfstate
                0x40043768      0x1ac C:\Nburn/lib/NetBurner.a(nbfloatprint.o)
                0x40043768                _Z9Get_f_lendR7pfstate
 .text._Z13printfractionPFiPvPKciES_dR7pfstate
                0x40043914       0xf4 C:\Nburn/lib/NetBurner.a(nbfloatprint.o)
                0x40043914                _Z13printfractionPFiPvPKciES_dR7pfstate
 .text._Z12OutputFFloatPFiPvPKciES_dR7pfstate
                0x40043a08      0x32a C:\Nburn/lib/NetBurner.a(nbfloatprint.o)
                0x40043a08                _Z12OutputFFloatPFiPvPKciES_dR7pfstate
 *fill*         0x40043d32        0x2 
 .text._Z12OutputEFloatPFiPvPKciES_dR7pfstatec
                0x40043d34      0x354 C:\Nburn/lib/NetBurner.a(nbfloatprint.o)
                0x40043d34                _Z12OutputEFloatPFiPvPKciES_dR7pfstatec
 .text._Z14TheFloatPrintfcPFiPvPKciES_dR7pfstate
                0x40044088      0x594 C:\Nburn/lib/NetBurner.a(nbfloatprint.o)
                0x40044088                _Z14TheFloatPrintfcPFiPvPKciES_dR7pfstate
 .text._Z11putafdcharsPvPKci
                0x4004461c       0x1c C:\Nburn/lib/NetBurner.a(fdiprintf.o)
                0x4004461c                _Z11putafdcharsPvPKci
 .text._ZN7MD5_CTX6__InitEv
                0x40044638       0x3c C:\Nburn/lib/NetBurner.a(md5c.o)
                0x40044638                _ZN7MD5_CTX6__InitEv
 .text._ZNK7MD5_CTX14__GetDigestLenEv
                0x40044674        0xa C:\Nburn/lib/NetBurner.a(md5c.o)
                0x40044674                _ZNK7MD5_CTX14__GetDigestLenEv
 *fill*         0x4004467e        0x2 
 .text._ZNK7MD5_CTX11__GetOIDLenEv
                0x40044680        0xa C:\Nburn/lib/NetBurner.a(md5c.o)
                0x40044680                _ZNK7MD5_CTX11__GetOIDLenEv
 *fill*         0x4004468a        0x2 
 .text._ZNK7MD5_CTX8__GetOIDEv
                0x4004468c        0xe C:\Nburn/lib/NetBurner.a(md5c.o)
                0x4004468c                _ZNK7MD5_CTX8__GetOIDEv
 *fill*         0x4004469a        0x2 
 .text._ZL6EncodePhPmj
                0x4004469c       0x4e C:\Nburn/lib/NetBurner.a(md5c.o)
 *fill*         0x400446ea        0x2 
 .text._ZL12MD5TransformPmPKh
                0x400446ec      0xb30 C:\Nburn/lib/NetBurner.a(md5c.o)
 .text._ZN7MD5_CTX8__UpdateEPKhj
                0x4004521c      0x118 C:\Nburn/lib/NetBurner.a(md5c.o)
                0x4004521c                _ZN7MD5_CTX8__UpdateEPKhj
 .text._ZN7MD5_CTX7__FinalEPh
                0x40045334       0xae C:\Nburn/lib/NetBurner.a(md5c.o)
                0x40045334                _ZN7MD5_CTX7__FinalEPh
 *fill*         0x400453e2        0x2 
 .text._ZN7MD5_CTX4ctorEv
                0x400453e4       0x42 C:\Nburn/lib/NetBurner.a(md5c.o)
                0x400453e4                _ZN7MD5_CTX4ctorEv
 .text.__cxa_pure_virtual
                0x40045426       0x1e c:/nburn/gcc-m68k/bin/../m68k-unknown-elf/sysroot/lib/m54455\libstdc++.a(pure.o)
                0x40045426                __cxa_pure_virtual
 .text._ZN10__cxxabiv111__terminateEPFvvE
                0x40045444       0x42 c:/nburn/gcc-m68k/bin/../m68k-unknown-elf/sysroot/lib/m54455\libstdc++.a(eh_terminate.o)
                0x40045444                _ZN10__cxxabiv111__terminateEPFvvE
 .text._ZSt9terminatev
                0x40045486       0x10 c:/nburn/gcc-m68k/bin/../m68k-unknown-elf/sysroot/lib/m54455\libstdc++.a(eh_terminate.o)
                0x40045486                _ZSt9terminatev
 .text._ZN10__cxxabiv112__unexpectedEPFvvE
                0x40045496       0x10 c:/nburn/gcc-m68k/bin/../m68k-unknown-elf/sysroot/lib/m54455\libstdc++.a(eh_terminate.o)
                0x40045496                _ZN10__cxxabiv112__unexpectedEPFvvE
 .text._ZSt10unexpectedv
                0x400454a6       0x10 c:/nburn/gcc-m68k/bin/../m68k-unknown-elf/sysroot/lib/m54455\libstdc++.a(eh_terminate.o)
                0x400454a6                _ZSt10unexpectedv
 .text._ZSt13get_terminatev
                0x400454b6        0xe c:/nburn/gcc-m68k/bin/../m68k-unknown-elf/sysroot/lib/m54455\libstdc++.a(eh_terminate.o)
                0x400454b6                _ZSt13get_terminatev
 .text._ZSt14get_unexpectedv
                0x400454c4        0xe c:/nburn/gcc-m68k/bin/../m68k-unknown-elf/sysroot/lib/m54455\libstdc++.a(eh_terminate.o)
                0x400454c4                _ZSt14get_unexpectedv
 .text._ZdlPv   0x400454d2        0xc c:/nburn/gcc-m68k/bin/../m68k-unknown-elf/sysroot/lib/m54455\libstdc++.a(del_op.o)
                0x400454d2                _ZdlPv
 .text._ZdlPvm  0x400454de        0xc c:/nburn/gcc-m68k/bin/../m68k-unknown-elf/sysroot/lib/m54455\libstdc++.a(del_ops.o)
                0x400454de                _ZdlPvm
 .text.__cxa_begin_catch
                0x400454ea       0x7c c:/nburn/gcc-m68k/bin/../m68k-unknown-elf/sysroot/lib/m54455\libstdc++.a(eh_catch.o)
                0x400454ea                __cxa_begin_catch
 .text.__cxa_end_catch
                0x40045566       0x7c c:/nburn/gcc-m68k/bin/../m68k-unknown-elf/sysroot/lib/m54455\libstdc++.a(eh_catch.o)
                0x40045566                __cxa_end_catch
 .text._ZL12read_uleb128PKhPm
                0x400455e2       0x32 c:/nburn/gcc-m68k/bin/../m68k-unknown-elf/sysroot/lib/m54455\libstdc++.a(eh_personality.o)
 .text._ZL12read_sleb128PKhPl
                0x40045614       0x46 c:/nburn/gcc-m68k/bin/../m68k-unknown-elf/sysroot/lib/m54455\libstdc++.a(eh_personality.o)
 .text._ZL28read_encoded_value_with_basehjPKhPj
                0x4004565a       0xd2 c:/nburn/gcc-m68k/bin/../m68k-unknown-elf/sysroot/lib/m54455\libstdc++.a(eh_personality.o)
 .text._ZL15get_ttype_entryP16lsda_header_infom
                0x4004572c       0x7e c:/nburn/gcc-m68k/bin/../m68k-unknown-elf/sysroot/lib/m54455\libstdc++.a(eh_personality.o)
 .text._ZL21base_of_encoded_valuehP15_Unwind_Context
                0x400457aa       0x84 c:/nburn/gcc-m68k/bin/../m68k-unknown-elf/sysroot/lib/m54455\libstdc++.a(eh_personality.o)
 .text._ZL18read_encoded_valueP15_Unwind_ContexthPKhPj
                0x4004582e       0x40 c:/nburn/gcc-m68k/bin/../m68k-unknown-elf/sysroot/lib/m54455\libstdc++.a(eh_personality.o)
 .text._ZL17parse_lsda_headerP15_Unwind_ContextPKhP16lsda_header_info
                0x4004586e       0xa6 c:/nburn/gcc-m68k/bin/../m68k-unknown-elf/sysroot/lib/m54455\libstdc++.a(eh_personality.o)
 .text._ZL16get_adjusted_ptrPKSt9type_infoS1_PPv.constprop.3
                0x40045914       0x5a c:/nburn/gcc-m68k/bin/../m68k-unknown-elf/sysroot/lib/m54455\libstdc++.a(eh_personality.o)
 .text._ZL20check_exception_specP16lsda_header_infoPKSt9type_infoPvl
                0x4004596e       0x6c c:/nburn/gcc-m68k/bin/../m68k-unknown-elf/sysroot/lib/m54455\libstdc++.a(eh_personality.o)
 .text.__gxx_personality_v0
                0x400459da      0x3c6 c:/nburn/gcc-m68k/bin/../m68k-unknown-elf/sysroot/lib/m54455\libstdc++.a(eh_personality.o)
                0x400459da                __gxx_personality_v0
 .text.__cxa_call_unexpected
                0x40045da0       0xe8 c:/nburn/gcc-m68k/bin/../m68k-unknown-elf/sysroot/lib/m54455\libstdc++.a(eh_personality.o)
                0x40045da0                __cxa_call_unexpected
 .text._ZNSt13bad_exceptionD2Ev
                0x40045e88        0x8 c:/nburn/gcc-m68k/bin/../m68k-unknown-elf/sysroot/lib/m54455\libstdc++.a(eh_exception.o)
                0x40045e88                _ZNSt13bad_exceptionD1Ev
                0x40045e88                _ZNSt13bad_exceptionD2Ev
 .text._ZNKSt13bad_exception4whatEv
                0x40045e90        0xe c:/nburn/gcc-m68k/bin/../m68k-unknown-elf/sysroot/lib/m54455\libstdc++.a(eh_exception.o)
                0x40045e90                _ZNKSt13bad_exception4whatEv
 .text._ZNSt13bad_exceptionD0Ev
                0x40045e9e        0xc c:/nburn/gcc-m68k/bin/../m68k-unknown-elf/sysroot/lib/m54455\libstdc++.a(eh_exception.o)
                0x40045e9e                _ZNSt13bad_exceptionD0Ev
 .text.__cxa_get_globals_fast
                0x40045eaa        0xe c:/nburn/gcc-m68k/bin/../m68k-unknown-elf/sysroot/lib/m54455\libstdc++.a(eh_globals.o)
                0x40045eaa                __cxa_get_globals_fast
 .text.__cxa_get_globals
                0x40045eb8        0xe c:/nburn/gcc-m68k/bin/../m68k-unknown-elf/sysroot/lib/m54455\libstdc++.a(eh_globals.o)
                0x40045eb8                __cxa_get_globals
 .text._ZN9__gnu_cxx27__verbose_terminate_handlerEv
                0x40045ec6      0x162 c:/nburn/gcc-m68k/bin/../m68k-unknown-elf/sysroot/lib/m54455\libstdc++.a(vterminate.o)
                0x40045ec6                _ZN9__gnu_cxx27__verbose_terminate_handlerEv
 .text._ZN12_GLOBAL__N_14pool4freeEPv.constprop.4
                0x40046028       0x72 c:/nburn/gcc-m68k/bin/../m68k-unknown-elf/sysroot/lib/m54455\libstdc++.a(eh_alloc.o)
 .text._ZN12_GLOBAL__N_14pool8allocateEm.constprop.5
                0x4004609a       0x6c c:/nburn/gcc-m68k/bin/../m68k-unknown-elf/sysroot/lib/m54455\libstdc++.a(eh_alloc.o)
 .text.__cxa_allocate_exception
                0x40046106       0x56 c:/nburn/gcc-m68k/bin/../m68k-unknown-elf/sysroot/lib/m54455\libstdc++.a(eh_alloc.o)
                0x40046106                __cxa_allocate_exception
 .text.__cxa_free_exception
                0x4004615c       0x3a c:/nburn/gcc-m68k/bin/../m68k-unknown-elf/sysroot/lib/m54455\libstdc++.a(eh_alloc.o)
                0x4004615c                __cxa_free_exception
 .text.startup._GLOBAL__sub_I___cxa_allocate_exception
                0x40046196       0x48 c:/nburn/gcc-m68k/bin/../m68k-unknown-elf/sysroot/lib/m54455\libstdc++.a(eh_alloc.o)
 .text._ZL23__gxx_exception_cleanup19_Unwind_Reason_CodeP17_Unwind_Exception
                0x400461de       0x42 c:/nburn/gcc-m68k/bin/../m68k-unknown-elf/sysroot/lib/m54455\libstdc++.a(eh_throw.o)
 .text.__cxa_throw
                0x40046220       0x72 c:/nburn/gcc-m68k/bin/../m68k-unknown-elf/sysroot/lib/m54455\libstdc++.a(eh_throw.o)
                0x40046220                __cxa_throw
 .text.__cxa_rethrow
                0x40046292       0x68 c:/nburn/gcc-m68k/bin/../m68k-unknown-elf/sysroot/lib/m54455\libstdc++.a(eh_throw.o)
                0x40046292                __cxa_rethrow
 .text.__cxa_current_exception_type
                0x400462fa       0x38 c:/nburn/gcc-m68k/bin/../m68k-unknown-elf/sysroot/lib/m54455\libstdc++.a(eh_type.o)
                0x400462fa                __cxa_current_exception_type
 .text._ZN10__cxxabiv120__si_class_type_infoD2Ev
                0x40046332       0x16 c:/nburn/gcc-m68k/bin/../m68k-unknown-elf/sysroot/lib/m54455\libstdc++.a(si_class_type_info.o)
                0x40046332                _ZN10__cxxabiv120__si_class_type_infoD1Ev
                0x40046332                _ZN10__cxxabiv120__si_class_type_infoD2Ev
 .text._ZN10__cxxabiv120__si_class_type_infoD0Ev
                0x40046348       0x24 c:/nburn/gcc-m68k/bin/../m68k-unknown-elf/sysroot/lib/m54455\libstdc++.a(si_class_type_info.o)
                0x40046348                _ZN10__cxxabiv120__si_class_type_infoD0Ev
 .text._ZNKSt9type_infoeqERKS_.isra.0
                0x4004636c       0x3c c:/nburn/gcc-m68k/bin/../m68k-unknown-elf/sysroot/lib/m54455\libstdc++.a(si_class_type_info.o)
 .text._ZNK10__cxxabiv120__si_class_type_info12__do_dyncastElNS_17__class_type_info10__sub_kindEPKS1_PKvS4_S6_RNS1_16__dyncast_resultE
                0x400463a8       0xbc c:/nburn/gcc-m68k/bin/../m68k-unknown-elf/sysroot/lib/m54455\libstdc++.a(si_class_type_info.o)
                0x400463a8                _ZNK10__cxxabiv120__si_class_type_info12__do_dyncastElNS_17__class_type_info10__sub_kindEPKS1_PKvS4_S6_RNS1_16__dyncast_resultE
 .text._ZNK10__cxxabiv120__si_class_type_info20__do_find_public_srcElPKvPKNS_17__class_type_infoES2_
                0x40046464       0x68 c:/nburn/gcc-m68k/bin/../m68k-unknown-elf/sysroot/lib/m54455\libstdc++.a(si_class_type_info.o)
                0x40046464                _ZNK10__cxxabiv120__si_class_type_info20__do_find_public_srcElPKvPKNS_17__class_type_infoES2_
 .text._ZNK10__cxxabiv120__si_class_type_info11__do_upcastEPKNS_17__class_type_infoEPKvRNS1_15__upcast_resultE
                0x400464cc       0x5c c:/nburn/gcc-m68k/bin/../m68k-unknown-elf/sysroot/lib/m54455\libstdc++.a(si_class_type_info.o)
                0x400464cc                _ZNK10__cxxabiv120__si_class_type_info11__do_upcastEPKNS_17__class_type_infoEPKvRNS1_15__upcast_resultE
 .text.__cxa_call_terminate
                0x40046528       0x48 c:/nburn/gcc-m68k/bin/../m68k-unknown-elf/sysroot/lib/m54455\libstdc++.a(eh_call.o)
                0x40046528                __cxa_call_terminate
 .text._ZNK10__cxxabiv117__class_type_info11__do_upcastEPKS0_PPv
                0x40046570       0x56 c:/nburn/gcc-m68k/bin/../m68k-unknown-elf/sysroot/lib/m54455\libstdc++.a(class_type_info.o)
                0x40046570                _ZNK10__cxxabiv117__class_type_info11__do_upcastEPKS0_PPv
 .text._ZNK10__cxxabiv117__class_type_info20__do_find_public_srcElPKvPKS0_S2_
                0x400465c6       0x18 c:/nburn/gcc-m68k/bin/../m68k-unknown-elf/sysroot/lib/m54455\libstdc++.a(class_type_info.o)
                0x400465c6                _ZNK10__cxxabiv117__class_type_info20__do_find_public_srcElPKvPKS0_S2_
 .text._ZN10__cxxabiv117__class_type_infoD2Ev
                0x400465de       0x16 c:/nburn/gcc-m68k/bin/../m68k-unknown-elf/sysroot/lib/m54455\libstdc++.a(class_type_info.o)
                0x400465de                _ZN10__cxxabiv117__class_type_infoD2Ev
                0x400465de                _ZN10__cxxabiv117__class_type_infoD1Ev
 .text._ZN10__cxxabiv117__class_type_infoD0Ev
                0x400465f4       0x24 c:/nburn/gcc-m68k/bin/../m68k-unknown-elf/sysroot/lib/m54455\libstdc++.a(class_type_info.o)
                0x400465f4                _ZN10__cxxabiv117__class_type_infoD0Ev
 .text._ZNKSt9type_infoeqERKS_.isra.0
                0x40046618       0x3c c:/nburn/gcc-m68k/bin/../m68k-unknown-elf/sysroot/lib/m54455\libstdc++.a(class_type_info.o)
 .text._ZNK10__cxxabiv117__class_type_info11__do_upcastEPKS0_PKvRNS0_15__upcast_resultE
                0x40046654       0x3e c:/nburn/gcc-m68k/bin/../m68k-unknown-elf/sysroot/lib/m54455\libstdc++.a(class_type_info.o)
                0x40046654                _ZNK10__cxxabiv117__class_type_info11__do_upcastEPKS0_PKvRNS0_15__upcast_resultE
 .text._ZNK10__cxxabiv117__class_type_info12__do_dyncastElNS0_10__sub_kindEPKS0_PKvS3_S5_RNS0_16__dyncast_resultE
                0x40046692       0x6a c:/nburn/gcc-m68k/bin/../m68k-unknown-elf/sysroot/lib/m54455\libstdc++.a(class_type_info.o)
                0x40046692                _ZNK10__cxxabiv117__class_type_info12__do_dyncastElNS0_10__sub_kindEPKS0_PKvS3_S5_RNS0_16__dyncast_resultE
 .text._ZNK10__cxxabiv117__class_type_info10__do_catchEPKSt9type_infoPPvj
                0x400466fc       0x50 c:/nburn/gcc-m68k/bin/../m68k-unknown-elf/sysroot/lib/m54455\libstdc++.a(class_type_info.o)
                0x400466fc                _ZNK10__cxxabiv117__class_type_info10__do_catchEPKSt9type_infoPPvj
 .text._ZNSt9type_infoD2Ev
                0x4004674c        0x8 c:/nburn/gcc-m68k/bin/../m68k-unknown-elf/sysroot/lib/m54455\libstdc++.a(tinfo.o)
                0x4004674c                _ZNSt9type_infoD2Ev
                0x4004674c                _ZNSt9type_infoD1Ev
 .text._ZNKSt9type_info15__is_function_pEv
                0x40046754        0xa c:/nburn/gcc-m68k/bin/../m68k-unknown-elf/sysroot/lib/m54455\libstdc++.a(tinfo.o)
                0x40046754                _ZNKSt9type_info14__is_pointer_pEv
                0x40046754                _ZNKSt9type_info15__is_function_pEv
 *fill*         0x4004675e        0x2 
 .text._Z9StopEnet0v
                0x40046760       0x4e C:\Nburn/lib/NANO54415.a(ethernet.o)
                0x40046760                _Z9StopEnet0v
 *fill*         0x400467ae        0x2 
 .text._Z13EthMultifunc06MACADRh
                0x400467b0       0x46 C:\Nburn/lib/NANO54415.a(ethernet.o)
                0x400467b0                _Z13EthMultifunc06MACADRh
 *fill*         0x400467f6        0x2 
 .text._Z10EtherLink0v
                0x400467f8       0x5c C:\Nburn/lib/NANO54415.a(ethernet.o)
                0x400467f8                _Z10EtherLink0v
 .text._ZN12EthernetVars15ProcessRxBufferEP11pool_buffer.part.1
                0x40046854      0x21c C:\Nburn/lib/NANO54415.a(ethernet.o)
 .text._ZN12EthernetVars16ReadyDescriptorsEv.part.2
                0x40046a70       0xd6 C:\Nburn/lib/NANO54415.a(ethernet.o)
 *fill*         0x40046b46        0x2 
 .text._ZN12EthernetVars9RxIsrProcERVmmm
                0x40046b48      0x242 C:\Nburn/lib/NANO54415.a(ethernet.o)
                0x40046b48                _ZN12EthernetVars9RxIsrProcERVmmm
 *fill*         0x40046d8a        0x2 
 .text._Z15fake_rxenetisr0v
                0x40046d8c       0x54 C:\Nburn/lib/NANO54415.a(ethernet.o)
                0x40046d8c                _Z15fake_rxenetisr0v
                0x40046d90                rxenetisr0
 .text.real_rxenetisr0
                0x40046de0       0x6c C:\Nburn/lib/NANO54415.a(ethernet.o)
                0x40046de0                real_rxenetisr0
 .text._Z15fake_txenetisr0v
                0x40046e4c       0x54 C:\Nburn/lib/NANO54415.a(ethernet.o)
                0x40046e4c                _Z15fake_txenetisr0v
                0x40046e50                txenetisr0
 .text._Z15fake_rxenetisr1v
                0x40046ea0       0x54 C:\Nburn/lib/NANO54415.a(ethernet.o)
                0x40046ea0                _Z15fake_rxenetisr1v
                0x40046ea4                rxenetisr1
 .text.real_rxenetisr1
                0x40046ef4       0x6c C:\Nburn/lib/NANO54415.a(ethernet.o)
                0x40046ef4                real_rxenetisr1
 .text._Z15fake_txenetisr1v
                0x40046f60       0x54 C:\Nburn/lib/NANO54415.a(ethernet.o)
                0x40046f60                _Z15fake_txenetisr1v
                0x40046f64                txenetisr1
 .text._ZN12EthernetVars9TxIsrProcERVmmm
                0x40046fb4      0x228 C:\Nburn/lib/NANO54415.a(ethernet.o)
                0x40046fb4                _ZN12EthernetVars9TxIsrProcERVmmm
 .text.real_txenetisr0
                0x400471dc       0x34 C:\Nburn/lib/NANO54415.a(ethernet.o)
                0x400471dc                real_txenetisr0
 .text.real_txenetisr1
                0x40047210       0x34 C:\Nburn/lib/NANO54415.a(ethernet.o)
                0x40047210                real_txenetisr1
 .text._ZN12EthernetVars17EthTransmitBufferEP11pool_buffer
                0x40047244      0x18a C:\Nburn/lib/NANO54415.a(ethernet.o)
                0x40047244                _ZN12EthernetVars17EthTransmitBufferEP11pool_buffer
 *fill*         0x400473ce        0x2 
 .text._Z18EthTransmitBuffer0P11pool_buffer
                0x400473d0       0x1a C:\Nburn/lib/NANO54415.a(ethernet.o)
                0x400473d0                _Z18EthTransmitBuffer0P11pool_buffer
 *fill*         0x400473ea        0x2 
 .text._ZN12EthernetVars6GetMIIEh
                0x400473ec       0x84 C:\Nburn/lib/NANO54415.a(ethernet.o)
                0x400473ec                _ZN12EthernetVars6GetMIIEh
 .text._ZN12EthernetVars6SetMIIEht
                0x40047470       0x8a C:\Nburn/lib/NANO54415.a(ethernet.o)
                0x40047470                _ZN12EthernetVars6SetMIIEht
 *fill*         0x400474fa        0x2 
 .text._ZN12EthernetVars14ResetEnetPart2Ev
                0x400474fc      0x736 C:\Nburn/lib/NANO54415.a(ethernet.o)
                0x400474fc                _ZN12EthernetVars14ResetEnetPart2Ev
 *fill*         0x40047c32        0x2 
 .text._ZN12EthernetVars9ResetEnetEv
                0x40047c34      0xb0e C:\Nburn/lib/NANO54415.a(ethernet.o)
                0x40047c34                _ZN12EthernetVars9ResetEnetEv
 *fill*         0x40048742        0x2 
 .text._ZN12EthernetVars16ReadyDescriptorsEv
                0x40048744       0x1a C:\Nburn/lib/NANO54415.a(ethernet.o)
                0x40048744                _ZN12EthernetVars16ReadyDescriptorsEv
 *fill*         0x4004875e        0x2 
 .text._ZN12EthernetVars13WarmEnetResetEv
                0x40048760       0xb0 C:\Nburn/lib/NANO54415.a(ethernet.o)
                0x40048760                _ZN12EthernetVars13WarmEnetResetEv
 .text._ZN12EthernetVars19ProcessDuplexStatusEt
                0x40048810      0x5f8 C:\Nburn/lib/NANO54415.a(ethernet.o)
                0x40048810                _ZN12EthernetVars19ProcessDuplexStatusEt
 .text._Z17Ether_ProcessTaskPv
                0x40048e08      0x48c C:\Nburn/lib/NANO54415.a(ethernet.o)
                0x40048e08                _Z17Ether_ProcessTaskPv
 .text._ZN12EthernetVars8StopEnetEv
                0x40049294       0x4e C:\Nburn/lib/NANO54415.a(ethernet.o)
                0x40049294                _ZN12EthernetVars8StopEnetEv
 *fill*         0x400492e2        0x2 
 .text._ZN12EthernetVars18InitializeEthernetEiiR6MACADR
                0x400492e4      0x3c0 C:\Nburn/lib/NANO54415.a(ethernet.o)
                0x400492e4                _ZN12EthernetVars18InitializeEthernetEiiR6MACADR
 .text._Z20AddEthernetInterfacev
                0x400496a4      0x136 C:\Nburn/lib/NANO54415.a(ethernet.o)
                0x400496a4                _Z20AddEthernetInterfacev
 *fill*         0x400497da        0x2 
 .text.startup._GLOBAL__sub_I_enet0
                0x400497dc       0x7a C:\Nburn/lib/NANO54415.a(ethernet.o)
 *fill*         0x40049856        0x2 
 .text._ZN12EthernetVars9EtherLinkEv
                0x40049858       0x10 C:\Nburn/lib/NANO54415.a(etherprint.o)
                0x40049858                _ZN12EthernetVars9EtherLinkEv
 .text._ZN12EthernetVars18EthEnableMulticastE6MACADR
                0x40049868      0x1a8 C:\Nburn/lib/NANO54415.a(emulticast.o)
                0x40049868                _ZN12EthernetVars18EthEnableMulticastE6MACADR
 .text._ZN12EthernetVars19EthDisableMulticastE6MACADR
                0x40049a10      0x1f0 C:\Nburn/lib/NANO54415.a(emulticast.o)
                0x40049a10                _ZN12EthernetVars19EthDisableMulticastE6MACADR
 .text._Z9StopEnet1v
                0x40049c00       0x16 C:\Nburn/lib/NANO54415.a(ether2nd.o)
                0x40049c00                _Z9StopEnet1v
 *fill*         0x40049c16        0x2 
 .text._Z10EtherLink1v
                0x40049c18       0x26 C:\Nburn/lib/NANO54415.a(ether2nd.o)
                0x40049c18                _Z10EtherLink1v
 *fill*         0x40049c3e        0x2 
 .text._Z18EthTransmitBuffer1P11pool_buffer
                0x40049c40       0x2e C:\Nburn/lib/NANO54415.a(ether2nd.o)
                0x40049c40                _Z18EthTransmitBuffer1P11pool_buffer
 *fill*         0x40049c6e        0x2 
 .text._Z13EthMultifunc16MACADRh
                0x40049c70       0x46 C:\Nburn/lib/NANO54415.a(ether2nd.o)
                0x40049c70                _Z13EthMultifunc16MACADRh
 *fill*         0x40049cb6        0x2 
 .text._Z14Add2ndEthernetv
                0x40049cb8      0x1da C:\Nburn/lib/NANO54415.a(ether2nd.o)
                0x40049cb8                _Z14Add2ndEthernetv
 *fill*         0x40049e92        0x2 
 .text.startup._GLOBAL__sub_I_EthernetBlock1
                0x40049e94       0x26 C:\Nburn/lib/NANO54415.a(ether2nd.o)
 *fill*         0x40049eba        0x2 
 .text._Z14UpdateMacTableblPhjj
                0x40049ebc      0x1dc C:\Nburn/lib/NANO54415.a(etherswitch.o)
                0x40049ebc                _Z14UpdateMacTableblPhjj
 .text._Z12InitMacTablev
                0x4004a098       0xaa C:\Nburn/lib/NANO54415.a(etherswitch.o)
                0x4004a098                _Z12InitMacTablev
 *fill*         0x4004a142        0x2 
 .text._Z17fake_rxeswitchisrv
                0x4004a144       0x54 C:\Nburn/lib/NANO54415.a(etherswitch.o)
                0x4004a144                _Z17fake_rxeswitchisrv
                0x4004a148                rxeswitchisr
 .text.real_rxeswitchisr
                0x4004a198       0x52 C:\Nburn/lib/NANO54415.a(etherswitch.o)
                0x4004a198                real_rxeswitchisr
 *fill*         0x4004a1ea        0x2 
 .text._Z17fake_txeswitchisrv
                0x4004a1ec       0x54 C:\Nburn/lib/NANO54415.a(etherswitch.o)
                0x4004a1ec                _Z17fake_txeswitchisrv
                0x4004a1f0                txeswitchisr
 .text.real_txeswitchisr
                0x4004a240       0x52 C:\Nburn/lib/NANO54415.a(etherswitch.o)
                0x4004a240                real_txeswitchisr
 *fill*         0x4004a292        0x2 
 .text._Z14fake_eswlrnisrv
                0x4004a294       0x54 C:\Nburn/lib/NANO54415.a(etherswitch.o)
                0x4004a294                _Z14fake_eswlrnisrv
                0x4004a298                eswlrnisr
 .text.real_eswlrnisr
                0x4004a2e8       0x9e C:\Nburn/lib/NANO54415.a(etherswitch.o)
                0x4004a2e8                real_eswlrnisr
 *fill*         0x4004a386        0x2 
 .text._Z15EtherSwitchInitv
                0x4004a388      0x210 C:\Nburn/lib/NANO54415.a(etherswitch.o)
                0x4004a388                _Z15EtherSwitchInitv
 .text._Z16SetupIFConfigRecR15_InterfaceBlock
                0x4004a598      0x2ee C:\Nburn/lib/NetBurner.a(multiconfig.o)
                0x4004a598                _Z16SetupIFConfigRecR15_InterfaceBlock
                0x4004a890                . = ALIGN (0x10)
 *fill*         0x4004a886        0xa 
 *(.eh_frame)
 .eh_frame      0x4004a890        0x0 c:/nburn/gcc-m68k/bin/../lib/gcc/m68k-unknown-elf/5.2.0/m54455/crtbegin.o
 .eh_frame      0x4004a890       0x48 c:/nburn/gcc-m68k/bin/../m68k-unknown-elf/sysroot/lib/m54455\libstdc++.a(pure.o)
 .eh_frame      0x4004a8d8      0x100 c:/nburn/gcc-m68k/bin/../m68k-unknown-elf/sysroot/lib/m54455\libstdc++.a(eh_terminate.o)
 .eh_frame      0x4004a9d8       0x30 c:/nburn/gcc-m68k/bin/../m68k-unknown-elf/sysroot/lib/m54455\libstdc++.a(del_op.o)
 .eh_frame      0x4004aa08       0x30 c:/nburn/gcc-m68k/bin/../m68k-unknown-elf/sysroot/lib/m54455\libstdc++.a(del_ops.o)
 .eh_frame      0x4004aa38       0x88 c:/nburn/gcc-m68k/bin/../m68k-unknown-elf/sysroot/lib/m54455\libstdc++.a(eh_catch.o)
 .eh_frame      0x4004aac0      0x1c4 c:/nburn/gcc-m68k/bin/../m68k-unknown-elf/sysroot/lib/m54455\libstdc++.a(eh_personality.o)
 .eh_frame      0x4004ac84      0x108 c:/nburn/gcc-m68k/bin/../m68k-unknown-elf/sysroot/lib/m54455\libstdc++.a(eh_exception.o)
 .eh_frame      0x4004ad8c       0x48 c:/nburn/gcc-m68k/bin/../m68k-unknown-elf/sysroot/lib/m54455\libstdc++.a(eh_globals.o)
 .eh_frame      0x4004add4       0x48 c:/nburn/gcc-m68k/bin/../m68k-unknown-elf/sysroot/lib/m54455\libstdc++.a(vterminate.o)
 .eh_frame      0x4004ae1c       0xd8 c:/nburn/gcc-m68k/bin/../m68k-unknown-elf/sysroot/lib/m54455\libstdc++.a(eh_alloc.o)
 .eh_frame      0x4004aef4       0x6c c:/nburn/gcc-m68k/bin/../m68k-unknown-elf/sysroot/lib/m54455\libstdc++.a(eh_throw.o)
 .eh_frame      0x4004af60       0x34 c:/nburn/gcc-m68k/bin/../m68k-unknown-elf/sysroot/lib/m54455\libstdc++.a(eh_type.o)
 .eh_frame      0x4004af94       0xd8 c:/nburn/gcc-m68k/bin/../m68k-unknown-elf/sysroot/lib/m54455\libstdc++.a(si_class_type_info.o)
 .eh_frame      0x4004b06c       0x38 c:/nburn/gcc-m68k/bin/../m68k-unknown-elf/sysroot/lib/m54455\libstdc++.a(eh_call.o)
 .eh_frame      0x4004b0a4       0xfc c:/nburn/gcc-m68k/bin/../m68k-unknown-elf/sysroot/lib/m54455\libstdc++.a(class_type_info.o)
 .eh_frame      0x4004b1a0       0x94 c:/nburn/gcc-m68k/bin/../m68k-unknown-elf/sysroot/lib/m54455\libstdc++.a(tinfo.o)
 .eh_frame      0x4004b234       0x44 c:/nburn/gcc-m68k/bin/../lib/gcc/m68k-unknown-elf/5.2.0/m54455\libgcc.a(_udivdi3.o)
 .eh_frame      0x4004b278       0x44 c:/nburn/gcc-m68k/bin/../lib/gcc/m68k-unknown-elf/5.2.0/m54455\libgcc.a(_umoddi3.o)
 .eh_frame      0x4004b2bc      0x410 c:/nburn/gcc-m68k/bin/../lib/gcc/m68k-unknown-elf/5.2.0/m54455\libgcc.a(unwind-dw2.o)
 .eh_frame      0x4004b6cc      0x2f8 c:/nburn/gcc-m68k/bin/../lib/gcc/m68k-unknown-elf/5.2.0/m54455\libgcc.a(unwind-dw2-fde.o)
 .eh_frame      0x4004b9c4        0x4 c:/nburn/gcc-m68k/bin/../lib/gcc/m68k-unknown-elf/5.2.0/m54455/crtend.o
                0x4004b9d0                . = ALIGN (0x10)
 *fill*         0x4004b9c8        0x8 
 *(.gnu.linkonce.t.*)
                0x4004b9d0                . = ALIGN (0x4)
                0x4004b9d0                __CTOR_LIST__ = .
 *(.ctors)
 .ctors         0x4004b9d0        0x4 c:/nburn/gcc-m68k/bin/../lib/gcc/m68k-unknown-elf/5.2.0/m54455/crtbegin.o
 .ctors         0x4004b9d4        0x4 main.o
 .ctors         0x4004b9d8        0x4 Logger.o
 .ctors         0x4004b9dc        0x4 Drivers\introspec.o
 .ctors         0x4004b9e0        0x4 Drivers\IMUSetupAndSample.o
 .ctors         0x4004b9e4        0x4 C:\Nburn/lib/NANO54415.a(serial.o)
 .ctors         0x4004b9e8        0x4 C:\Nburn/lib/NANO54415.a(FlashOps.o)
 .ctors         0x4004b9ec        0x4 C:\Nburn/lib/NANO54415.a(HiResTimer.o)
 .ctors         0x4004b9f0        0x4 C:\Nburn/lib/NANO54415.a(multichanneli2c.o)
 .ctors         0x4004b9f4        0x4 C:\Nburn/lib/NANO54415.a(i2c_class.o)
 .ctors         0x4004b9f8        0x4 C:\Nburn/lib/NetBurner.a(ucosmain.o)
 .ctors         0x4004b9fc        0x4 C:\Nburn/lib/NetBurner.a(ip.o)
 .ctors         0x4004ba00        0x4 C:\Nburn/lib/NetBurner.a(buffers.o)
 .ctors         0x4004ba04        0x4 C:\Nburn/lib/NetBurner.a(arp.o)
 .ctors         0x4004ba08        0x4 C:\Nburn/lib/NetBurner.a(ftpd.o)
 .ctors         0x4004ba0c        0x4 C:\Nburn/lib/NetBurner.a(tcp.o)
 .ctors         0x4004ba10        0x4 C:\Nburn/lib/NetBurner.a(http.o)
 .ctors         0x4004ba14        0x4 C:\Nburn/lib/NetBurner.a(device.o)
 .ctors         0x4004ba18        0x4 C:\Nburn/lib/NetBurner.a(ipv6_ip.o)
 .ctors         0x4004ba1c        0x4 C:\Nburn/lib/NetBurner.a(ipv6_dhcp.o)
 .ctors         0x4004ba20        0x4 C:\Nburn/lib/NetBurner.a(multicast.o)
 .ctors         0x4004ba24        0x4 c:/nburn/gcc-m68k/bin/../m68k-unknown-elf/sysroot/lib/m54455\libstdc++.a(eh_alloc.o)
 .ctors         0x4004ba28        0x4 C:\Nburn/lib/NANO54415.a(ethernet.o)
 .ctors         0x4004ba2c        0x4 C:\Nburn/lib/NANO54415.a(ether2nd.o)
 .ctors         0x4004ba30        0x4 c:/nburn/gcc-m68k/bin/../lib/gcc/m68k-unknown-elf/5.2.0/m54455/crtend.o
                0x4004ba34                __CTOR_END__ = .
                0x4004ba34        0x4 LONG 0x0
                0x4004ba38                __CTOR_END__ = .
                0x4004ba38                __DTOR_LIST__ = .
                0x4004ba38                ___DTOR_LIST__ = .
                0x4004ba38        0x4 LONG 0x2 (((__DTOR_END__ - __DTOR_LIST__) / 0x4) - 0x2)
 *(.dtors)
 .dtors         0x4004ba3c        0x4 c:/nburn/gcc-m68k/bin/../lib/gcc/m68k-unknown-elf/5.2.0/m54455/crtbegin.o
 .dtors         0x4004ba40        0x4 c:/nburn/gcc-m68k/bin/../lib/gcc/m68k-unknown-elf/5.2.0/m54455/crtend.o
                0x4004ba44        0x4 LONG 0x0
                0x4004ba48                __DTOR_END__ = .
 *(.rodata)
 .rodata        0x4004ba48        0x2 C:\Nburn/lib/NetBurner.a(udp.o)
 .rodata        0x4004ba4a      0x72a c:/nburn/gcc-m68k/bin/../m68k-unknown-elf/sysroot/lib/m54455\libstdc++.a(cp-demangle.o)
 .rodata        0x4004c174       0x30 c:/nburn/gcc-m68k/bin/../m68k-unknown-elf/sysroot/lib/m54455\libm.a(lib_a-e_pow.o)
 .rodata        0x4004c1a4      0x188 c:/nburn/gcc-m68k/bin/../m68k-unknown-elf/sysroot/lib/m54455\libm.a(lib_a-e_rem_pio2.o)
 .rodata        0x4004c32c       0x50 c:/nburn/gcc-m68k/bin/../m68k-unknown-elf/sysroot/lib/m54455\libm.a(lib_a-k_rem_pio2.o)
 .rodata        0x4004c37c       0x10 c:/nburn/gcc-m68k/bin/../m68k-unknown-elf/sysroot/lib/m54455\libm.a(lib_a-s_rint.o)
 .rodata        0x4004c38c       0x20 c:/nburn/gcc-m68k/bin/../m68k-unknown-elf/sysroot/lib/m54455\libm.a(lib_a-sf_atan.o)
 .rodata        0x4004c3ac        0x4 c:/nburn/gcc-m68k/bin/../m68k-unknown-elf/sysroot/lib/m54455\libc.a(lib_a-impure.o)
                0x4004c3ac                _global_impure_ptr
 .rodata        0x4004c3b0      0x101 c:/nburn/gcc-m68k/bin/../m68k-unknown-elf/sysroot/lib/m54455\libc.a(lib_a-ctype_.o)
                0x4004c3b0                _ctype_
 *(.rodata.*)
 .rodata.str1.1
                0x4004c4b1       0xbf main.o
 .rodata._ZTV3Nav
                0x4004c570       0x10 Nav.o
                0x4004c570                _ZTV3Nav
 .rodata.str1.1
                0x4004c580       0x38 Logger.o
                                 0x45 (size before relaxing)
 .rodata._ZTV13MainLogObject
                0x4004c5b8       0x10 Logger.o
                0x4004c5b8                _ZTV13MainLogObject
 .rodata.str1.1
                0x4004c5c8       0x18 Drivers\pwm.o
 .rodata.str1.1
                0x4004c5e0       0x84 Drivers\introspec.o
 .rodata._ZTV15IntrospecObject
                0x4004c664       0x10 Drivers\introspec.o
                0x4004c664                _ZTV15IntrospecObject
 .rodata.str1.1
                0x4004c674        0xc Drivers\dsm2.o
 .rodata.str1.1
                0x4004c680      0x10e Drivers\SpinningLidar.o
 .rodata.str1.1
                0x4004c78e       0x33 Drivers\Odometer.o
 *fill*         0x4004c7c1        0x3 
 .rodata._ZTV8Odometer
                0x4004c7c4       0x10 Drivers\Odometer.o
                0x4004c7c4                _ZTV8Odometer
 .rodata.str1.1
                0x4004c7d4       0x6c Drivers\MPU9250.o
 .rodata.str1.1
                0x4004c840       0x15 Drivers\LCD.o
 *fill*         0x4004c855        0x3 
 .rodata._ZTV3LCD
                0x4004c858       0x10 Drivers\LCD.o
                0x4004c858                _ZTV3LCD
 .rodata.str1.1
                0x4004c868      0x2b9 Drivers\IMUSetupAndSample.o
                                0x2bf (size before relaxing)
 .rodata.str1.1
                0x4004cb21      0x132 htmldata.o
                                0x158 (size before relaxing)
 *fill*         0x4004cc53        0x1 
 .rodata.file_record
                0x4004cc54       0x18 htmldata.o
                0x4004cc54                file_record
 .rodata.n_file_record
                0x4004cc6c        0x4 htmldata.o
                0x4004cc6c                n_file_record
 .rodata._ZL12FilePointer0
                0x4004cc70       0x4c htmldata.o
 .rodata.CSWTCH.146
                0x4004ccbc        0x3 C:\Nburn/lib/NANO54415.a(serial.o)
 *fill*         0x4004ccbf        0x1 
 .rodata._ZL15SerialVectorMap
                0x4004ccc0       0x28 C:\Nburn/lib/NANO54415.a(serial.o)
 .rodata._ZL12SerialSimMap
                0x4004cce8       0x28 C:\Nburn/lib/NANO54415.a(serial.o)
 .rodata.str1.1
                0x4004cd10        0xa C:\Nburn/lib/NANO54415.a(bsp.o)
 .rodata.str1.1
                0x4004cd1a       0x3f C:\Nburn/lib/NANO54415.a(SPIFlash.o)
 *fill*         0x4004cd59        0x1 
 .rodata.CSWTCH.100
                0x4004cd5a       0x14 C:\Nburn/lib/NANO54415.a(i2c_class.o)
 .rodata.str1.1
                0x4004cd6e        0x5 C:\Nburn/lib/NetBurner.a(ucos.o)
 .rodata.FAKE_OSUnMapTbl
                0x4004cd73      0x100 C:\Nburn/lib/NetBurner.a(ucos.o)
                0x4004cd73                FAKE_OSUnMapTbl
 .rodata.FAKE_OSMapTbl
                0x4004ce73        0x8 C:\Nburn/lib/NetBurner.a(ucos.o)
                0x4004ce73                FAKE_OSMapTbl
 .rodata.str1.1
                0x4004ce7b        0x5 C:\Nburn/lib/NetBurner.a(cppmain.o)
 .rodata.str1.1
                0x4004ce80        0x3 C:\Nburn/lib/NetBurner.a(fileio.o)
                                  0x6 (size before relaxing)
 .rodata.str1.1
                0x4004ce83      0x173 C:\Nburn/lib/NetBurner.a(utils.o)
                                0x17b (size before relaxing)
 .rodata.str1.1
                0x4004cff6       0x34 C:\Nburn/lib/NetBurner.a(ip.o)
                                 0x39 (size before relaxing)
 .rodata.str1.1
                0x4004d02a       0x33 C:\Nburn/lib/NetBurner.a(udp.o)
 .rodata.str1.1
                0x4004d05d      0x5d4 C:\Nburn/lib/NetBurner.a(ftpd.o)
                                0x5f2 (size before relaxing)
 *fill*         0x4004d631        0x1 
 .rodata._ZL4Cmds
                0x4004d632       0xe8 C:\Nburn/lib/NetBurner.a(ftpd.o)
 .rodata.str1.1
                0x4004d71a      0x526 C:\Nburn/lib/NetBurner.a(tcp.o)
                                0x529 (size before relaxing)
 .rodata._ZL10TIME_INDEX
                0x4004dc40        0xd C:\Nburn/lib/NetBurner.a(tcp.o)
 .rodata.str1.1
                0x4004dc4d        0x5 C:\Nburn/lib/NetBurner.a(http.o)
 .rodata.str1.1
                0x4004dc52      0x512 C:\Nburn/lib/NetBurner.a(httpinternal.o)
                                0x54c (size before relaxing)
 .rodata.str1.1
                0x4004e164      0x1c0 C:\Nburn/lib/NetBurner.a(htmldecomp.o)
                                0x1c4 (size before relaxing)
 .rodata.str1.1
                0x4004e324       0xab C:\Nburn/lib/NetBurner.a(taskmon.o)
                                 0xb0 (size before relaxing)
 .rodata.str1.1
                0x4004e3cf      0x506 C:\Nburn/lib/NetBurner.a(smarttrap.o)
                                0x547 (size before relaxing)
 .rodata.str1.1
                0x4004e8d5        0x7 C:\Nburn/lib/NetBurner.a(nbiprintf.o)
                                 0x41 (size before relaxing)
 .rodata.str1.1
                0x4004e8dc       0x62 C:\Nburn/lib/NetBurner.a(ipv6_addr.o)
                                 0x94 (size before relaxing)
 .rodata.str1.1
                0x4004e93e       0xad C:\Nburn/lib/NetBurner.a(ipv6_ip.o)
 *fill*         0x4004e9eb        0x1 
 .rodata._ZTV11IPV6_PREFIX
                0x4004e9ec       0x1c C:\Nburn/lib/NetBurner.a(ipv6_ip.o)
                0x4004e9ec                _ZTV11IPV6_PREFIX
 .rodata._ZTV9IPV6_DEST
                0x4004ea08       0x1c C:\Nburn/lib/NetBurner.a(ipv6_ip.o)
                0x4004ea08                _ZTV9IPV6_DEST
 .rodata._ZTV11IPV6_ROUTER
                0x4004ea24       0x1c C:\Nburn/lib/NetBurner.a(ipv6_ip.o)
                0x4004ea24                _ZTV11IPV6_ROUTER
 .rodata._ZTV13IPV6_NEIGHBOR
                0x4004ea40       0x1c C:\Nburn/lib/NetBurner.a(ipv6_ip.o)
                0x4004ea40                _ZTV13IPV6_NEIGHBOR
 .rodata._ZTV10IPV6_DHCPD
                0x4004ea5c       0x1c C:\Nburn/lib/NetBurner.a(ipv6_ip.o)
                0x4004ea5c                _ZTV10IPV6_DHCPD
 .rodata._ZTV8IPV6_DNS
                0x4004ea78       0x1c C:\Nburn/lib/NetBurner.a(ipv6_ip.o)
                0x4004ea78                _ZTV8IPV6_DNS
 .rodata.str1.1
                0x4004ea94        0x9 C:\Nburn/lib/NetBurner.a(ipv6_extensions.o)
                                 0x2b (size before relaxing)
 .rodata.str1.1
                0x4004ea9d      0x2f2 C:\Nburn/lib/NetBurner.a(ipv6_show.o)
                                0x2f5 (size before relaxing)
 .rodata.str1.1
                0x4004ed8f      0x102 C:\Nburn/lib/NetBurner.a(ipv6_dhcp.o)
                                0x103 (size before relaxing)
 .rodata.str1.1
                0x4004ee91        0xa C:\Nburn/lib/NetBurner.a(nbfloatprint.o)
 .rodata._ZL3OID
                0x4004ee91        0xa C:\Nburn/lib/NetBurner.a(md5c.o)
 .rodata.str1.1
                0x4004ee9b       0x3b c:/nburn/gcc-m68k/bin/../m68k-unknown-elf/sysroot/lib/m54455\libstdc++.a(pure.o)
 .rodata.str1.1
                0x4004eed6       0x22 c:/nburn/gcc-m68k/bin/../m68k-unknown-elf/sysroot/lib/m54455\libstdc++.a(eh_exception.o)
 .rodata._ZTSSt9exception
                0x4004eef8        0xd c:/nburn/gcc-m68k/bin/../m68k-unknown-elf/sysroot/lib/m54455\libstdc++.a(eh_exception.o)
                0x4004eef8                _ZTSSt9exception
 *fill*         0x4004ef05        0x1 
 .rodata._ZTISt9exception
                0x4004ef06        0x8 c:/nburn/gcc-m68k/bin/../m68k-unknown-elf/sysroot/lib/m54455\libstdc++.a(eh_exception.o)
                0x4004ef06                _ZTISt9exception
 .rodata._ZTSSt13bad_exception
                0x4004ef0e       0x12 c:/nburn/gcc-m68k/bin/../m68k-unknown-elf/sysroot/lib/m54455\libstdc++.a(eh_exception.o)
                0x4004ef0e                _ZTSSt13bad_exception
 .rodata._ZTISt13bad_exception
                0x4004ef20        0xc c:/nburn/gcc-m68k/bin/../m68k-unknown-elf/sysroot/lib/m54455\libstdc++.a(eh_exception.o)
                0x4004ef20                _ZTISt13bad_exception
 .rodata._ZTSN10__cxxabiv115__forced_unwindE
                0x4004ef2c       0x20 c:/nburn/gcc-m68k/bin/../m68k-unknown-elf/sysroot/lib/m54455\libstdc++.a(eh_exception.o)
                0x4004ef2c                _ZTSN10__cxxabiv115__forced_unwindE
 .rodata._ZTIN10__cxxabiv115__forced_unwindE
                0x4004ef4c        0x8 c:/nburn/gcc-m68k/bin/../m68k-unknown-elf/sysroot/lib/m54455\libstdc++.a(eh_exception.o)
                0x4004ef4c                _ZTIN10__cxxabiv115__forced_unwindE
 .rodata._ZTSN10__cxxabiv119__foreign_exceptionE
                0x4004ef54       0x24 c:/nburn/gcc-m68k/bin/../m68k-unknown-elf/sysroot/lib/m54455\libstdc++.a(eh_exception.o)
                0x4004ef54                _ZTSN10__cxxabiv119__foreign_exceptionE
 .rodata._ZTIN10__cxxabiv119__foreign_exceptionE
                0x4004ef78        0x8 c:/nburn/gcc-m68k/bin/../m68k-unknown-elf/sysroot/lib/m54455\libstdc++.a(eh_exception.o)
                0x4004ef78                _ZTIN10__cxxabiv119__foreign_exceptionE
 .rodata._ZTVSt13bad_exception
                0x4004ef80       0x14 c:/nburn/gcc-m68k/bin/../m68k-unknown-elf/sysroot/lib/m54455\libstdc++.a(eh_exception.o)
                0x4004ef80                _ZTVSt13bad_exception
 .rodata.str1.1
                0x4004ef94       0x8c c:/nburn/gcc-m68k/bin/../m68k-unknown-elf/sysroot/lib/m54455\libstdc++.a(vterminate.o)
 .rodata.str1.1
                0x4004f020      0x628 c:/nburn/gcc-m68k/bin/../m68k-unknown-elf/sysroot/lib/m54455\libstdc++.a(cp-demangle.o)
                                0x708 (size before relaxing)
 .rodata._ZTSN10__cxxabiv120__si_class_type_infoE
                0x4004f648       0x25 c:/nburn/gcc-m68k/bin/../m68k-unknown-elf/sysroot/lib/m54455\libstdc++.a(si_class_type_info.o)
                0x4004f648                _ZTSN10__cxxabiv120__si_class_type_infoE
 *fill*         0x4004f66d        0x1 
 .rodata._ZTIN10__cxxabiv120__si_class_type_infoE
                0x4004f66e        0xc c:/nburn/gcc-m68k/bin/../m68k-unknown-elf/sysroot/lib/m54455\libstdc++.a(si_class_type_info.o)
                0x4004f66e                _ZTIN10__cxxabiv120__si_class_type_infoE
 *fill*         0x4004f67a        0x2 
 .rodata._ZTVN10__cxxabiv120__si_class_type_infoE
                0x4004f67c       0x2c c:/nburn/gcc-m68k/bin/../m68k-unknown-elf/sysroot/lib/m54455\libstdc++.a(si_class_type_info.o)
                0x4004f67c                _ZTVN10__cxxabiv120__si_class_type_infoE
 .rodata._ZTSN10__cxxabiv117__class_type_infoE
                0x4004f6a8       0x22 c:/nburn/gcc-m68k/bin/../m68k-unknown-elf/sysroot/lib/m54455\libstdc++.a(class_type_info.o)
                0x4004f6a8                _ZTSN10__cxxabiv117__class_type_infoE
 .rodata._ZTIN10__cxxabiv117__class_type_infoE
                0x4004f6ca        0xc c:/nburn/gcc-m68k/bin/../m68k-unknown-elf/sysroot/lib/m54455\libstdc++.a(class_type_info.o)
                0x4004f6ca                _ZTIN10__cxxabiv117__class_type_infoE
 *fill*         0x4004f6d6        0x2 
 .rodata._ZTVN10__cxxabiv117__class_type_infoE
                0x4004f6d8       0x2c c:/nburn/gcc-m68k/bin/../m68k-unknown-elf/sysroot/lib/m54455\libstdc++.a(class_type_info.o)
                0x4004f6d8                _ZTVN10__cxxabiv117__class_type_infoE
 .rodata._ZTSSt9type_info
                0x4004f704        0xd c:/nburn/gcc-m68k/bin/../m68k-unknown-elf/sysroot/lib/m54455\libstdc++.a(tinfo.o)
                0x4004f704                _ZTSSt9type_info
 *fill*         0x4004f711        0x1 
 .rodata._ZTISt9type_info
                0x4004f712        0x8 c:/nburn/gcc-m68k/bin/../m68k-unknown-elf/sysroot/lib/m54455\libstdc++.a(tinfo.o)
                0x4004f712                _ZTISt9type_info
 .rodata.str1.1
                0x4004f71a        0xe C:\Nburn/lib/NANO54415.a(ethernet.o)
 .rodata._ZL9fcstab_32
                0x4004f728      0x400 C:\Nburn/lib/NANO54415.a(emulticast.o)
 .rodata.str1.1
                0x4004fb28        0xa C:\Nburn/lib/NANO54415.a(ether2nd.o)
 .rodata.bAutomatic2ndEther
                0x4004fb32        0x1 C:\Nburn/lib/NANO54415.a(weak_autoenet_var.o)
                0x4004fb32                bAutomatic2ndEther
 .rodata.str1.1
                0x4004fb33        0x4 c:/nburn/gcc-m68k/bin/../m68k-unknown-elf/sysroot/lib/m54455\libm.a(lib_a-w_pow.o)
 .rodata.str1.1
                0x4004fb37        0x6 c:/nburn/gcc-m68k/bin/../m68k-unknown-elf/sysroot/lib/m54455\libm.a(lib_a-wf_asin.o)
                                  0x7 (size before relaxing)
 .rodata.str1.1
                0x4004fb3d        0x6 c:/nburn/gcc-m68k/bin/../m68k-unknown-elf/sysroot/lib/m54455\libm.a(lib_a-wf_sqrt.o)
 .rodata.str1.1
                0x4004fb43        0x1 c:/nburn/gcc-m68k/bin/../m68k-unknown-elf/sysroot/lib/m54455\libm.a(lib_a-e_pow.o)
 .rodata.str1.1
                0x4004fb43        0x6 c:/nburn/gcc-m68k/bin/../m68k-unknown-elf/sysroot/lib/m54455\libc.a(lib_a-impure.o)
                                  0x2 (size before relaxing)
 .rodata.str1.1
                0x4004fb43        0x2 c:/nburn/gcc-m68k/bin/../m68k-unknown-elf/sysroot/lib/m54455\libc.a(lib_a-puts.o)
 *(.gnu.linkonce.*)
 *(.gcc_except_table)
                0x4004fb4c                . = ALIGN (0x4)
 *fill*         0x4004fb43        0x1 
                0x4004fb44                __INIT_SECTION__ = .
                0x4004fb44        0x4 LONG 0x4e560000
 *(.init)
 .init          0x4004fb48        0x6 c:/nburn/gcc-m68k/bin/../lib/gcc/m68k-unknown-elf/5.2.0/m54455/crtbegin.o
 .init          0x4004fb4e        0x6 c:/nburn/gcc-m68k/bin/../lib/gcc/m68k-unknown-elf/5.2.0/m54455/crtend.o
                0x4004fb54        0x2 SHORT 0x4e5e
                0x4004fb56        0x2 SHORT 0x4e75
                0x4004fb58                . = ALIGN (0x4)
                0x4004fb58                __FINI_SECTION__ = .
                0x4004fb58        0x4 LONG 0x4e560000
 *(.fini)
                0x4004fb5c        0x2 SHORT 0x4e5e
                0x4004fb5e        0x2 SHORT 0x4e75
 *(.lit)
                0x4004fb60                . = ALIGN (0x10)
                0x4004fb60                _etext = .
                0x4004fb60                etext = .

.data           0x4004fb60      0x860
                0x4004fb60                copy_start = .
 *(.shdata)
 *(.data)
 .data          0x4004fb60        0x4 c:/nburn/gcc-m68k/bin/../lib/gcc/m68k-unknown-elf/5.2.0/m54455/crtbegin.o
                0x4004fb60                __dso_handle
 .data          0x4004fb64        0x4 c:/nburn/gcc-m68k/bin/../m68k-unknown-elf/sysroot/lib/m54455\libm.a(lib_a-s_lib_ver.o)
                0x4004fb64                __fdlib_version
 .data          0x4004fb68       0x1c c:/nburn/gcc-m68k/bin/../lib/gcc/m68k-unknown-elf/5.2.0/m54455\libgcc.a(_floatex.o)
                0x4004fb68                _fpCCR
 .data          0x4004fb84      0x426 c:/nburn/gcc-m68k/bin/../m68k-unknown-elf/sysroot/lib/m54455\libc.a(lib_a-impure.o)
                0x4004fb84                _impure_ptr
 *fill*         0x4004ffaa        0x2 
 .data          0x4004ffac      0x410 c:/nburn/gcc-m68k/bin/../m68k-unknown-elf/sysroot/lib/m54455\libc.a(lib_a-mallocr.o)
                0x4004ffac                __malloc_sbrk_base
                0x4004ffb0                __malloc_trim_threshold
                0x4004ffb4                __malloc_av_
 .data          0x400503bc        0x4 c:/nburn/gcc-m68k/bin/../m68k-unknown-elf/sysroot/lib/m54455\libc.a(lib_a-ctype_.o)
                0x400503bc                __ctype_ptr__
                0x400503c0                . = ALIGN (0x10)
                0x400503c0                _edata = .
                0x400503c0                copy_end = .

.jcr            0x400503c0        0x0
 .jcr           0x400503c0        0x0 c:/nburn/gcc-m68k/bin/../lib/gcc/m68k-unknown-elf/5.2.0/m54455/crtbegin.o

.tm_clone_table
                0x400503c0        0x0
 .tm_clone_table
                0x400503c0        0x0 c:/nburn/gcc-m68k/bin/../lib/gcc/m68k-unknown-elf/5.2.0/m54455/crtbegin.o
 .tm_clone_table
                0x400503c0        0x0 c:/nburn/gcc-m68k/bin/../lib/gcc/m68k-unknown-elf/5.2.0/m54455/crtend.o

.data.AppName   0x400503c0        0x4
 .data.AppName  0x400503c0        0x4 main.o
                0x400503c0                AppName

.data.q         0x400503c4       0x10
 .data.q        0x400503c4       0x10 Drivers\IMUSetupAndSample.o
                0x400503c4                q

.data.GyroMeasError
                0x400503d4        0x4
 .data.GyroMeasError
                0x400503d4        0x4 Drivers\IMUSetupAndSample.o
                0x400503d4                GyroMeasError

.data.Mmode     0x400503d8        0x1
 .data.Mmode    0x400503d8        0x1 Drivers\IMUSetupAndSample.o
                0x400503d8                Mmode

.data.Mscale    0x400503d9        0x1
 .data.Mscale   0x400503d9        0x1 Drivers\IMUSetupAndSample.o
                0x400503d9                Mscale

.data.html_table
                0x400503da      0x100
 .data.html_table
                0x400503da      0x100 htmldata.o
                0x400503da                html_table

.data.MIME_table
                0x400504da        0x4
 .data.MIME_table
                0x400504da        0x4 htmldata.o
                0x400504da                MIME_table

.data.default_page
                0x400504de        0x4
 .data.default_page
                0x400504de        0x4 htmldata.o
                0x400504de                default_page

.data.PlatformName
                0x400504e2        0x4
 .data.PlatformName
                0x400504e2        0x4 C:\Nburn/lib/NANO54415.a(bsp.o)
                0x400504e2                PlatformName

.data.k_zeros   0x400504e6        0x4
 .data.k_zeros  0x400504e6        0x4 C:\Nburn/lib/NetBurner.a(nbiprintf.o)
                0x400504e6                k_zeros

.data.k_spaces  0x400504ea        0x4
 .data.k_spaces
                0x400504ea        0x4 C:\Nburn/lib/NetBurner.a(nbiprintf.o)
                0x400504ea                k_spaces

.data._ZN7MD5_CTX10_s__vtableE
                0x400504ee       0x30
 .data._ZN7MD5_CTX10_s__vtableE
                0x400504ee       0x30 C:\Nburn/lib/NetBurner.a(md5c.o)
                0x400504ee                _ZN7MD5_CTX10_s__vtableE

.data._ZL7PADDING
                0x4005051e       0x40
 .data._ZL7PADDING
                0x4005051e       0x40 C:\Nburn/lib/NetBurner.a(md5c.o)

.data._ZN10__cxxabiv120__unexpected_handlerE
                0x4005055e        0x4
 .data._ZN10__cxxabiv120__unexpected_handlerE
                0x4005055e        0x4 c:/nburn/gcc-m68k/bin/../m68k-unknown-elf/sysroot/lib/m54455\libstdc++.a(eh_unex_handler.o)
                0x4005055e                _ZN10__cxxabiv120__unexpected_handlerE

.data._ZN10__cxxabiv119__terminate_handlerE
                0x40050562        0x4
 .data._ZN10__cxxabiv119__terminate_handlerE
                0x40050562        0x4 c:/nburn/gcc-m68k/bin/../m68k-unknown-elf/sysroot/lib/m54455\libstdc++.a(eh_term_handler.o)
                0x40050562                _ZN10__cxxabiv119__terminate_handlerE

.data.wait      0x40050566        0x2
 .data.wait     0x40050566        0x2 C:\Nburn/lib/NANO54415.a(ethernet.o)
                0x40050566                wait

.bss            0x40050570  0x11d34c0
                0x40100000                . = ALIGN (0x100000)
 *fill*         0x40050570    0xafa90 
                0x40100000                __bss_start = .
 *(.bss.static_pool_buffers)
 .bss.static_pool_buffers
                0x40100000    0x6b000 C:\Nburn/lib/NetBurner.a(buffers.o)
                0x40100000                static_pool_buffers
                0x40200000                . = ALIGN (0x100000)
 *fill*         0x4016b000    0x95000 
                0x40200000                __static_pool_end = .
 *(.shbss)
 *(.bss)
 .bss           0x40200000       0x1e c:/nburn/gcc-m68k/bin/../lib/gcc/m68k-unknown-elf/5.2.0/m54455/crtbegin.o
 *fill*         0x4020001e        0x2 
 .bss           0x40200020       0x1a c:/nburn/gcc-m68k/bin/../lib/gcc/m68k-unknown-elf/5.2.0/m54455\libgcc.a(unwind-dw2.o)
 *fill*         0x4020003a        0x2 
 .bss           0x4020003c       0x14 c:/nburn/gcc-m68k/bin/../lib/gcc/m68k-unknown-elf/5.2.0/m54455\libgcc.a(unwind-dw2-fde.o)
 .bss           0x40200050       0x34 c:/nburn/gcc-m68k/bin/../m68k-unknown-elf/sysroot/lib/m54455\libc.a(lib_a-mallocr.o)
                0x40200050                __malloc_current_mallinfo
                0x40200078                __malloc_max_total_mem
                0x4020007c                __malloc_max_sbrked_mem
                0x40200080                __malloc_top_pad
 *(.bss.*)
 .bss._ZZ8UserMainE10func_x_Stk_0
                0x40200084     0x3000 main.o
 .bss._ZZ8UserMainE10func_x_Stk
                0x40203084     0x3000 main.o
 .bss.nav       0x40206084       0x20 main.o
                0x40206084                nav
 .bss.imu       0x402060a4       0x2c main.o
                0x402060a4                imu
 .bss.odo       0x402060d0        0x4 main.o
                0x402060d0                odo
 .bss.lcd       0x402060d4        0x8 main.o
                0x402060d4                lcd
 .bss.MainTaskSem
                0x402060dc       0x12 main.o
                0x402060dc                MainTaskSem
 .bss._ZL2fl    0x402060ee        0x8 main.o
 *fill*         0x402060f6        0x2 
 .bss._ZZN6Logger8logBeginEvE10func_x_Stk
                0x402060f8     0x3000 Logger.o
 .bss.mainLog   0x402090f8       0x40 Logger.o
                0x402090f8                mainLog
 .bss.ServoFrameCnt
                0x40209138        0x4 Drivers\servodrive.o
                0x40209138                ServoFrameCnt
 .bss.pNotifyNextFrameSem
                0x4020913c        0x4 Drivers\servodrive.o
                0x4020913c                pNotifyNextFrameSem
 .bss.ServoPos  0x40209140       0x10 Drivers\servodrive.o
                0x40209140                ServoPos
 .bss.ServoIsr  0x40209150        0x8 Drivers\servodrive.o
                0x40209150                ServoIsr
 .bss.ServoElapsed
                0x40209158        0x8 Drivers\servodrive.o
                0x40209158                ServoElapsed
 .bss.ServoMode
                0x40209160        0x8 Drivers\servodrive.o
                0x40209160                ServoMode
 .bss.ServoTimes
                0x40209168        0x8 Drivers\servodrive.o
                0x40209168                ServoTimes
 .bss._ZZN15IntrospecObject7ElementEPvmPKccE9OffsetPos
                0x40209170        0x4 Drivers\introspec.o
 .bss._ZL5pHead
                0x40209174        0x4 Drivers\introspec.o
 .bss._ZL14StaticKeyValue
                0x40209178        0x4 Drivers\introspec.o
 .bss._ZL9pDescHead
                0x4020917c        0x4 Drivers\introspec.o
 .bss.bOverFlow
                0x40209180        0x1 Drivers\introspec.o
                0x40209180                bOverFlow
 .bss.LogData   0x40209181  0x1000000 Drivers\introspec.o
                0x40209181                LogData
 .bss.bLog      0x41209181        0x1 Drivers\introspec.o
                0x41209181                bLog
 .bss._ZN15IntrospecObject7bShowMeE
                0x41209182        0x1 Drivers\introspec.o
                0x41209182                _ZN15IntrospecObject7bShowMeE
 *fill*         0x41209183        0x1 
 .bss._ZL2fl    0x41209184        0x8 Drivers\introspec.o
 .bss._ZZ15RC_ProcessCharsihE2lc
                0x4120918c        0x1 Drivers\dsm2.o
 *fill*         0x4120918d        0x1 
 .bss._ZZ15RC_ProcessCharsihE5state
                0x4120918e        0x4 Drivers\dsm2.o
 .bss._ZZ15RC_ProcessCharsihE2lt
                0x41209192        0x4 Drivers\dsm2.o
 .bss.RCCallBack
                0x41209196        0x4 Drivers\dsm2.o
                0x41209196                RCCallBack
 .bss.RCFrameCnt
                0x4120919a        0x4 Drivers\dsm2.o
                0x4120919a                RCFrameCnt
 .bss.rc_ch     0x4120919e       0x40 Drivers\dsm2.o
                0x4120919e                rc_ch
 *fill*         0x412091de        0x2 
 .bss._ZZN13SpinningLidar17SpinningLidarInitEvE10func_x_Stk
                0x412091e0     0x3000 Drivers\SpinningLidar.o
 .bss._ZN13SpinningLidar6packetE
                0x4120c1e0        0x5 Drivers\SpinningLidar.o
                0x4120c1e0                _ZN13SpinningLidar6packetE
 *fill*         0x4120c1e5        0x1 
 .bss._ZN13SpinningLidar9charCountE
                0x4120c1e6        0x4 Drivers\SpinningLidar.o
                0x4120c1e6                _ZN13SpinningLidar9charCountE
 .bss._ZN13SpinningLidar10LIDARResetE
                0x4120c1ea        0x1 Drivers\SpinningLidar.o
                0x4120c1ea                _ZN13SpinningLidar10LIDARResetE
 *fill*         0x4120c1eb        0x1 
 .bss._ZN13SpinningLidar13sampleQualityE
                0x4120c1ec      0x5a0 Drivers\SpinningLidar.o
                0x4120c1ec                _ZN13SpinningLidar13sampleQualityE
 .bss._ZN13SpinningLidar4distE
                0x4120c78c      0xb40 Drivers\SpinningLidar.o
                0x4120c78c                _ZN13SpinningLidar4distE
 .bss._ZN13SpinningLidar2rvE
                0x4120d2cc        0x4 Drivers\SpinningLidar.o
                0x4120d2cc                _ZN13SpinningLidar2rvE
 .bss._ZN13SpinningLidar12lidar_bufferE
                0x4120d2d0       0x80 Drivers\SpinningLidar.o
                0x4120d2d0                _ZN13SpinningLidar12lidar_bufferE
 .bss._ZL11LastOdoTime
                0x4120d350        0x4 Drivers\Odometer.o
 .bss._ZL10DtOdoCount
                0x4120d354        0x4 Drivers\Odometer.o
 .bss._ZL8OdoCount
                0x4120d358        0x4 Drivers\Odometer.o
 .bss.LIDAR_VALUE_RIGHT
                0x4120d35c        0x4 Drivers\LidarPWM.o
                0x4120d35c                LIDAR_VALUE_RIGHT
 .bss._ZL22LIDAR_LAST_START_RIGHT
                0x4120d360        0x4 Drivers\LidarPWM.o
 .bss._ZL17bLIDAR_MODE_RIGHT
                0x4120d364        0x1 Drivers\LidarPWM.o
 *fill*         0x4120d365        0x3 
 .bss._ZZ6IMURunvE10func_x_Stk
                0x4120d368     0x3000 Drivers\IMUSetupAndSample.o
 .bss.PirqCount
                0x41210368        0x4 Drivers\IMUSetupAndSample.o
                0x41210368                PirqCount
 .bss.PirqSem   0x4121036c       0x12 Drivers\IMUSetupAndSample.o
                0x4121036c                PirqSem
 .bss.lin_az    0x4121037e        0x4 Drivers\IMUSetupAndSample.o
                0x4121037e                lin_az
 .bss.lin_ay    0x41210382        0x4 Drivers\IMUSetupAndSample.o
                0x41210382                lin_ay
 .bss.lin_ax    0x41210386        0x4 Drivers\IMUSetupAndSample.o
                0x41210386                lin_ax
 .bss.mz        0x4121038a        0x4 Drivers\IMUSetupAndSample.o
                0x4121038a                mz
 .bss.my        0x4121038e        0x4 Drivers\IMUSetupAndSample.o
                0x4121038e                my
 .bss.mx        0x41210392        0x4 Drivers\IMUSetupAndSample.o
                0x41210392                mx
 .bss.gz        0x41210396        0x4 Drivers\IMUSetupAndSample.o
                0x41210396                gz
 .bss.gy        0x4121039a        0x4 Drivers\IMUSetupAndSample.o
                0x4121039a                gy
 .bss.gx        0x4121039e        0x4 Drivers\IMUSetupAndSample.o
                0x4121039e                gx
 .bss.az        0x412103a2        0x4 Drivers\IMUSetupAndSample.o
                0x412103a2                az
 .bss.ay        0x412103a6        0x4 Drivers\IMUSetupAndSample.o
                0x412103a6                ay
 .bss.ax        0x412103aa        0x4 Drivers\IMUSetupAndSample.o
                0x412103aa                ax
 .bss.sum       0x412103ae        0x8 Drivers\IMUSetupAndSample.o
                0x412103ae                sum
 .bss.lasttime  0x412103b6        0x8 Drivers\IMUSetupAndSample.o
                0x412103b6                lasttime
 .bss.deltat    0x412103be        0x8 Drivers\IMUSetupAndSample.o
                0x412103be                deltat
 .bss.currenttime
                0x412103c6        0x8 Drivers\IMUSetupAndSample.o
                0x412103c6                currenttime
 .bss.a33       0x412103ce        0x4 Drivers\IMUSetupAndSample.o
                0x412103ce                a33
 .bss.a32       0x412103d2        0x4 Drivers\IMUSetupAndSample.o
                0x412103d2                a32
 .bss.a31       0x412103d6        0x4 Drivers\IMUSetupAndSample.o
                0x412103d6                a31
 .bss.a22       0x412103da        0x4 Drivers\IMUSetupAndSample.o
                0x412103da                a22
 .bss.a12       0x412103de        0x4 Drivers\IMUSetupAndSample.o
                0x412103de                a12
 .bss.heading   0x412103e2        0x4 Drivers\IMUSetupAndSample.o
                0x412103e2                heading
 .bss.roll      0x412103e6        0x4 Drivers\IMUSetupAndSample.o
                0x412103e6                roll
 .bss.yaw       0x412103ea        0x4 Drivers\IMUSetupAndSample.o
                0x412103ea                yaw
 .bss.pitch     0x412103ee        0x4 Drivers\IMUSetupAndSample.o
                0x412103ee                pitch
 .bss.sumCount  0x412103f2        0x8 Drivers\IMUSetupAndSample.o
                0x412103f2                sumCount
 .bss.zeta      0x412103fa        0x4 Drivers\IMUSetupAndSample.o
                0x412103fa                zeta
 .bss.beta      0x412103fe        0x4 Drivers\IMUSetupAndSample.o
                0x412103fe                beta
 .bss.GyroMeasDrift
                0x41210402        0x4 Drivers\IMUSetupAndSample.o
                0x41210402                GyroMeasDrift
 .bss.SelfTest  0x41210406       0x18 Drivers\IMUSetupAndSample.o
                0x41210406                SelfTest
 .bss.magScale  0x4121041e        0xc Drivers\IMUSetupAndSample.o
                0x4121041e                magScale
 .bss.magBias   0x4121042a        0xc Drivers\IMUSetupAndSample.o
                0x4121042a                magBias
 .bss.accelBias
                0x41210436        0xc Drivers\IMUSetupAndSample.o
                0x41210436                accelBias
 .bss.gyroBias  0x41210442        0xc Drivers\IMUSetupAndSample.o
                0x41210442                gyroBias
 .bss.magCalibration
                0x4121044e        0xc Drivers\IMUSetupAndSample.o
                0x4121044e                magCalibration
 .bss.magCount  0x4121045a        0x6 Drivers\IMUSetupAndSample.o
                0x4121045a                magCount
 .bss.MPU9250Data
                0x41210460        0xe Drivers\IMUSetupAndSample.o
                0x41210460                MPU9250Data
 .bss.mRes      0x4121046e        0x4 Drivers\IMUSetupAndSample.o
                0x4121046e                mRes
 .bss.gRes      0x41210472        0x4 Drivers\IMUSetupAndSample.o
                0x41210472                gRes
 .bss.aRes      0x41210476        0x4 Drivers\IMUSetupAndSample.o
                0x41210476                aRes
 .bss.Ascale    0x4121047a        0x1 Drivers\IMUSetupAndSample.o
                0x4121047a                Ascale
 .bss.Gscale    0x4121047b        0x1 Drivers\IMUSetupAndSample.o
                0x4121047b                Gscale
 .bss.p1        0x4121047c        0x4 C:\Nburn/lib/NANO54415.a(serial.o)
                0x4121047c                p1
 .bss.serisrtxcx
                0x41210480        0x4 C:\Nburn/lib/NANO54415.a(serial.o)
                0x41210480                serisrtxcx
 .bss.serisrtxc
                0x41210484        0x4 C:\Nburn/lib/NANO54415.a(serial.o)
                0x41210484                serisrtxc
 .bss.LastGCChan
                0x41210488        0x4 C:\Nburn/lib/NANO54415.a(serial.o)
                0x41210488                LastGCChan
 .bss.LastIsrChan
                0x4121048c        0x4 C:\Nburn/lib/NANO54415.a(serial.o)
                0x4121048c                LastIsrChan
 .bss.serisrtcnt
                0x41210490        0x4 C:\Nburn/lib/NANO54415.a(serial.o)
                0x41210490                serisrtcnt
 .bss.serisrrcnt
                0x41210494        0x4 C:\Nburn/lib/NANO54415.a(serial.o)
                0x41210494                serisrrcnt
 .bss.serisrcnt
                0x41210498        0x4 C:\Nburn/lib/NANO54415.a(serial.o)
                0x41210498                serisrcnt
 .bss._ZL9bMapsDone
                0x4121049c        0x1 C:\Nburn/lib/NANO54415.a(serial.o)
 *fill*         0x4121049d        0x1 
 .bss.Serial_Ioexp
                0x4121049e       0x10 C:\Nburn/lib/NANO54415.a(serial.o)
                0x4121049e                Serial_Ioexp
 .bss.UartData  0x412104ae      0x2bc C:\Nburn/lib/NANO54415.a(serial.o)
                0x412104ae                UartData
 .bss.Uarts     0x4121076a       0x28 C:\Nburn/lib/NANO54415.a(serial.o)
                0x4121076a                Uarts
 .bss._ZL13Serial_FD_Map
                0x41210792       0x28 C:\Nburn/lib/NANO54415.a(serial.o)
 .bss._ZL12ReverseFDMap
                0x412107ba      0x100 C:\Nburn/lib/NANO54415.a(serial.o)
 .bss.TheSpiFlashCrit
                0x412108ba        0xe C:\Nburn/lib/NANO54415.a(FlashOps.o)
                0x412108ba                TheSpiFlashCrit
 .bss.pSpiFlashCrit
                0x412108c8        0x4 C:\Nburn/lib/NANO54415.a(FlashOps.o)
                0x412108c8                pSpiFlashCrit
 .bss.SPI_Main  0x412108cc        0x4 C:\Nburn/lib/NANO54415.a(FlashOps.o)
                0x412108cc                SPI_Main
 .bss.TheIrqFuncs
                0x412108d0       0x20 C:\Nburn/lib/NANO54415.a(pin_irq.o)
                0x412108d0                TheIrqFuncs
 .bss.errno     0x412108f0        0x4 C:\Nburn/lib/NANO54415.a(bsp.o)
                0x412108f0                errno
 .bss.heap_ptr  0x412108f4        0x4 C:\Nburn/lib/NANO54415.a(bsp.o)
                0x412108f4                heap_ptr
 .bss.TERR_REGISTER
                0x412108f8        0x1 C:\Nburn/lib/NANO54415.a(bsp.o)
                0x412108f8                TERR_REGISTER
 *fill*         0x412108f9        0x1 
 .bss.BspTickMaxCount
                0x412108fa        0x2 C:\Nburn/lib/NANO54415.a(bsp.o)
                0x412108fa                BspTickMaxCount
 .bss.XTAL_CLOCK
                0x412108fc        0x4 C:\Nburn/lib/NANO54415.a(bsp.o)
                0x412108fc                XTAL_CLOCK
 .bss.CPU_CLOCK
                0x41210900        0x4 C:\Nburn/lib/NANO54415.a(bsp.o)
                0x41210900                CPU_CLOCK
 .bss.I2CSlaveRec
                0x41210904       0x2a C:\Nburn/lib/NANO54415.a(multichanneli2c.o)
                0x41210904                I2CSlaveRec
 .bss.I2C       0x4121092e      0x4bc C:\Nburn/lib/NANO54415.a(i2c_class.o)
                0x4121092e                I2C
 .bss.WDEBUGSTRUCTP
                0x41210dea        0x4 C:\Nburn/lib/NetBurner.a(debugtrap.o)
                0x41210dea                WDEBUGSTRUCTP
 *fill*         0x41210dee        0x2 
 .bss.WDEBUGSTRUCT
                0x41210df0        0x8 C:\Nburn/lib/NetBurner.a(debugtrap.o)
                0x41210df0                WDEBUGSTRUCT
 .bss._ZL20HasUcosSetUpHappened
                0x41210df8        0x4 C:\Nburn/lib/NetBurner.a(ucosmain.o)
 .bss.OSIdleTaskStk
                0x41210dfc     0x2000 C:\Nburn/lib/NetBurner.a(ucosmain.o)
                0x41210dfc                OSIdleTaskStk
 .bss.NotifyUpdatePtr
                0x41212dfc        0x4 C:\Nburn/lib/NetBurner.a(system.o)
                0x41212dfc                NotifyUpdatePtr
 .bss.config_rec_buf
                0x41212e00      0x800 C:\Nburn/lib/NetBurner.a(system.o)
                0x41212e00                config_rec_buf
 .bss.rnd_collect
                0x41213600      0x200 C:\Nburn/lib/NetBurner.a(system.o)
                0x41213600                rnd_collect
 .bss.rnd_cnt   0x41213800        0x4 C:\Nburn/lib/NetBurner.a(system.o)
                0x41213800                rnd_cnt
 .bss.frames_rx_fragment
                0x41213804        0x4 C:\Nburn/lib/NetBurner.a(utils.o)
                0x41213804                frames_rx_fragment
 .bss.enet_isr  0x41213808        0x4 C:\Nburn/lib/NetBurner.a(utils.o)
                0x41213808                enet_isr
 .bss.ip_last_err
                0x4121380c        0x4 C:\Nburn/lib/NetBurner.a(utils.o)
                0x4121380c                ip_last_err
 .bss.enet_last_errhw
                0x41213810        0x4 C:\Nburn/lib/NetBurner.a(utils.o)
                0x41213810                enet_last_errhw
 .bss.frames_tcp_errors
                0x41213814        0x4 C:\Nburn/lib/NetBurner.a(utils.o)
                0x41213814                frames_tcp_errors
 .bss.frames_udp_errors
                0x41213818        0x4 C:\Nburn/lib/NetBurner.a(utils.o)
                0x41213818                frames_udp_errors
 .bss.frames_ip_discard
                0x4121381c        0x4 C:\Nburn/lib/NetBurner.a(utils.o)
                0x4121381c                frames_ip_discard
 .bss.frames_ip_errors
                0x41213820        0x4 C:\Nburn/lib/NetBurner.a(utils.o)
                0x41213820                frames_ip_errors
 .bss.frames_rx_icmp
                0x41213824        0x4 C:\Nburn/lib/NetBurner.a(utils.o)
                0x41213824                frames_rx_icmp
 .bss.frames_tx_icmp
                0x41213828        0x4 C:\Nburn/lib/NetBurner.a(utils.o)
                0x41213828                frames_tx_icmp
 .bss.frames_rx_tcp
                0x4121382c        0x4 C:\Nburn/lib/NetBurner.a(utils.o)
                0x4121382c                frames_rx_tcp
 .bss.frames_tx_tcp
                0x41213830        0x4 C:\Nburn/lib/NetBurner.a(utils.o)
                0x41213830                frames_tx_tcp
 .bss.frames_rx_udp
                0x41213834        0x4 C:\Nburn/lib/NetBurner.a(utils.o)
                0x41213834                frames_rx_udp
 .bss.frames_tx_udp
                0x41213838        0x4 C:\Nburn/lib/NetBurner.a(utils.o)
                0x41213838                frames_tx_udp
 .bss.frames_tx_arp
                0x4121383c        0x4 C:\Nburn/lib/NetBurner.a(utils.o)
                0x4121383c                frames_tx_arp
 .bss.frames_rx_arp
                0x41213840        0x4 C:\Nburn/lib/NetBurner.a(utils.o)
                0x41213840                frames_rx_arp
 .bss.frames_rx_err
                0x41213844        0x4 C:\Nburn/lib/NetBurner.a(utils.o)
                0x41213844                frames_rx_err
 .bss.frames_tx_err
                0x41213848        0x4 C:\Nburn/lib/NetBurner.a(utils.o)
                0x41213848                frames_tx_err
 .bss.frames_rx
                0x4121384c        0x4 C:\Nburn/lib/NetBurner.a(utils.o)
                0x4121384c                frames_rx
 .bss.frames_tx
                0x41213850        0x4 C:\Nburn/lib/NetBurner.a(utils.o)
                0x41213850                frames_tx
 .bss.ip_errs   0x41213854        0xa C:\Nburn/lib/NetBurner.a(ip.o)
                0x41213854                ip_errs
 .bss.LastHead  0x4121385e        0x4 C:\Nburn/lib/NetBurner.a(buffers.o)
                0x4121385e                LastHead
 .bss._ZZ6AgeArpvE6Oldest
                0x41213862        0x4 C:\Nburn/lib/NetBurner.a(arp.o)
 .bss._ZL8pLastArp
                0x41213866        0x4 C:\Nburn/lib/NetBurner.a(arp.o)
 .bss._ZL7ArpFree
                0x4121386a        0x2 C:\Nburn/lib/NetBurner.a(arp.o)
 .bss._ZL7ArpHead
                0x4121386c        0x2 C:\Nburn/lib/NetBurner.a(arp.o)
 .bss._ZL7ArpTail
                0x4121386e        0x2 C:\Nburn/lib/NetBurner.a(arp.o)
 .bss._ZL7basearp
                0x41213870     0x1e00 C:\Nburn/lib/NetBurner.a(arp.o)
 .bss.wArpLifetime
                0x41215670        0x2 C:\Nburn/lib/NetBurner.a(arp.o)
                0x41215670                wArpLifetime
 .bss.ARP_critical_section
                0x41215672        0xe C:\Nburn/lib/NetBurner.a(arp.o)
                0x41215672                ARP_critical_section
 .bss.UnwantedIDPacketCallbackPtr
                0x41215680        0x4 C:\Nburn/lib/NetBurner.a(udp.o)
                0x41215680                UnwantedIDPacketCallbackPtr
 .bss.AutoUpdatePtr
                0x41215684        0x4 C:\Nburn/lib/NetBurner.a(udp.o)
                0x41215684                AutoUpdatePtr
 .bss.ipsetup_authenticate_func
                0x41215688        0x4 C:\Nburn/lib/NetBurner.a(udp.o)
                0x41215688                ipsetup_authenticate_func
 .bss._ZL18rename_file_buffer
                0x4121568c      0x100 C:\Nburn/lib/NetBurner.a(ftpd.o)
 .bss._ZL12bFtpdRunning
                0x4121578c        0x1 C:\Nburn/lib/NetBurner.a(ftpd.o)
 .bss._ZL13bFtpdExitTask
                0x4121578d        0x1 C:\Nburn/lib/NetBurner.a(ftpd.o)
 *fill*         0x4121578e        0x2 
 .bss._ZL7FTPdStk
                0x41215790     0x3000 C:\Nburn/lib/NetBurner.a(ftpd.o)
 .bss._ZL11session_cnt
                0x41218790        0x2 C:\Nburn/lib/NetBurner.a(ftpd.o)
 .bss._ZL8FTPDSess
                0x41218792      0xfc8 C:\Nburn/lib/NetBurner.a(ftpd.o)
 *fill*         0x4121975a        0x2 
 .bss._ZL21FTPd_critical_section
                0x4121975c        0xe C:\Nburn/lib/NetBurner.a(ftpd.o)
 .bss._ZL9listen_fd
                0x4121976a        0x4 C:\Nburn/lib/NetBurner.a(ftpd.o)
 .bss._ZZ11GetFirstSeqvE2ww
                0x4121976e        0x2 C:\Nburn/lib/NetBurner.a(tcp.o)
 .bss.LastShortFree
                0x41219770        0x2 C:\Nburn/lib/NetBurner.a(tcp.o)
                0x41219770                LastShortFree
 .bss.ShortSockets
                0x41219772     0x1130 C:\Nburn/lib/NetBurner.a(tcp.o)
                0x41219772                ShortSockets
 .bss.semiactive_list
                0x4121a8a2       0x4a C:\Nburn/lib/NetBurner.a(tcp.o)
                0x4121a8a2                semiactive_list
 .bss.active_list
                0x4121a8ec        0x1 C:\Nburn/lib/NetBurner.a(tcp.o)
                0x4121a8ec                active_list
 *fill*         0x4121a8ed        0x1 
 .bss.listen_list_head
                0x4121a8ee        0x4 C:\Nburn/lib/NetBurner.a(tcp.o)
                0x4121a8ee                listen_list_head
 .bss.user_closed_list_head
                0x4121a8f2        0x4 C:\Nburn/lib/NetBurner.a(tcp.o)
                0x4121a8f2                user_closed_list_head
 .bss.free_list_head
                0x4121a8f6        0x4 C:\Nburn/lib/NetBurner.a(tcp.o)
                0x4121a8f6                free_list_head
 .bss.m_slist   0x4121a8fa       0x94 C:\Nburn/lib/NetBurner.a(tcp.o)
                0x4121a8fa                m_slist
 .bss.ws_resume_func
                0x4121a98e        0x4 C:\Nburn/lib/NetBurner.a(tcp.o)
                0x4121a98e                ws_resume_func
 .bss.sockets   0x4121a992     0x1d00 C:\Nburn/lib/NetBurner.a(tcp.o)
                0x4121a992                sockets
 .bss._ZL23current_next_time_event
                0x4121c692        0x4 C:\Nburn/lib/NetBurner.a(tcp.o)
 .bss._ZL12ExpandFdFunc
                0x4121c696       0x10 C:\Nburn/lib/NetBurner.a(extraio.o)
 .bss._ZL5bInit
                0x4121c6a6        0x1 C:\Nburn/lib/NetBurner.a(extraio.o)
 *fill*         0x4121c6a7        0x1 
 .bss._ZL9last_free
                0x4121c6a8        0x4 C:\Nburn/lib/NetBurner.a(extraio.o)
 .bss._ZL10pExtraData
                0x4121c6ac       0x6c C:\Nburn/lib/NetBurner.a(extraio.o)
 .bss._ZL8intfList
                0x4121c718       0x6c C:\Nburn/lib/NetBurner.a(extraio.o)
 .bss._ZL5pList
                0x4121c784       0x6c C:\Nburn/lib/NetBurner.a(extraio.o)
 .bss.HTTP_Socket_FileRec
                0x4121c7f0       0x78 C:\Nburn/lib/NetBurner.a(http.o)
                0x4121c7f0                HTTP_Socket_FileRec
 .bss.HTTPStk   0x4121c868     0x3000 C:\Nburn/lib/NetBurner.a(http.o)
                0x4121c868                HTTPStk
 .bss.b_InMultipart
                0x4121f868        0x1 C:\Nburn/lib/NetBurner.a(httpinternal.o)
                0x4121f868                b_InMultipart
 .bss.http_rxBuffer
                0x4121f869     0x2712 C:\Nburn/lib/NetBurner.a(httpinternal.o)
                0x4121f869                http_rxBuffer
 *fill*         0x41221f7b        0x1 
 .bss.TheErrorHandler
                0x41221f7c        0x4 C:\Nburn/lib/NetBurner.a(httpinternal.o)
                0x41221f7c                TheErrorHandler
 .bss.TheMultipartHandler
                0x41221f80        0x4 C:\Nburn/lib/NetBurner.a(httpinternal.o)
                0x41221f80                TheMultipartHandler
 .bss.TheHeadHandler
                0x41221f84        0x4 C:\Nburn/lib/NetBurner.a(httpinternal.o)
                0x41221f84                TheHeadHandler
 .bss.TheGetHandler
                0x41221f88        0x4 C:\Nburn/lib/NetBurner.a(httpinternal.o)
                0x41221f88                TheGetHandler
 .bss.ThePostHandler
                0x41221f8c        0x4 C:\Nburn/lib/NetBurner.a(httpinternal.o)
                0x41221f8c                ThePostHandler
 .bss._ZN12AutoIPClient14staticNextTickE
                0x41221f90        0x4 C:\Nburn/lib/NetBurner.a(autoip.o)
                0x41221f90                _ZN12AutoIPClient14staticNextTickE
 .bss._ZL5pHead
                0x41221f94        0x4 C:\Nburn/lib/NetBurner.a(autoip.o)
 .bss._ZL5pHead
                0x41221f98        0x4 C:\Nburn/lib/NetBurner.a(dhcpc.o)
 .bss.DHCPDiscoverSeconds
                0x41221f9c        0x4 C:\Nburn/lib/NetBurner.a(dhcpc.o)
                0x41221f9c                DHCPDiscoverSeconds
 .bss.pDHCPOfferName
                0x41221fa0        0x4 C:\Nburn/lib/NetBurner.a(dhcpc.o)
                0x41221fa0                pDHCPOfferName
 .bss.ParseDhcpOptions
                0x41221fa4        0x4 C:\Nburn/lib/NetBurner.a(dhcpc.o)
                0x41221fa4                ParseDhcpOptions
 .bss.AddDhcpFieldsFunc
                0x41221fa8        0x4 C:\Nburn/lib/NetBurner.a(dhcpc.o)
                0x41221fa8                AddDhcpFieldsFunc
 .bss.AddDhcpOptionsFunc
                0x41221fac        0x4 C:\Nburn/lib/NetBurner.a(dhcpc.o)
                0x41221fac                AddDhcpOptionsFunc
 .bss._ZL7pblocks
                0x41221fb0       0x3c C:\Nburn/lib/NetBurner.a(netinterface.o)
 .bss.FirstInterFaceDNS
                0x41221fec        0x4 C:\Nburn/lib/NetBurner.a(netinterface.o)
                0x41221fec                FirstInterFaceDNS
 .bss.FirstInterFaceGate
                0x41221ff0        0x4 C:\Nburn/lib/NetBurner.a(netinterface.o)
                0x41221ff0                FirstInterFaceGate
 .bss.FirstInterFaceMask
                0x41221ff4        0x4 C:\Nburn/lib/NetBurner.a(netinterface.o)
                0x41221ff4                FirstInterFaceMask
 .bss.FirstInterFaceIP
                0x41221ff8        0x4 C:\Nburn/lib/NetBurner.a(netinterface.o)
                0x41221ff8                FirstInterFaceIP
 .bss.ENET_ZERO
                0x41221ffc        0x6 C:\Nburn/lib/NetBurner.a(netinterface.o)
                0x41221ffc                ENET_ZERO
 .bss.ENET_BCAST
                0x41222002        0x6 C:\Nburn/lib/NetBurner.a(netinterface.o)
                0x41222002                ENET_BCAST
 .bss.pPacketfunc
                0x41222008        0x4 C:\Nburn/lib/NetBurner.a(netinterface.o)
                0x41222008                pPacketfunc
 .bss.pArpFunc  0x4122200c        0x4 C:\Nburn/lib/NetBurner.a(netinterface.o)
                0x4122200c                pArpFunc
 .bss._ZL6cpdump
                0x41222010        0x4 C:\Nburn/lib/NetBurner.a(taskmon.o)
 .bss._ZL11dump_buffer
                0x41222014     0x1000 C:\Nburn/lib/NetBurner.a(taskmon.o)
 .bss._ZL15already_in_trap
                0x41223014        0x1 C:\Nburn/lib/NetBurner.a(smarttrap.o)
 *fill*         0x41223015        0x1 
 .bss.smart_trap_stack
                0x41223016      0x400 C:\Nburn/lib/NetBurner.a(smarttrap.o)
 .bss.smart_trap_a7
                0x41223416        0x4 C:\Nburn/lib/NetBurner.a(smarttrap.o)
 .bss.watchdog_service_function
                0x4122341a        0x4 C:\Nburn/lib/NetBurner.a(autoupdate.o)
                0x4122341a                watchdog_service_function
 .bss.update_shutdown_func
                0x4122341e        0x4 C:\Nburn/lib/NetBurner.a(autoupdate.o)
                0x4122341e                update_shutdown_func
 .bss.update_authenticate_func
                0x41223422        0x4 C:\Nburn/lib/NetBurner.a(autoupdate.o)
                0x41223422                update_authenticate_func
 .bss.pCurRecord
                0x41223426        0x4 C:\Nburn/lib/NetBurner.a(autoupdate.o)
                0x41223426                pCurRecord
 .bss.DeviceI2cSem
                0x4122342a       0x12 C:\Nburn/lib/NetBurner.a(device.o)
                0x4122342a                DeviceI2cSem
 .bss.DeviceQspiSem
                0x4122343c       0x12 C:\Nburn/lib/NetBurner.a(device.o)
                0x4122343c                DeviceQspiSem
 .bss.pPrintfFloatFunc
                0x4122344e        0x4 C:\Nburn/lib/NetBurner.a(nbiprintf.o)
                0x4122344e                pPrintfFloatFunc
 .bss.TheWSHandler
                0x41223452        0x4 C:\Nburn/lib/NetBurner.a(websocket_handler.o)
                0x41223452                TheWSHandler
 .bss._ZZL24TransmitBufferwFragmentsR25IPv6FrameProcessingStructiE7frag_id
                0x41223456        0x4 C:\Nburn/lib/NetBurner.a(ipv6_ip.o)
 .bss._ZN13IPv6Interface7gifListE
                0x4122345a        0x4 C:\Nburn/lib/NetBurner.a(ipv6_ip.o)
                0x4122345a                _ZN13IPv6Interface7gifListE
 .bss._ZN13IPv6Interface18NetBurnerMultiCastE
                0x4122345e       0x10 C:\Nburn/lib/NetBurner.a(ipv6_ip.o)
                0x4122345e                _ZN13IPv6Interface18NetBurnerMultiCastE
 .bss.IPV6_Ticks
                0x4122346e        0x4 C:\Nburn/lib/NetBurner.a(ipv6_ip.o)
                0x4122346e                IPV6_Ticks
 .bss.IPV6_Frame_RX_Frag
                0x41223472        0x4 C:\Nburn/lib/NetBurner.a(ipv6_ip.o)
                0x41223472                IPV6_Frame_RX_Frag
 .bss.IPV6_Frame_RX_Discard
                0x41223476        0x4 C:\Nburn/lib/NetBurner.a(ipv6_ip.o)
                0x41223476                IPV6_Frame_RX_Discard
 .bss.IPV6_Frame_RX_TCP
                0x4122347a        0x4 C:\Nburn/lib/NetBurner.a(ipv6_ip.o)
                0x4122347a                IPV6_Frame_RX_TCP
 .bss.IPV6_Frame_RX_UDP
                0x4122347e        0x4 C:\Nburn/lib/NetBurner.a(ipv6_ip.o)
                0x4122347e                IPV6_Frame_RX_UDP
 .bss.IPV6_Frame_RX_ICMP
                0x41223482        0x4 C:\Nburn/lib/NetBurner.a(ipv6_ip.o)
                0x41223482                IPV6_Frame_RX_ICMP
 .bss.IPV6_Frame_TX_Frag
                0x41223486        0x4 C:\Nburn/lib/NetBurner.a(ipv6_ip.o)
                0x41223486                IPV6_Frame_TX_Frag
 .bss.IPV6_Frame_TX
                0x4122348a        0x4 C:\Nburn/lib/NetBurner.a(ipv6_ip.o)
                0x4122348a                IPV6_Frame_TX
 .bss.IPV6_Frame_RX
                0x4122348e        0x4 C:\Nburn/lib/NetBurner.a(ipv6_ip.o)
                0x4122348e                IPV6_Frame_RX
 .bss.RegisteredV6MultiGroups
                0x41223492        0x2 C:\Nburn/lib/NetBurner.a(ipv6_multicast.o)
                0x41223492                RegisteredV6MultiGroups
 .bss._ZN2NB2V66DHCPv613DHCPv6Message11ALL_SERVERSE
                0x41223494       0x10 C:\Nburn/lib/NetBurner.a(ipv6_dhcp.o)
                0x41223494                _ZN2NB2V66DHCPv613DHCPv6Message11ALL_SERVERSE
 .bss._ZN2NB2V66DHCPv613DHCPv6Message21ALL_RELAY_AND_SERVERSE
                0x412234a4       0x10 C:\Nburn/lib/NetBurner.a(ipv6_dhcp.o)
                0x412234a4                _ZN2NB2V66DHCPv613DHCPv6Message21ALL_RELAY_AND_SERVERSE
 .bss._ZN2NB2V66DHCPv68pReplyCBE
                0x412234b4        0x4 C:\Nburn/lib/NetBurner.a(ipv6_dhcp.o)
                0x412234b4                _ZN2NB2V66DHCPv68pReplyCBE
 .bss._ZN2NB2V66DHCPv616pRequestOptionCBE
                0x412234b8        0x4 C:\Nburn/lib/NetBurner.a(ipv6_dhcp.o)
                0x412234b8                _ZN2NB2V66DHCPv616pRequestOptionCBE
 .bss._ZN2NB2V66DHCPv69pAddOROCBE
                0x412234bc        0x4 C:\Nburn/lib/NetBurner.a(ipv6_dhcp.o)
                0x412234bc                _ZN2NB2V66DHCPv69pAddOROCBE
 .bss.MulticastRegistrationCrit
                0x412234c0        0xe C:\Nburn/lib/NetBurner.a(multicast.o)
                0x412234c0                MulticastRegistrationCrit
 .bss.mrecs     0x412234ce      0x380 C:\Nburn/lib/NetBurner.a(multicast.o)
                0x412234ce                mrecs
 .bss.md5_used  0x4122384e        0x1 C:\Nburn/lib/NetBurner.a(random.o)
                0x4122384e                md5_used
 .bss.md5_rand  0x4122384f       0x10 C:\Nburn/lib/NetBurner.a(random.o)
                0x4122384f                md5_rand
 .bss.read_cnt  0x4122385f        0x1 C:\Nburn/lib/NetBurner.a(random.o)
                0x4122385f                read_cnt
 .bss.pIp6Func  0x41223860        0x4 C:\Nburn/lib/NetBurner.a(netrx.o)
                0x41223860                pIp6Func
 .bss._ZL10eh_globals
                0x41223864        0x8 c:/nburn/gcc-m68k/bin/../m68k-unknown-elf/sysroot/lib/m54455\libstdc++.a(eh_globals.o)
 .bss._ZZN9__gnu_cxx27__verbose_terminate_handlerEvE11terminating
                0x4122386c        0x1 c:/nburn/gcc-m68k/bin/../m68k-unknown-elf/sysroot/lib/m54455\libstdc++.a(vterminate.o)
 *fill*         0x4122386d        0x1 
 .bss._ZN12_GLOBAL__N_114emergency_poolE
                0x4122386e       0x10 c:/nburn/gcc-m68k/bin/../m68k-unknown-elf/sysroot/lib/m54455\libstdc++.a(eh_alloc.o)
 .bss.trcr      0x4122387e        0x4 C:\Nburn/lib/NANO54415.a(ethernet.o)
                0x4122387e                trcr
 .bss._ZL10bFirstInit
                0x41223882        0x1 C:\Nburn/lib/NANO54415.a(ethernet.o)
 *fill*         0x41223883        0x1 
 .bss.EthernetBlock
                0x41223884       0x46 C:\Nburn/lib/NANO54415.a(ethernet.o)
                0x41223884                EthernetBlock
 .bss.EthernetMac1
                0x412238ca        0x6 C:\Nburn/lib/NANO54415.a(ethernet.o)
                0x412238ca                EthernetMac1
 .bss.EthernetMac
                0x412238d0        0x6 C:\Nburn/lib/NANO54415.a(ethernet.o)
                0x412238d0                EthernetMac
 .bss.EtherLinkCallback1
                0x412238d6        0x4 C:\Nburn/lib/NANO54415.a(ethernet.o)
                0x412238d6                EtherLinkCallback1
 .bss.EtherLinkCallback
                0x412238da        0x4 C:\Nburn/lib/NANO54415.a(ethernet.o)
                0x412238da                EtherLinkCallback
 .bss.port1state
                0x412238de        0x4 C:\Nburn/lib/NANO54415.a(ethernet.o)
                0x412238de                port1state
 .bss._ZL15multicast_count
                0x412238e2      0x100 C:\Nburn/lib/NANO54415.a(emulticast.o)
 .bss.EthernetBlock1
                0x412239e2       0x46 C:\Nburn/lib/NANO54415.a(ether2nd.o)
                0x412239e2                EthernetBlock1
 .bss.RevMac    0x41223a28        0x8 C:\Nburn/lib/NANO54415.a(etherswitch.o)
                0x41223a28                RevMac
 *(COMMON)
                0x41223a30                _end = ALIGN (0x8)
                0x41223a30                __end = _end

.stab
 *(.stab)

.stabstr
 *(.stabstr)

.debug
 *(.debug)

.line
 *(.line)

.debug_srcinfo
 *(.debug_srcinfo)

.debug_sfnames
 *(.debug_sfnames)

.debug_aranges  0x00000000     0x4310
 *(.debug_aranges)
 .debug_aranges
                0x00000000       0x40 main.o
 .debug_aranges
                0x00000040       0x48 Utility.o
 .debug_aranges
                0x00000088       0x50 Nav.o
 .debug_aranges
                0x000000d8       0x50 Logger.o
 .debug_aranges
                0x00000128       0x70 Drivers\servodrive.o
 .debug_aranges
                0x00000198       0x50 Drivers\pwm.o
 .debug_aranges
                0x000001e8      0x138 Drivers\introspec.o
 .debug_aranges
                0x00000320       0x28 Drivers\dsm2.o
 .debug_aranges
                0x00000348       0x70 Drivers\SpinningLidar.o
 .debug_aranges
                0x000003b8       0x50 Drivers\Odometer.o
 .debug_aranges
                0x00000408       0x20 Drivers\MadgwickFilter.o
 .debug_aranges
                0x00000428       0xf8 Drivers\MPU9250.o
 .debug_aranges
                0x00000520       0x48 Drivers\LidarPWM.o
 .debug_aranges
                0x00000568       0x58 Drivers\LCD.o
 .debug_aranges
                0x000005c0       0x68 Drivers\IMUSetupAndSample.o
 .debug_aranges
                0x00000628       0x28 htmldata.o
 .debug_aranges
                0x00000650      0x198 C:\Nburn/lib/NANO54415.a(serial.o)
 .debug_aranges
                0x000007e8       0x48 C:\Nburn/lib/NANO54415.a(pins.o)
 .debug_aranges
                0x00000830       0x60 C:\Nburn/lib/NANO54415.a(FlashOps.o)
 .debug_aranges
                0x00000890       0xd0 C:\Nburn/lib/NANO54415.a(HiResTimer.o)
 .debug_aranges
                0x00000960       0x50 C:\Nburn/lib/NANO54415.a(pin_irq.o)
 .debug_aranges
                0x000009b0       0x90 C:\Nburn/lib/NANO54415.a(bsp.o)
 .debug_aranges
                0x00000a40       0x40 C:\Nburn/lib/NANO54415.a(localio.o)
 .debug_aranges
                0x00000a80       0x88 C:\Nburn/lib/NANO54415.a(multichanneli2c.o)
 .debug_aranges
                0x00000b08       0x20 C:\Nburn/lib/NANO54415.a(defpins.o)
 .debug_aranges
                0x00000b28       0xc8 C:\Nburn/lib/NANO54415.a(SPIFlash.o)
 .debug_aranges
                0x00000bf0      0x108 C:\Nburn/lib/NANO54415.a(i2c_class.o)
 .debug_aranges
                0x00000cf8       0x28 C:\Nburn/lib/NetBurner.a(main.o)
 .debug_aranges
                0x00000d20       0x40 C:\Nburn/lib/NetBurner.a(ucosmcfc.o)
 .debug_aranges
                0x00000d60      0x178 C:\Nburn/lib/NetBurner.a(ucos.o)
 .debug_aranges
                0x00000ed8       0x20 C:\Nburn/lib/NetBurner.a(cppmain.o)
 .debug_aranges
                0x00000ef8       0x40 C:\Nburn/lib/NetBurner.a(debugtrap.o)
 .debug_aranges
                0x00000f38       0x68 C:\Nburn/lib/NetBurner.a(ucosmain.o)
 .debug_aranges
                0x00000fa0       0x98 C:\Nburn/lib/NetBurner.a(fileio.o)
 .debug_aranges
                0x00001038       0x60 C:\Nburn/lib/NetBurner.a(system.o)
 .debug_aranges
                0x00001098       0xe8 C:\Nburn/lib/NetBurner.a(utils.o)
 .debug_aranges
                0x00001180       0xe8 C:\Nburn/lib/NetBurner.a(ip.o)
 .debug_aranges
                0x00001268      0x108 C:\Nburn/lib/NetBurner.a(buffers.o)
 .debug_aranges
                0x00001370      0x110 C:\Nburn/lib/NetBurner.a(arp.o)
 .debug_aranges
                0x00001480      0x198 C:\Nburn/lib/NetBurner.a(udp.o)
 .debug_aranges
                0x00001618      0x150 C:\Nburn/lib/NetBurner.a(ftpd.o)
 .debug_aranges
                0x00001768      0x468 C:\Nburn/lib/NetBurner.a(tcp.o)
 .debug_aranges
                0x00001bd0       0x78 C:\Nburn/lib/NetBurner.a(extraio.o)
 .debug_aranges
                0x00001c48       0x38 C:\Nburn/lib/NetBurner.a(http.o)
 .debug_aranges
                0x00001c80      0x108 C:\Nburn/lib/NetBurner.a(httpinternal.o)
 .debug_aranges
                0x00001d88       0x20 C:\Nburn/lib/NetBurner.a(httpstricmp.o)
 .debug_aranges
                0x00001da8       0x80 C:\Nburn/lib/NetBurner.a(htmldecomp.o)
 .debug_aranges
                0x00001e28       0xe8 C:\Nburn/lib/NetBurner.a(iosys.o)
 .debug_aranges
                0x00001f10       0x20 C:\Nburn/lib/NetBurner.a(new_ops.o)
 .debug_aranges
                0x00001f30       0xa8 C:\Nburn/lib/NetBurner.a(autoip.o)
 .debug_aranges
                0x00001fd8      0x178 C:\Nburn/lib/NetBurner.a(dhcpc.o)
 .debug_aranges
                0x00002150       0xc8 C:\Nburn/lib/NetBurner.a(netinterface.o)
 .debug_aranges
                0x00002218       0x38 C:\Nburn/lib/NetBurner.a(taskmon.o)
 .debug_aranges
                0x00002250       0x58 C:\Nburn/lib/NetBurner.a(smarttrap.o)
 .debug_aranges
                0x000022a8       0x48 C:\Nburn/lib/NetBurner.a(autoupdate.o)
 .debug_aranges
                0x000022f0       0x38 C:\Nburn/lib/NetBurner.a(device.o)
 .debug_aranges
                0x00002328       0xb8 C:\Nburn/lib/NetBurner.a(nbiprintf.o)
 .debug_aranges
                0x000023e0       0x20 C:\Nburn/lib/NetBurner.a(nbprintf.o)
 .debug_aranges
                0x00002400       0x30 C:\Nburn/lib/NetBurner.a(nbsiprintf.o)
 .debug_aranges
                0x00002430       0x68 C:\Nburn/lib/NetBurner.a(nbsprintf.o)
 .debug_aranges
                0x00002498       0x20 C:\Nburn/lib/NetBurner.a(weakumain.o)
 .debug_aranges
                0x000024b8       0x20 C:\Nburn/lib/NetBurner.a(cusermain.o)
 .debug_aranges
                0x000024d8       0x20 C:\Nburn/lib/NetBurner.a(fdprintf.o)
 .debug_aranges
                0x000024f8       0x18 C:\Nburn/lib/NetBurner.a(websocket_handler.o)
 .debug_aranges
                0x00002510       0xa0 C:\Nburn/lib/NetBurner.a(ipv6_addr.o)
 .debug_aranges
                0x000025b0       0x50 C:\Nburn/lib/NetBurner.a(ipv6_tcp.o)
 .debug_aranges
                0x00002600      0x460 C:\Nburn/lib/NetBurner.a(ipv6_ip.o)
 .debug_aranges
                0x00002a60       0x78 C:\Nburn/lib/NetBurner.a(ipv6_udp.o)
 .debug_aranges
                0x00002ad8       0x28 C:\Nburn/lib/NetBurner.a(ipv6_printhelp.o)
 .debug_aranges
                0x00002b00       0x48 C:\Nburn/lib/NetBurner.a(ipv6_extensions.o)
 .debug_aranges
                0x00002b48       0x30 C:\Nburn/lib/NetBurner.a(ipv6_multicast.o)
 .debug_aranges
                0x00002b78       0x78 C:\Nburn/lib/NetBurner.a(ipv6_show.o)
 .debug_aranges
                0x00002bf0      0x180 C:\Nburn/lib/NetBurner.a(ipv6_dhcp.o)
 .debug_aranges
                0x00002d70       0x80 C:\Nburn/lib/NetBurner.a(multicast.o)
 .debug_aranges
                0x00002df0       0x40 C:\Nburn/lib/NetBurner.a(random.o)
 .debug_aranges
                0x00002e30       0x20 C:\Nburn/lib/NetBurner.a(netrx.o)
 .debug_aranges
                0x00002e50       0x70 C:\Nburn/lib/NetBurner.a(nbfloatprint.o)
 .debug_aranges
                0x00002ec0       0x28 C:\Nburn/lib/NetBurner.a(fdiprintf.o)
 .debug_aranges
                0x00002ee8       0x68 C:\Nburn/lib/NetBurner.a(md5c.o)
 .debug_aranges
                0x00002f50       0x28 c:/nburn/gcc-m68k/bin/../m68k-unknown-elf/sysroot/lib/m54455\libstdc++.a(pure.o)
 .debug_aranges
                0x00002f78       0x58 c:/nburn/gcc-m68k/bin/../m68k-unknown-elf/sysroot/lib/m54455\libstdc++.a(eh_terminate.o)
 .debug_aranges
                0x00002fd0       0x20 c:/nburn/gcc-m68k/bin/../m68k-unknown-elf/sysroot/lib/m54455\libstdc++.a(del_op.o)
 .debug_aranges
                0x00002ff0       0x20 c:/nburn/gcc-m68k/bin/../m68k-unknown-elf/sysroot/lib/m54455\libstdc++.a(del_ops.o)
 .debug_aranges
                0x00003010       0x18 c:/nburn/gcc-m68k/bin/../m68k-unknown-elf/sysroot/lib/m54455\libstdc++.a(eh_unex_handler.o)
 .debug_aranges
                0x00003028       0x18 c:/nburn/gcc-m68k/bin/../m68k-unknown-elf/sysroot/lib/m54455\libstdc++.a(eh_term_handler.o)
 .debug_aranges
                0x00003040       0x38 c:/nburn/gcc-m68k/bin/../m68k-unknown-elf/sysroot/lib/m54455\libstdc++.a(eh_catch.o)
 .debug_aranges
                0x00003078       0x70 c:/nburn/gcc-m68k/bin/../m68k-unknown-elf/sysroot/lib/m54455\libstdc++.a(eh_personality.o)
 .debug_aranges
                0x000030e8       0x68 c:/nburn/gcc-m68k/bin/../m68k-unknown-elf/sysroot/lib/m54455\libstdc++.a(eh_exception.o)
 .debug_aranges
                0x00003150       0x20 c:/nburn/gcc-m68k/bin/../m68k-unknown-elf/sysroot/lib/m54455\libstdc++.a(eh_globals.o)
 .debug_aranges
                0x00003170       0x20 c:/nburn/gcc-m68k/bin/../m68k-unknown-elf/sysroot/lib/m54455\libstdc++.a(vterminate.o)
 .debug_aranges
                0x00003190       0x50 c:/nburn/gcc-m68k/bin/../m68k-unknown-elf/sysroot/lib/m54455\libstdc++.a(eh_alloc.o)
 .debug_aranges
                0x000031e0       0x20 c:/nburn/gcc-m68k/bin/../m68k-unknown-elf/sysroot/lib/m54455\libstdc++.a(cp-demangle.o)
 .debug_aranges
                0x00003200       0x30 c:/nburn/gcc-m68k/bin/../m68k-unknown-elf/sysroot/lib/m54455\libstdc++.a(eh_throw.o)
 .debug_aranges
                0x00003230       0x20 c:/nburn/gcc-m68k/bin/../m68k-unknown-elf/sysroot/lib/m54455\libstdc++.a(eh_type.o)
 .debug_aranges
                0x00003250       0x48 c:/nburn/gcc-m68k/bin/../m68k-unknown-elf/sysroot/lib/m54455\libstdc++.a(si_class_type_info.o)
 .debug_aranges
                0x00003298       0x20 c:/nburn/gcc-m68k/bin/../m68k-unknown-elf/sysroot/lib/m54455\libstdc++.a(eh_call.o)
 .debug_aranges
                0x000032b8       0x58 c:/nburn/gcc-m68k/bin/../m68k-unknown-elf/sysroot/lib/m54455\libstdc++.a(class_type_info.o)
 .debug_aranges
                0x00003310       0x40 c:/nburn/gcc-m68k/bin/../m68k-unknown-elf/sysroot/lib/m54455\libstdc++.a(tinfo.o)
 .debug_aranges
                0x00003350      0x178 C:\Nburn/lib/NANO54415.a(ethernet.o)
 .debug_aranges
                0x000034c8       0x70 C:\Nburn/lib/NANO54415.a(etherprint.o)
 .debug_aranges
                0x00003538       0x30 C:\Nburn/lib/NANO54415.a(emulticast.o)
 .debug_aranges
                0x00003568       0x48 C:\Nburn/lib/NANO54415.a(ether2nd.o)
 .debug_aranges
                0x000035b0       0x80 C:\Nburn/lib/NANO54415.a(etherswitch.o)
 .debug_aranges
                0x00003630       0x18 C:\Nburn/lib/NANO54415.a(weak_autoenet_var.o)
 .debug_aranges
                0x00003648       0x20 C:\Nburn/lib/NetBurner.a(multiconfig.o)
 .debug_aranges
                0x00003668       0x20 c:/nburn/gcc-m68k/bin/../m68k-unknown-elf/sysroot/lib/m54455\libm.a(lib_a-s_cos.o)
 .debug_aranges
                0x00003688       0x20 c:/nburn/gcc-m68k/bin/../m68k-unknown-elf/sysroot/lib/m54455\libm.a(lib_a-s_fpclassify.o)
 .debug_aranges
                0x000036a8       0x20 c:/nburn/gcc-m68k/bin/../m68k-unknown-elf/sysroot/lib/m54455\libm.a(lib_a-s_modf.o)
 .debug_aranges
                0x000036c8       0x20 c:/nburn/gcc-m68k/bin/../m68k-unknown-elf/sysroot/lib/m54455\libm.a(lib_a-s_round.o)
 .debug_aranges
                0x000036e8       0x20 c:/nburn/gcc-m68k/bin/../m68k-unknown-elf/sysroot/lib/m54455\libm.a(lib_a-s_sin.o)
 .debug_aranges
                0x00003708       0x20 c:/nburn/gcc-m68k/bin/../m68k-unknown-elf/sysroot/lib/m54455\libm.a(lib_a-w_pow.o)
 .debug_aranges
                0x00003728       0x20 c:/nburn/gcc-m68k/bin/../m68k-unknown-elf/sysroot/lib/m54455\libm.a(lib_a-wf_asin.o)
 .debug_aranges
                0x00003748       0x20 c:/nburn/gcc-m68k/bin/../m68k-unknown-elf/sysroot/lib/m54455\libm.a(lib_a-wf_atan2.o)
 .debug_aranges
                0x00003768       0x20 c:/nburn/gcc-m68k/bin/../m68k-unknown-elf/sysroot/lib/m54455\libm.a(lib_a-wf_sqrt.o)
 .debug_aranges
                0x00003788       0x20 c:/nburn/gcc-m68k/bin/../m68k-unknown-elf/sysroot/lib/m54455\libm.a(lib_a-e_pow.o)
 .debug_aranges
                0x000037a8       0x20 c:/nburn/gcc-m68k/bin/../m68k-unknown-elf/sysroot/lib/m54455\libm.a(lib_a-e_rem_pio2.o)
 .debug_aranges
                0x000037c8       0x20 c:/nburn/gcc-m68k/bin/../m68k-unknown-elf/sysroot/lib/m54455\libm.a(lib_a-e_sqrt.o)
 .debug_aranges
                0x000037e8       0x20 c:/nburn/gcc-m68k/bin/../m68k-unknown-elf/sysroot/lib/m54455\libm.a(lib_a-ef_asin.o)
 .debug_aranges
                0x00003808       0x20 c:/nburn/gcc-m68k/bin/../m68k-unknown-elf/sysroot/lib/m54455\libm.a(lib_a-ef_atan2.o)
 .debug_aranges
                0x00003828       0x20 c:/nburn/gcc-m68k/bin/../m68k-unknown-elf/sysroot/lib/m54455\libm.a(lib_a-ef_sqrt.o)
 .debug_aranges
                0x00003848       0x20 c:/nburn/gcc-m68k/bin/../m68k-unknown-elf/sysroot/lib/m54455\libm.a(lib_a-k_cos.o)
 .debug_aranges
                0x00003868       0x20 c:/nburn/gcc-m68k/bin/../m68k-unknown-elf/sysroot/lib/m54455\libm.a(lib_a-k_rem_pio2.o)
 .debug_aranges
                0x00003888       0x20 c:/nburn/gcc-m68k/bin/../m68k-unknown-elf/sysroot/lib/m54455\libm.a(lib_a-k_sin.o)
 .debug_aranges
                0x000038a8       0x20 c:/nburn/gcc-m68k/bin/../m68k-unknown-elf/sysroot/lib/m54455\libm.a(lib_a-s_fabs.o)
 .debug_aranges
                0x000038c8       0x20 c:/nburn/gcc-m68k/bin/../m68k-unknown-elf/sysroot/lib/m54455\libm.a(lib_a-s_finite.o)
 .debug_aranges
                0x000038e8       0x20 c:/nburn/gcc-m68k/bin/../m68k-unknown-elf/sysroot/lib/m54455\libm.a(lib_a-s_floor.o)
 .debug_aranges
                0x00003908       0x18 c:/nburn/gcc-m68k/bin/../m68k-unknown-elf/sysroot/lib/m54455\libm.a(lib_a-s_lib_ver.o)
 .debug_aranges
                0x00003920       0x20 c:/nburn/gcc-m68k/bin/../m68k-unknown-elf/sysroot/lib/m54455\libm.a(lib_a-s_matherr.o)
 .debug_aranges
                0x00003940       0x20 c:/nburn/gcc-m68k/bin/../m68k-unknown-elf/sysroot/lib/m54455\libm.a(lib_a-s_nan.o)
 .debug_aranges
                0x00003960       0x20 c:/nburn/gcc-m68k/bin/../m68k-unknown-elf/sysroot/lib/m54455\libm.a(lib_a-s_rint.o)
 .debug_aranges
                0x00003980       0x20 c:/nburn/gcc-m68k/bin/../m68k-unknown-elf/sysroot/lib/m54455\libm.a(lib_a-s_scalbn.o)
 .debug_aranges
                0x000039a0       0x20 c:/nburn/gcc-m68k/bin/../m68k-unknown-elf/sysroot/lib/m54455\libm.a(lib_a-sf_atan.o)
 .debug_aranges
                0x000039c0       0x20 c:/nburn/gcc-m68k/bin/../m68k-unknown-elf/sysroot/lib/m54455\libm.a(lib_a-sf_fabs.o)
 .debug_aranges
                0x000039e0       0x20 c:/nburn/gcc-m68k/bin/../m68k-unknown-elf/sysroot/lib/m54455\libm.a(lib_a-sf_fpclassify.o)
 .debug_aranges
                0x00003a00       0x20 c:/nburn/gcc-m68k/bin/../m68k-unknown-elf/sysroot/lib/m54455\libm.a(lib_a-s_copysign.o)
 .debug_aranges
                0x00003a20       0x20 c:/nburn/gcc-m68k/bin/../lib/gcc/m68k-unknown-elf/5.2.0/m54455\libgcc.a(_double.o)
 .debug_aranges
                0x00003a40       0x20 c:/nburn/gcc-m68k/bin/../lib/gcc/m68k-unknown-elf/5.2.0/m54455\libgcc.a(_float.o)
 .debug_aranges
                0x00003a60       0x20 c:/nburn/gcc-m68k/bin/../lib/gcc/m68k-unknown-elf/5.2.0/m54455\libgcc.a(_floatex.o)
 .debug_aranges
                0x00003a80       0x20 c:/nburn/gcc-m68k/bin/../lib/gcc/m68k-unknown-elf/5.2.0/m54455\libgcc.a(_eqdf2.o)
 .debug_aranges
                0x00003aa0       0x20 c:/nburn/gcc-m68k/bin/../lib/gcc/m68k-unknown-elf/5.2.0/m54455\libgcc.a(_nedf2.o)
 .debug_aranges
                0x00003ac0       0x20 c:/nburn/gcc-m68k/bin/../lib/gcc/m68k-unknown-elf/5.2.0/m54455\libgcc.a(_gtdf2.o)
 .debug_aranges
                0x00003ae0       0x20 c:/nburn/gcc-m68k/bin/../lib/gcc/m68k-unknown-elf/5.2.0/m54455\libgcc.a(_gedf2.o)
 .debug_aranges
                0x00003b00       0x20 c:/nburn/gcc-m68k/bin/../lib/gcc/m68k-unknown-elf/5.2.0/m54455\libgcc.a(_ltdf2.o)
 .debug_aranges
                0x00003b20       0x20 c:/nburn/gcc-m68k/bin/../lib/gcc/m68k-unknown-elf/5.2.0/m54455\libgcc.a(_ledf2.o)
 .debug_aranges
                0x00003b40       0x20 c:/nburn/gcc-m68k/bin/../lib/gcc/m68k-unknown-elf/5.2.0/m54455\libgcc.a(_eqsf2.o)
 .debug_aranges
                0x00003b60       0x20 c:/nburn/gcc-m68k/bin/../lib/gcc/m68k-unknown-elf/5.2.0/m54455\libgcc.a(_gtsf2.o)
 .debug_aranges
                0x00003b80       0x20 c:/nburn/gcc-m68k/bin/../lib/gcc/m68k-unknown-elf/5.2.0/m54455\libgcc.a(_ltsf2.o)
 .debug_aranges
                0x00003ba0       0x20 c:/nburn/gcc-m68k/bin/../lib/gcc/m68k-unknown-elf/5.2.0/m54455\libgcc.a(_muldi3.o)
 .debug_aranges
                0x00003bc0       0x20 c:/nburn/gcc-m68k/bin/../lib/gcc/m68k-unknown-elf/5.2.0/m54455\libgcc.a(_fixunsdfsi.o)
 .debug_aranges
                0x00003be0       0x20 c:/nburn/gcc-m68k/bin/../lib/gcc/m68k-unknown-elf/5.2.0/m54455\libgcc.a(_fixunsdfdi.o)
 .debug_aranges
                0x00003c00       0x20 c:/nburn/gcc-m68k/bin/../lib/gcc/m68k-unknown-elf/5.2.0/m54455\libgcc.a(_udivdi3.o)
 .debug_aranges
                0x00003c20       0x20 c:/nburn/gcc-m68k/bin/../lib/gcc/m68k-unknown-elf/5.2.0/m54455\libgcc.a(_umoddi3.o)
 .debug_aranges
                0x00003c40       0x20 c:/nburn/gcc-m68k/bin/../lib/gcc/m68k-unknown-elf/5.2.0/m54455\libgcc.a(fpgnulib.o)
 .debug_aranges
                0x00003c60       0x20 c:/nburn/gcc-m68k/bin/../lib/gcc/m68k-unknown-elf/5.2.0/m54455\libgcc.a(unwind-dw2.o)
 .debug_aranges
                0x00003c80       0x20 c:/nburn/gcc-m68k/bin/../lib/gcc/m68k-unknown-elf/5.2.0/m54455\libgcc.a(unwind-dw2-fde.o)
 .debug_aranges
                0x00003ca0       0x20 c:/nburn/gcc-m68k/bin/../m68k-unknown-elf/sysroot/lib/m54455\libc.a(lib_a-abort.o)
 .debug_aranges
                0x00003cc0       0x20 c:/nburn/gcc-m68k/bin/../m68k-unknown-elf/sysroot/lib/m54455\libc.a(lib_a-atexit.o)
 .debug_aranges
                0x00003ce0       0x20 c:/nburn/gcc-m68k/bin/../m68k-unknown-elf/sysroot/lib/m54455\libc.a(lib_a-atoi.o)
 .debug_aranges
                0x00003d00       0x20 c:/nburn/gcc-m68k/bin/../m68k-unknown-elf/sysroot/lib/m54455\libc.a(lib_a-bsearch.o)
 .debug_aranges
                0x00003d20       0x20 c:/nburn/gcc-m68k/bin/../m68k-unknown-elf/sysroot/lib/m54455\libc.a(lib_a-cxa_atexit.o)
 .debug_aranges
                0x00003d40       0x20 c:/nburn/gcc-m68k/bin/../m68k-unknown-elf/sysroot/lib/m54455\libc.a(lib_a-errno.o)
 .debug_aranges
                0x00003d60       0x20 c:/nburn/gcc-m68k/bin/../m68k-unknown-elf/sysroot/lib/m54455\libc.a(lib_a-fputc.o)
 .debug_aranges
                0x00003d80       0x20 c:/nburn/gcc-m68k/bin/../m68k-unknown-elf/sysroot/lib/m54455\libc.a(lib_a-fputs.o)
 .debug_aranges
                0x00003da0       0x20 c:/nburn/gcc-m68k/bin/../m68k-unknown-elf/sysroot/lib/m54455\libc.a(lib_a-fvwrite.o)
 .debug_aranges
                0x00003dc0       0x18 c:/nburn/gcc-m68k/bin/../m68k-unknown-elf/sysroot/lib/m54455\libc.a(lib_a-impure.o)
 .debug_aranges
                0x00003dd8       0x20 c:/nburn/gcc-m68k/bin/../m68k-unknown-elf/sysroot/lib/m54455\libc.a(lib_a-isspace.o)
 .debug_aranges
                0x00003df8       0x20 c:/nburn/gcc-m68k/bin/../m68k-unknown-elf/sysroot/lib/m54455\libc.a(lib_a-malloc.o)
 .debug_aranges
                0x00003e18       0x20 c:/nburn/gcc-m68k/bin/../m68k-unknown-elf/sysroot/lib/m54455\libc.a(lib_a-mallocr.o)
 .debug_aranges
                0x00003e38       0x20 c:/nburn/gcc-m68k/bin/../m68k-unknown-elf/sysroot/lib/m54455\libc.a(lib_a-memchr.o)
 .debug_aranges
                0x00003e58       0x20 c:/nburn/gcc-m68k/bin/../m68k-unknown-elf/sysroot/lib/m54455\libc.a(lib_a-memcmp.o)
 .debug_aranges
                0x00003e78       0x20 c:/nburn/gcc-m68k/bin/../m68k-unknown-elf/sysroot/lib/m54455\libc.a(lib_a-memmove.o)
 .debug_aranges
                0x00003e98       0x20 c:/nburn/gcc-m68k/bin/../m68k-unknown-elf/sysroot/lib/m54455\libc.a(lib_a-putc.o)
 .debug_aranges
                0x00003eb8       0x20 c:/nburn/gcc-m68k/bin/../m68k-unknown-elf/sysroot/lib/m54455\libc.a(lib_a-puts.o)
 .debug_aranges
                0x00003ed8       0x20 c:/nburn/gcc-m68k/bin/../m68k-unknown-elf/sysroot/lib/m54455\libc.a(lib_a-rand.o)
 .debug_aranges
                0x00003ef8       0x20 c:/nburn/gcc-m68k/bin/../m68k-unknown-elf/sysroot/lib/m54455\libc.a(lib_a-realloc.o)
 .debug_aranges
                0x00003f18       0x20 c:/nburn/gcc-m68k/bin/../m68k-unknown-elf/sysroot/lib/m54455\libc.a(lib_a-reallocr.o)
 .debug_aranges
                0x00003f38       0x20 c:/nburn/gcc-m68k/bin/../m68k-unknown-elf/sysroot/lib/m54455\libc.a(lib_a-setvbuf.o)
 .debug_aranges
                0x00003f58       0x20 c:/nburn/gcc-m68k/bin/../m68k-unknown-elf/sysroot/lib/m54455\libc.a(lib_a-signal.o)
 .debug_aranges
                0x00003f78       0x20 c:/nburn/gcc-m68k/bin/../m68k-unknown-elf/sysroot/lib/m54455\libc.a(lib_a-signalr.o)
 .debug_aranges
                0x00003f98       0x20 c:/nburn/gcc-m68k/bin/../m68k-unknown-elf/sysroot/lib/m54455\libc.a(lib_a-stpcpy.o)
 .debug_aranges
                0x00003fb8       0x20 c:/nburn/gcc-m68k/bin/../m68k-unknown-elf/sysroot/lib/m54455\libc.a(lib_a-strcat.o)
 .debug_aranges
                0x00003fd8       0x20 c:/nburn/gcc-m68k/bin/../m68k-unknown-elf/sysroot/lib/m54455\libc.a(lib_a-strcmp.o)
 .debug_aranges
                0x00003ff8       0x20 c:/nburn/gcc-m68k/bin/../m68k-unknown-elf/sysroot/lib/m54455\libc.a(lib_a-strcpy.o)
 .debug_aranges
                0x00004018       0x20 c:/nburn/gcc-m68k/bin/../m68k-unknown-elf/sysroot/lib/m54455\libc.a(lib_a-strlen.o)
 .debug_aranges
                0x00004038       0x20 c:/nburn/gcc-m68k/bin/../m68k-unknown-elf/sysroot/lib/m54455\libc.a(lib_a-strncmp.o)
 .debug_aranges
                0x00004058       0x20 c:/nburn/gcc-m68k/bin/../m68k-unknown-elf/sysroot/lib/m54455\libc.a(lib_a-strncpy.o)
 .debug_aranges
                0x00004078       0x20 c:/nburn/gcc-m68k/bin/../m68k-unknown-elf/sysroot/lib/m54455\libc.a(lib_a-strstr.o)
 .debug_aranges
                0x00004098       0x20 c:/nburn/gcc-m68k/bin/../m68k-unknown-elf/sysroot/lib/m54455\libc.a(lib_a-strtol.o)
 .debug_aranges
                0x000040b8       0x20 c:/nburn/gcc-m68k/bin/../m68k-unknown-elf/sysroot/lib/m54455\libc.a(lib_a-tolower.o)
 .debug_aranges
                0x000040d8       0x20 c:/nburn/gcc-m68k/bin/../m68k-unknown-elf/sysroot/lib/m54455\libc.a(lib_a-toupper.o)
 .debug_aranges
                0x000040f8       0x20 c:/nburn/gcc-m68k/bin/../m68k-unknown-elf/sysroot/lib/m54455\libc.a(lib_a-wbuf.o)
 .debug_aranges
                0x00004118       0x20 c:/nburn/gcc-m68k/bin/../m68k-unknown-elf/sysroot/lib/m54455\libc.a(lib_a-wsetup.o)
 .debug_aranges
                0x00004138       0x20 c:/nburn/gcc-m68k/bin/../m68k-unknown-elf/sysroot/lib/m54455\libc.a(lib_a-__atexit.o)
 .debug_aranges
                0x00004158       0x18 c:/nburn/gcc-m68k/bin/../m68k-unknown-elf/sysroot/lib/m54455\libc.a(lib_a-ctype_.o)
 .debug_aranges
                0x00004170       0x20 c:/nburn/gcc-m68k/bin/../m68k-unknown-elf/sysroot/lib/m54455\libc.a(lib_a-fflush.o)
 .debug_aranges
                0x00004190       0x20 c:/nburn/gcc-m68k/bin/../m68k-unknown-elf/sysroot/lib/m54455\libc.a(lib_a-findfp.o)
 .debug_aranges
                0x000041b0       0x20 c:/nburn/gcc-m68k/bin/../m68k-unknown-elf/sysroot/lib/m54455\libc.a(lib_a-freer.o)
 .debug_aranges
                0x000041d0       0x20 c:/nburn/gcc-m68k/bin/../m68k-unknown-elf/sysroot/lib/m54455\libc.a(lib_a-fwalk.o)
 .debug_aranges
                0x000041f0       0x20 c:/nburn/gcc-m68k/bin/../m68k-unknown-elf/sysroot/lib/m54455\libc.a(lib_a-makebuf.o)
 .debug_aranges
                0x00004210       0x20 c:/nburn/gcc-m68k/bin/../m68k-unknown-elf/sysroot/lib/m54455\libc.a(lib_a-stdio.o)
 .debug_aranges
                0x00004230       0x20 c:/nburn/gcc-m68k/bin/../m68k-unknown-elf/sysroot/lib/m54455\libc.a(lib_a-writer.o)
 .debug_aranges
                0x00004250       0x20 c:/nburn/gcc-m68k/bin/../m68k-unknown-elf/sysroot/lib/m54455\libc.a(lib_a-closer.o)
 .debug_aranges
                0x00004270       0x20 c:/nburn/gcc-m68k/bin/../m68k-unknown-elf/sysroot/lib/m54455\libc.a(lib_a-fclose.o)
 .debug_aranges
                0x00004290       0x20 c:/nburn/gcc-m68k/bin/../m68k-unknown-elf/sysroot/lib/m54455\libc.a(lib_a-fstatr.o)
 .debug_aranges
                0x000042b0       0x20 c:/nburn/gcc-m68k/bin/../m68k-unknown-elf/sysroot/lib/m54455\libc.a(lib_a-isattyr.o)
 .debug_aranges
                0x000042d0       0x20 c:/nburn/gcc-m68k/bin/../m68k-unknown-elf/sysroot/lib/m54455\libc.a(lib_a-lseekr.o)
 .debug_aranges
                0x000042f0       0x20 c:/nburn/gcc-m68k/bin/../m68k-unknown-elf/sysroot/lib/m54455\libc.a(lib_a-readr.o)

.debug_pubnames
 *(.debug_pubnames)

.debug_info     0x00000000   0x10d4ec
 *(.debug_info)
 .debug_info    0x00000000     0x1d94 main.o
 .debug_info    0x00001d94      0x463 Utility.o
 .debug_info    0x000021f7      0x4b8 Nav.o
 .debug_info    0x000026af     0x12ae Logger.o
 .debug_info    0x0000395d     0x43f6 Drivers\servodrive.o
 .debug_info    0x00007d53     0x1918 Drivers\pwm.o
 .debug_info    0x0000966b     0x1f33 Drivers\introspec.o
 .debug_info    0x0000b59e     0x445d Drivers\dsm2.o
 .debug_info    0x0000f9fb      0x8e3 Drivers\SpinningLidar.o
 .debug_info    0x000102de     0x3eaa Drivers\Odometer.o
 .debug_info    0x00014188      0x4f9 Drivers\MadgwickFilter.o
 .debug_info    0x00014681     0x41c9 Drivers\MPU9250.o
 .debug_info    0x0001884a     0x3cdd Drivers\LidarPWM.o
 .debug_info    0x0001c527      0x60b Drivers\LCD.o
 .debug_info    0x0001cb32     0x1d0a Drivers\IMUSetupAndSample.o
 .debug_info    0x0001e83c      0x2bd htmldata.o
 .debug_info    0x0001eaf9     0x7403 C:\Nburn/lib/NANO54415.a(serial.o)
 .debug_info    0x00025efc     0x1563 C:\Nburn/lib/NANO54415.a(pins.o)
 .debug_info    0x0002745f     0x13b8 C:\Nburn/lib/NANO54415.a(FlashOps.o)
 .debug_info    0x00028817     0x4f29 C:\Nburn/lib/NANO54415.a(HiResTimer.o)
 .debug_info    0x0002d740     0x3f7b C:\Nburn/lib/NANO54415.a(pin_irq.o)
 .debug_info    0x000316bb     0x589c C:\Nburn/lib/NANO54415.a(bsp.o)
 .debug_info    0x00036f57     0x5060 C:\Nburn/lib/NANO54415.a(localio.o)
 .debug_info    0x0003bfb7     0x1ab3 C:\Nburn/lib/NANO54415.a(multichanneli2c.o)
 .debug_info    0x0003da6a      0x430 C:\Nburn/lib/NANO54415.a(defpins.o)
 .debug_info    0x0003de9a     0x6388 C:\Nburn/lib/NANO54415.a(SPIFlash.o)
 .debug_info    0x00044222     0x68b8 C:\Nburn/lib/NANO54415.a(i2c_class.o)
 .debug_info    0x0004aada       0xd5 C:\Nburn/lib/NetBurner.a(main.o)
 .debug_info    0x0004abaf      0x573 C:\Nburn/lib/NetBurner.a(ucosmcfc.o)
 .debug_info    0x0004b122     0x1da1 C:\Nburn/lib/NetBurner.a(ucos.o)
 .debug_info    0x0004cec3      0x167 C:\Nburn/lib/NetBurner.a(cppmain.o)
 .debug_info    0x0004d02a      0x443 C:\Nburn/lib/NetBurner.a(debugtrap.o)
 .debug_info    0x0004d46d     0x11b7 C:\Nburn/lib/NetBurner.a(ucosmain.o)
 .debug_info    0x0004e624     0x12f0 C:\Nburn/lib/NetBurner.a(fileio.o)
 .debug_info    0x0004f914     0x163b C:\Nburn/lib/NetBurner.a(system.o)
 .debug_info    0x00050f4f     0x1dcf C:\Nburn/lib/NetBurner.a(utils.o)
 .debug_info    0x00052d1e     0x3d64 C:\Nburn/lib/NetBurner.a(ip.o)
 .debug_info    0x00056a82     0x1aee C:\Nburn/lib/NetBurner.a(buffers.o)
 .debug_info    0x00058570     0x46a7 C:\Nburn/lib/NetBurner.a(arp.o)
 .debug_info    0x0005cc17     0x504b C:\Nburn/lib/NetBurner.a(udp.o)
 .debug_info    0x00061c62     0x22eb C:\Nburn/lib/NetBurner.a(ftpd.o)
 .debug_info    0x00063f4d    0x1028a C:\Nburn/lib/NetBurner.a(tcp.o)
 .debug_info    0x000741d7      0x57d C:\Nburn/lib/NetBurner.a(extraio.o)
 .debug_info    0x00074754     0x145e C:\Nburn/lib/NetBurner.a(http.o)
 .debug_info    0x00075bb2     0x1c23 C:\Nburn/lib/NetBurner.a(httpinternal.o)
 .debug_info    0x000777d5       0xcf C:\Nburn/lib/NetBurner.a(httpstricmp.o)
 .debug_info    0x000778a4      0xfc9 C:\Nburn/lib/NetBurner.a(htmldecomp.o)
 .debug_info    0x0007886d     0x170a C:\Nburn/lib/NetBurner.a(iosys.o)
 .debug_info    0x00079f77      0x4b9 C:\Nburn/lib/NetBurner.a(new_ops.o)
 .debug_info    0x0007a430     0x2025 C:\Nburn/lib/NetBurner.a(autoip.o)
 .debug_info    0x0007c455     0x70ab C:\Nburn/lib/NetBurner.a(dhcpc.o)
 .debug_info    0x00083500     0x1df1 C:\Nburn/lib/NetBurner.a(netinterface.o)
 .debug_info    0x000852f1     0x1adc C:\Nburn/lib/NetBurner.a(taskmon.o)
 .debug_info    0x00086dcd      0xf43 C:\Nburn/lib/NetBurner.a(smarttrap.o)
 .debug_info    0x00087d10     0x1e42 C:\Nburn/lib/NetBurner.a(autoupdate.o)
 .debug_info    0x00089b52      0x536 C:\Nburn/lib/NetBurner.a(device.o)
 .debug_info    0x0008a088     0x201b C:\Nburn/lib/NetBurner.a(nbiprintf.o)
 .debug_info    0x0008c0a3      0x1f3 C:\Nburn/lib/NetBurner.a(nbprintf.o)
 .debug_info    0x0008c296      0x2af C:\Nburn/lib/NetBurner.a(nbsiprintf.o)
 .debug_info    0x0008c545      0xfa1 C:\Nburn/lib/NetBurner.a(nbsprintf.o)
 .debug_info    0x0008d4e6       0x6e C:\Nburn/lib/NetBurner.a(weakumain.o)
 .debug_info    0x0008d554       0x6a C:\Nburn/lib/NetBurner.a(cusermain.o)
 .debug_info    0x0008d5be      0x277 C:\Nburn/lib/NetBurner.a(fdprintf.o)
 .debug_info    0x0008d835      0xb5e C:\Nburn/lib/NetBurner.a(websocket_handler.o)
 .debug_info    0x0008e393     0x15d1 C:\Nburn/lib/NetBurner.a(ipv6_addr.o)
 .debug_info    0x0008f964     0x53d0 C:\Nburn/lib/NetBurner.a(ipv6_tcp.o)
 .debug_info    0x00094d34     0xe5c6 C:\Nburn/lib/NetBurner.a(ipv6_ip.o)
 .debug_info    0x000a32fa     0x47ab C:\Nburn/lib/NetBurner.a(ipv6_udp.o)
 .debug_info    0x000a7aa5      0xaa9 C:\Nburn/lib/NetBurner.a(ipv6_printhelp.o)
 .debug_info    0x000a854e     0x407d C:\Nburn/lib/NetBurner.a(ipv6_extensions.o)
 .debug_info    0x000ac5cb     0x43a8 C:\Nburn/lib/NetBurner.a(ipv6_multicast.o)
 .debug_info    0x000b0973     0x43f6 C:\Nburn/lib/NetBurner.a(ipv6_show.o)
 .debug_info    0x000b4d69     0x7449 C:\Nburn/lib/NetBurner.a(ipv6_dhcp.o)
 .debug_info    0x000bc1b2     0x5152 C:\Nburn/lib/NetBurner.a(multicast.o)
 .debug_info    0x000c1304      0x946 C:\Nburn/lib/NetBurner.a(random.o)
 .debug_info    0x000c1c4a      0x5af C:\Nburn/lib/NetBurner.a(netrx.o)
 .debug_info    0x000c21f9      0xd2c C:\Nburn/lib/NetBurner.a(nbfloatprint.o)
 .debug_info    0x000c2f25      0x206 C:\Nburn/lib/NetBurner.a(fdiprintf.o)
 .debug_info    0x000c312b      0xae0 C:\Nburn/lib/NetBurner.a(md5c.o)
 .debug_info    0x000c3c0b      0x193 c:/nburn/gcc-m68k/bin/../m68k-unknown-elf/sysroot/lib/m54455\libstdc++.a(pure.o)
 .debug_info    0x000c3d9e      0xa4b c:/nburn/gcc-m68k/bin/../m68k-unknown-elf/sysroot/lib/m54455\libstdc++.a(eh_terminate.o)
 .debug_info    0x000c47e9      0x45a c:/nburn/gcc-m68k/bin/../m68k-unknown-elf/sysroot/lib/m54455\libstdc++.a(del_op.o)
 .debug_info    0x000c4c43       0xb6 c:/nburn/gcc-m68k/bin/../m68k-unknown-elf/sysroot/lib/m54455\libstdc++.a(del_ops.o)
 .debug_info    0x000c4cf9      0x119 c:/nburn/gcc-m68k/bin/../m68k-unknown-elf/sysroot/lib/m54455\libstdc++.a(eh_unex_handler.o)
 .debug_info    0x000c4e12      0x119 c:/nburn/gcc-m68k/bin/../m68k-unknown-elf/sysroot/lib/m54455\libstdc++.a(eh_term_handler.o)
 .debug_info    0x000c4f2b      0x8fa c:/nburn/gcc-m68k/bin/../m68k-unknown-elf/sysroot/lib/m54455\libstdc++.a(eh_catch.o)
 .debug_info    0x000c5825     0x16b6 c:/nburn/gcc-m68k/bin/../m68k-unknown-elf/sysroot/lib/m54455\libstdc++.a(eh_personality.o)
 .debug_info    0x000c6edb      0x50c c:/nburn/gcc-m68k/bin/../m68k-unknown-elf/sysroot/lib/m54455\libstdc++.a(eh_exception.o)
 .debug_info    0x000c73e7      0x6a4 c:/nburn/gcc-m68k/bin/../m68k-unknown-elf/sysroot/lib/m54455\libstdc++.a(eh_globals.o)
 .debug_info    0x000c7a8b     0x1132 c:/nburn/gcc-m68k/bin/../m68k-unknown-elf/sysroot/lib/m54455\libstdc++.a(vterminate.o)
 .debug_info    0x000c8bbd     0x1046 c:/nburn/gcc-m68k/bin/../m68k-unknown-elf/sysroot/lib/m54455\libstdc++.a(eh_alloc.o)
 .debug_info    0x000c9c03     0x4cd2 c:/nburn/gcc-m68k/bin/../m68k-unknown-elf/sysroot/lib/m54455\libstdc++.a(cp-demangle.o)
 .debug_info    0x000ce8d5      0x5bd c:/nburn/gcc-m68k/bin/../m68k-unknown-elf/sysroot/lib/m54455\libstdc++.a(eh_throw.o)
 .debug_info    0x000cee92      0x482 c:/nburn/gcc-m68k/bin/../m68k-unknown-elf/sysroot/lib/m54455\libstdc++.a(eh_type.o)
 .debug_info    0x000cf314      0x804 c:/nburn/gcc-m68k/bin/../m68k-unknown-elf/sysroot/lib/m54455\libstdc++.a(si_class_type_info.o)
 .debug_info    0x000cfb18      0x719 c:/nburn/gcc-m68k/bin/../m68k-unknown-elf/sysroot/lib/m54455\libstdc++.a(eh_call.o)
 .debug_info    0x000d0231      0xa0a c:/nburn/gcc-m68k/bin/../m68k-unknown-elf/sysroot/lib/m54455\libstdc++.a(class_type_info.o)
 .debug_info    0x000d0c3b      0x4ba c:/nburn/gcc-m68k/bin/../m68k-unknown-elf/sysroot/lib/m54455\libstdc++.a(tinfo.o)
 .debug_info    0x000d10f5     0x8cbe C:\Nburn/lib/NANO54415.a(ethernet.o)
 .debug_info    0x000d9db3     0x5b57 C:\Nburn/lib/NANO54415.a(etherprint.o)
 .debug_info    0x000df90a     0x4a93 C:\Nburn/lib/NANO54415.a(emulticast.o)
 .debug_info    0x000e439d     0x20cd C:\Nburn/lib/NANO54415.a(ether2nd.o)
 .debug_info    0x000e646a     0x5383 C:\Nburn/lib/NANO54415.a(etherswitch.o)
 .debug_info    0x000eb7ed       0x3c C:\Nburn/lib/NANO54415.a(weak_autoenet_var.o)
 .debug_info    0x000eb829     0x1945 C:\Nburn/lib/NetBurner.a(multiconfig.o)
 .debug_info    0x000ed16e      0x153 c:/nburn/gcc-m68k/bin/../m68k-unknown-elf/sysroot/lib/m54455\libm.a(lib_a-s_cos.o)
 .debug_info    0x000ed2c1      0x13c c:/nburn/gcc-m68k/bin/../m68k-unknown-elf/sysroot/lib/m54455\libm.a(lib_a-s_fpclassify.o)
 .debug_info    0x000ed3fd      0x21c c:/nburn/gcc-m68k/bin/../m68k-unknown-elf/sysroot/lib/m54455\libm.a(lib_a-s_modf.o)
 .debug_info    0x000ed619      0x1b6 c:/nburn/gcc-m68k/bin/../m68k-unknown-elf/sysroot/lib/m54455\libm.a(lib_a-s_round.o)
 .debug_info    0x000ed7cf      0x153 c:/nburn/gcc-m68k/bin/../m68k-unknown-elf/sysroot/lib/m54455\libm.a(lib_a-s_sin.o)
 .debug_info    0x000ed922      0x23a c:/nburn/gcc-m68k/bin/../m68k-unknown-elf/sysroot/lib/m54455\libm.a(lib_a-w_pow.o)
 .debug_info    0x000edb5c      0x1e9 c:/nburn/gcc-m68k/bin/../m68k-unknown-elf/sysroot/lib/m54455\libm.a(lib_a-wf_asin.o)
 .debug_info    0x000edd45       0xd2 c:/nburn/gcc-m68k/bin/../m68k-unknown-elf/sysroot/lib/m54455\libm.a(lib_a-wf_atan2.o)
 .debug_info    0x000ede17      0x1bf c:/nburn/gcc-m68k/bin/../m68k-unknown-elf/sysroot/lib/m54455\libm.a(lib_a-wf_sqrt.o)
 .debug_info    0x000edfd6      0xa1e c:/nburn/gcc-m68k/bin/../m68k-unknown-elf/sysroot/lib/m54455\libm.a(lib_a-e_pow.o)
 .debug_info    0x000ee9f4      0x483 c:/nburn/gcc-m68k/bin/../m68k-unknown-elf/sysroot/lib/m54455\libm.a(lib_a-e_rem_pio2.o)
 .debug_info    0x000eee77      0x223 c:/nburn/gcc-m68k/bin/../m68k-unknown-elf/sysroot/lib/m54455\libm.a(lib_a-e_sqrt.o)
 .debug_info    0x000ef09a      0x41c c:/nburn/gcc-m68k/bin/../m68k-unknown-elf/sysroot/lib/m54455\libm.a(lib_a-ef_asin.o)
 .debug_info    0x000ef4b6      0x242 c:/nburn/gcc-m68k/bin/../m68k-unknown-elf/sysroot/lib/m54455\libm.a(lib_a-ef_atan2.o)
 .debug_info    0x000ef6f8      0x1bb c:/nburn/gcc-m68k/bin/../m68k-unknown-elf/sysroot/lib/m54455\libm.a(lib_a-ef_sqrt.o)
 .debug_info    0x000ef8b3      0x2c1 c:/nburn/gcc-m68k/bin/../m68k-unknown-elf/sysroot/lib/m54455\libm.a(lib_a-k_cos.o)
 .debug_info    0x000efb74      0x354 c:/nburn/gcc-m68k/bin/../m68k-unknown-elf/sysroot/lib/m54455\libm.a(lib_a-k_rem_pio2.o)
 .debug_info    0x000efec8      0x201 c:/nburn/gcc-m68k/bin/../m68k-unknown-elf/sysroot/lib/m54455\libm.a(lib_a-k_sin.o)
 .debug_info    0x000f00c9      0x129 c:/nburn/gcc-m68k/bin/../m68k-unknown-elf/sysroot/lib/m54455\libm.a(lib_a-s_fabs.o)
 .debug_info    0x000f01f2       0xd1 c:/nburn/gcc-m68k/bin/../m68k-unknown-elf/sysroot/lib/m54455\libm.a(lib_a-s_finite.o)
 .debug_info    0x000f02c3      0x1a4 c:/nburn/gcc-m68k/bin/../m68k-unknown-elf/sysroot/lib/m54455\libm.a(lib_a-s_floor.o)
 .debug_info    0x000f0467       0xbe c:/nburn/gcc-m68k/bin/../m68k-unknown-elf/sysroot/lib/m54455\libm.a(lib_a-s_lib_ver.o)
 .debug_info    0x000f0525      0x124 c:/nburn/gcc-m68k/bin/../m68k-unknown-elf/sysroot/lib/m54455\libm.a(lib_a-s_matherr.o)
 .debug_info    0x000f0649       0xcd c:/nburn/gcc-m68k/bin/../m68k-unknown-elf/sysroot/lib/m54455\libm.a(lib_a-s_nan.o)
 .debug_info    0x000f0716      0x1e2 c:/nburn/gcc-m68k/bin/../m68k-unknown-elf/sysroot/lib/m54455\libm.a(lib_a-s_rint.o)
 .debug_info    0x000f08f8      0x236 c:/nburn/gcc-m68k/bin/../m68k-unknown-elf/sysroot/lib/m54455\libm.a(lib_a-s_scalbn.o)
 .debug_info    0x000f0b2e      0x2ee c:/nburn/gcc-m68k/bin/../m68k-unknown-elf/sysroot/lib/m54455\libm.a(lib_a-sf_atan.o)
 .debug_info    0x000f0e1c      0x106 c:/nburn/gcc-m68k/bin/../m68k-unknown-elf/sysroot/lib/m54455\libm.a(lib_a-sf_fabs.o)
 .debug_info    0x000f0f22       0xc4 c:/nburn/gcc-m68k/bin/../m68k-unknown-elf/sysroot/lib/m54455\libm.a(lib_a-sf_fpclassify.o)
 .debug_info    0x000f0fe6      0x142 c:/nburn/gcc-m68k/bin/../m68k-unknown-elf/sysroot/lib/m54455\libm.a(lib_a-s_copysign.o)
 .debug_info    0x000f1128       0xca c:/nburn/gcc-m68k/bin/../lib/gcc/m68k-unknown-elf/5.2.0/m54455\libgcc.a(_double.o)
 .debug_info    0x000f11f2       0xca c:/nburn/gcc-m68k/bin/../lib/gcc/m68k-unknown-elf/5.2.0/m54455\libgcc.a(_float.o)
 .debug_info    0x000f12bc       0xca c:/nburn/gcc-m68k/bin/../lib/gcc/m68k-unknown-elf/5.2.0/m54455\libgcc.a(_floatex.o)
 .debug_info    0x000f1386       0xca c:/nburn/gcc-m68k/bin/../lib/gcc/m68k-unknown-elf/5.2.0/m54455\libgcc.a(_eqdf2.o)
 .debug_info    0x000f1450       0xca c:/nburn/gcc-m68k/bin/../lib/gcc/m68k-unknown-elf/5.2.0/m54455\libgcc.a(_nedf2.o)
 .debug_info    0x000f151a       0xca c:/nburn/gcc-m68k/bin/../lib/gcc/m68k-unknown-elf/5.2.0/m54455\libgcc.a(_gtdf2.o)
 .debug_info    0x000f15e4       0xca c:/nburn/gcc-m68k/bin/../lib/gcc/m68k-unknown-elf/5.2.0/m54455\libgcc.a(_gedf2.o)
 .debug_info    0x000f16ae       0xca c:/nburn/gcc-m68k/bin/../lib/gcc/m68k-unknown-elf/5.2.0/m54455\libgcc.a(_ltdf2.o)
 .debug_info    0x000f1778       0xca c:/nburn/gcc-m68k/bin/../lib/gcc/m68k-unknown-elf/5.2.0/m54455\libgcc.a(_ledf2.o)
 .debug_info    0x000f1842       0xca c:/nburn/gcc-m68k/bin/../lib/gcc/m68k-unknown-elf/5.2.0/m54455\libgcc.a(_eqsf2.o)
 .debug_info    0x000f190c       0xca c:/nburn/gcc-m68k/bin/../lib/gcc/m68k-unknown-elf/5.2.0/m54455\libgcc.a(_gtsf2.o)
 .debug_info    0x000f19d6       0xca c:/nburn/gcc-m68k/bin/../lib/gcc/m68k-unknown-elf/5.2.0/m54455\libgcc.a(_ltsf2.o)
 .debug_info    0x000f1aa0      0x183 c:/nburn/gcc-m68k/bin/../lib/gcc/m68k-unknown-elf/5.2.0/m54455\libgcc.a(_muldi3.o)
 .debug_info    0x000f1c23       0xe2 c:/nburn/gcc-m68k/bin/../lib/gcc/m68k-unknown-elf/5.2.0/m54455\libgcc.a(_fixunsdfsi.o)
 .debug_info    0x000f1d05      0x129 c:/nburn/gcc-m68k/bin/../lib/gcc/m68k-unknown-elf/5.2.0/m54455\libgcc.a(_fixunsdfdi.o)
 .debug_info    0x000f1e2e      0x55f c:/nburn/gcc-m68k/bin/../lib/gcc/m68k-unknown-elf/5.2.0/m54455\libgcc.a(_udivdi3.o)
 .debug_info    0x000f238d      0x577 c:/nburn/gcc-m68k/bin/../lib/gcc/m68k-unknown-elf/5.2.0/m54455\libgcc.a(_umoddi3.o)
 .debug_info    0x000f2904      0x43f c:/nburn/gcc-m68k/bin/../lib/gcc/m68k-unknown-elf/5.2.0/m54455\libgcc.a(fpgnulib.o)
 .debug_info    0x000f2d43     0x376b c:/nburn/gcc-m68k/bin/../lib/gcc/m68k-unknown-elf/5.2.0/m54455\libgcc.a(unwind-dw2.o)
 .debug_info    0x000f64ae     0x1da6 c:/nburn/gcc-m68k/bin/../lib/gcc/m68k-unknown-elf/5.2.0/m54455\libgcc.a(unwind-dw2-fde.o)
 .debug_info    0x000f8254       0xbb c:/nburn/gcc-m68k/bin/../m68k-unknown-elf/sysroot/lib/m54455\libc.a(lib_a-abort.o)
 .debug_info    0x000f830f       0xe2 c:/nburn/gcc-m68k/bin/../m68k-unknown-elf/sysroot/lib/m54455\libc.a(lib_a-atexit.o)
 .debug_info    0x000f83f1      0x8f2 c:/nburn/gcc-m68k/bin/../m68k-unknown-elf/sysroot/lib/m54455\libc.a(lib_a-atoi.o)
 .debug_info    0x000f8ce3      0x15b c:/nburn/gcc-m68k/bin/../m68k-unknown-elf/sysroot/lib/m54455\libc.a(lib_a-bsearch.o)
 .debug_info    0x000f8e3e      0x108 c:/nburn/gcc-m68k/bin/../m68k-unknown-elf/sysroot/lib/m54455\libc.a(lib_a-cxa_atexit.o)
 .debug_info    0x000f8f46      0x897 c:/nburn/gcc-m68k/bin/../m68k-unknown-elf/sysroot/lib/m54455\libc.a(lib_a-errno.o)
 .debug_info    0x000f97dd      0x960 c:/nburn/gcc-m68k/bin/../m68k-unknown-elf/sysroot/lib/m54455\libc.a(lib_a-fputc.o)
 .debug_info    0x000fa13d      0xa01 c:/nburn/gcc-m68k/bin/../m68k-unknown-elf/sysroot/lib/m54455\libc.a(lib_a-fputs.o)
 .debug_info    0x000fab3e      0xaaa c:/nburn/gcc-m68k/bin/../m68k-unknown-elf/sysroot/lib/m54455\libc.a(lib_a-fvwrite.o)
 .debug_info    0x000fb5e8      0x8a2 c:/nburn/gcc-m68k/bin/../m68k-unknown-elf/sysroot/lib/m54455\libc.a(lib_a-impure.o)
 .debug_info    0x000fbe8a       0x6c c:/nburn/gcc-m68k/bin/../m68k-unknown-elf/sysroot/lib/m54455\libc.a(lib_a-isspace.o)
 .debug_info    0x000fbef6      0x8fb c:/nburn/gcc-m68k/bin/../m68k-unknown-elf/sysroot/lib/m54455\libc.a(lib_a-malloc.o)
 .debug_info    0x000fc7f1      0xc82 c:/nburn/gcc-m68k/bin/../m68k-unknown-elf/sysroot/lib/m54455\libc.a(lib_a-mallocr.o)
 .debug_info    0x000fd473       0xfa c:/nburn/gcc-m68k/bin/../m68k-unknown-elf/sysroot/lib/m54455\libc.a(lib_a-memchr.o)
 .debug_info    0x000fd56d       0xf2 c:/nburn/gcc-m68k/bin/../m68k-unknown-elf/sysroot/lib/m54455\libc.a(lib_a-memcmp.o)
 .debug_info    0x000fd65f      0x105 c:/nburn/gcc-m68k/bin/../m68k-unknown-elf/sysroot/lib/m54455\libc.a(lib_a-memmove.o)
 .debug_info    0x000fd764      0x9bc c:/nburn/gcc-m68k/bin/../m68k-unknown-elf/sysroot/lib/m54455\libc.a(lib_a-putc.o)
 .debug_info    0x000fe120      0x9dd c:/nburn/gcc-m68k/bin/../m68k-unknown-elf/sysroot/lib/m54455\libc.a(lib_a-puts.o)
 .debug_info    0x000feafd      0x8d4 c:/nburn/gcc-m68k/bin/../m68k-unknown-elf/sysroot/lib/m54455\libc.a(lib_a-rand.o)
 .debug_info    0x000ff3d1      0x8d0 c:/nburn/gcc-m68k/bin/../m68k-unknown-elf/sysroot/lib/m54455\libc.a(lib_a-realloc.o)
 .debug_info    0x000ffca1      0xc12 c:/nburn/gcc-m68k/bin/../m68k-unknown-elf/sysroot/lib/m54455\libc.a(lib_a-reallocr.o)
 .debug_info    0x001008b3      0x97e c:/nburn/gcc-m68k/bin/../m68k-unknown-elf/sysroot/lib/m54455\libc.a(lib_a-setvbuf.o)
 .debug_info    0x00101231      0xb23 c:/nburn/gcc-m68k/bin/../m68k-unknown-elf/sysroot/lib/m54455\libc.a(lib_a-signal.o)
 .debug_info    0x00101d54      0x93e c:/nburn/gcc-m68k/bin/../m68k-unknown-elf/sysroot/lib/m54455\libc.a(lib_a-signalr.o)
 .debug_info    0x00102692       0xd0 c:/nburn/gcc-m68k/bin/../m68k-unknown-elf/sysroot/lib/m54455\libc.a(lib_a-stpcpy.o)
 .debug_info    0x00102762       0xd9 c:/nburn/gcc-m68k/bin/../m68k-unknown-elf/sysroot/lib/m54455\libc.a(lib_a-strcat.o)
 .debug_info    0x0010283b       0xba c:/nburn/gcc-m68k/bin/../m68k-unknown-elf/sysroot/lib/m54455\libc.a(lib_a-strcmp.o)
 .debug_info    0x001028f5       0xdc c:/nburn/gcc-m68k/bin/../m68k-unknown-elf/sysroot/lib/m54455\libc.a(lib_a-strcpy.o)
 .debug_info    0x001029d1       0xd2 c:/nburn/gcc-m68k/bin/../m68k-unknown-elf/sysroot/lib/m54455\libc.a(lib_a-strlen.o)
 .debug_info    0x00102aa3       0xd2 c:/nburn/gcc-m68k/bin/../m68k-unknown-elf/sysroot/lib/m54455\libc.a(lib_a-strncmp.o)
 .debug_info    0x00102b75      0x106 c:/nburn/gcc-m68k/bin/../m68k-unknown-elf/sysroot/lib/m54455\libc.a(lib_a-strncpy.o)
 .debug_info    0x00102c7b       0xe3 c:/nburn/gcc-m68k/bin/../m68k-unknown-elf/sysroot/lib/m54455\libc.a(lib_a-strstr.o)
 .debug_info    0x00102d5e      0x9a5 c:/nburn/gcc-m68k/bin/../m68k-unknown-elf/sysroot/lib/m54455\libc.a(lib_a-strtol.o)
 .debug_info    0x00103703       0x6c c:/nburn/gcc-m68k/bin/../m68k-unknown-elf/sysroot/lib/m54455\libc.a(lib_a-tolower.o)
 .debug_info    0x0010376f       0x6c c:/nburn/gcc-m68k/bin/../m68k-unknown-elf/sysroot/lib/m54455\libc.a(lib_a-toupper.o)
 .debug_info    0x001037db      0x97c c:/nburn/gcc-m68k/bin/../m68k-unknown-elf/sysroot/lib/m54455\libc.a(lib_a-wbuf.o)
 .debug_info    0x00104157      0x917 c:/nburn/gcc-m68k/bin/../m68k-unknown-elf/sysroot/lib/m54455\libc.a(lib_a-wsetup.o)
 .debug_info    0x00104a6e      0x916 c:/nburn/gcc-m68k/bin/../m68k-unknown-elf/sysroot/lib/m54455\libc.a(lib_a-__atexit.o)
 .debug_info    0x00105384       0x6b c:/nburn/gcc-m68k/bin/../m68k-unknown-elf/sysroot/lib/m54455\libc.a(lib_a-ctype_.o)
 .debug_info    0x001053ef      0xa20 c:/nburn/gcc-m68k/bin/../m68k-unknown-elf/sysroot/lib/m54455\libc.a(lib_a-fflush.o)
 .debug_info    0x00105e0f      0xbe3 c:/nburn/gcc-m68k/bin/../m68k-unknown-elf/sysroot/lib/m54455\libc.a(lib_a-findfp.o)
 .debug_info    0x001069f2      0xb62 c:/nburn/gcc-m68k/bin/../m68k-unknown-elf/sysroot/lib/m54455\libc.a(lib_a-freer.o)
 .debug_info    0x00107554      0x99c c:/nburn/gcc-m68k/bin/../m68k-unknown-elf/sysroot/lib/m54455\libc.a(lib_a-fwalk.o)
 .debug_info    0x00107ef0      0xa93 c:/nburn/gcc-m68k/bin/../m68k-unknown-elf/sysroot/lib/m54455\libc.a(lib_a-makebuf.o)
 .debug_info    0x00108983      0xabb c:/nburn/gcc-m68k/bin/../m68k-unknown-elf/sysroot/lib/m54455\libc.a(lib_a-stdio.o)
 .debug_info    0x0010943e      0x8ff c:/nburn/gcc-m68k/bin/../m68k-unknown-elf/sysroot/lib/m54455\libc.a(lib_a-writer.o)
 .debug_info    0x00109d3d      0x8d1 c:/nburn/gcc-m68k/bin/../m68k-unknown-elf/sysroot/lib/m54455\libc.a(lib_a-closer.o)
 .debug_info    0x0010a60e      0x9e1 c:/nburn/gcc-m68k/bin/../m68k-unknown-elf/sysroot/lib/m54455\libc.a(lib_a-fclose.o)
 .debug_info    0x0010afef      0xa47 c:/nburn/gcc-m68k/bin/../m68k-unknown-elf/sysroot/lib/m54455\libc.a(lib_a-fstatr.o)
 .debug_info    0x0010ba36      0x8d1 c:/nburn/gcc-m68k/bin/../m68k-unknown-elf/sysroot/lib/m54455\libc.a(lib_a-isattyr.o)
 .debug_info    0x0010c307      0x8ed c:/nburn/gcc-m68k/bin/../m68k-unknown-elf/sysroot/lib/m54455\libc.a(lib_a-lseekr.o)
 .debug_info    0x0010cbf4      0x8f8 c:/nburn/gcc-m68k/bin/../m68k-unknown-elf/sysroot/lib/m54455\libc.a(lib_a-readr.o)

.debug_abbrev   0x00000000    0x20593
 *(.debug_abbrev)
 .debug_abbrev  0x00000000      0x4ff main.o
 .debug_abbrev  0x000004ff      0x26f Utility.o
 .debug_abbrev  0x0000076e      0x236 Nav.o
 .debug_abbrev  0x000009a4      0x436 Logger.o
 .debug_abbrev  0x00000dda      0x34c Drivers\servodrive.o
 .debug_abbrev  0x00001126      0x335 Drivers\pwm.o
 .debug_abbrev  0x0000145b      0x6e6 Drivers\introspec.o
 .debug_abbrev  0x00001b41      0x37a Drivers\dsm2.o
 .debug_abbrev  0x00001ebb      0x324 Drivers\SpinningLidar.o
 .debug_abbrev  0x000021df      0x2f6 Drivers\Odometer.o
 .debug_abbrev  0x000024d5       0xe3 Drivers\MadgwickFilter.o
 .debug_abbrev  0x000025b8      0x532 Drivers\MPU9250.o
 .debug_abbrev  0x00002aea      0x22b Drivers\LidarPWM.o
 .debug_abbrev  0x00002d15      0x283 Drivers\LCD.o
 .debug_abbrev  0x00002f98      0x491 Drivers\IMUSetupAndSample.o
 .debug_abbrev  0x00003429       0xfd htmldata.o
 .debug_abbrev  0x00003526      0x732 C:\Nburn/lib/NANO54415.a(serial.o)
 .debug_abbrev  0x00003c58      0x232 C:\Nburn/lib/NANO54415.a(pins.o)
 .debug_abbrev  0x00003e8a      0x478 C:\Nburn/lib/NANO54415.a(FlashOps.o)
 .debug_abbrev  0x00004302      0x5cd C:\Nburn/lib/NANO54415.a(HiResTimer.o)
 .debug_abbrev  0x000048cf      0x2cd C:\Nburn/lib/NANO54415.a(pin_irq.o)
 .debug_abbrev  0x00004b9c      0x447 C:\Nburn/lib/NANO54415.a(bsp.o)
 .debug_abbrev  0x00004fe3      0x2b0 C:\Nburn/lib/NANO54415.a(localio.o)
 .debug_abbrev  0x00005293      0x47d C:\Nburn/lib/NANO54415.a(multichanneli2c.o)
 .debug_abbrev  0x00005710      0x151 C:\Nburn/lib/NANO54415.a(defpins.o)
 .debug_abbrev  0x00005861      0x448 C:\Nburn/lib/NANO54415.a(SPIFlash.o)
 .debug_abbrev  0x00005ca9      0x570 C:\Nburn/lib/NANO54415.a(i2c_class.o)
 .debug_abbrev  0x00006219       0xd8 C:\Nburn/lib/NetBurner.a(main.o)
 .debug_abbrev  0x000062f1      0x24b C:\Nburn/lib/NetBurner.a(ucosmcfc.o)
 .debug_abbrev  0x0000653c      0x4b2 C:\Nburn/lib/NetBurner.a(ucos.o)
 .debug_abbrev  0x000069ee       0xed C:\Nburn/lib/NetBurner.a(cppmain.o)
 .debug_abbrev  0x00006adb      0x11f C:\Nburn/lib/NetBurner.a(debugtrap.o)
 .debug_abbrev  0x00006bfa      0x40f C:\Nburn/lib/NetBurner.a(ucosmain.o)
 .debug_abbrev  0x00007009      0x40a C:\Nburn/lib/NetBurner.a(fileio.o)
 .debug_abbrev  0x00007413      0x4aa C:\Nburn/lib/NetBurner.a(system.o)
 .debug_abbrev  0x000078bd      0x5d2 C:\Nburn/lib/NetBurner.a(utils.o)
 .debug_abbrev  0x00007e8f      0x70e C:\Nburn/lib/NetBurner.a(ip.o)
 .debug_abbrev  0x0000859d      0x592 C:\Nburn/lib/NetBurner.a(buffers.o)
 .debug_abbrev  0x00008b2f      0x7cf C:\Nburn/lib/NetBurner.a(arp.o)
 .debug_abbrev  0x000092fe      0x757 C:\Nburn/lib/NetBurner.a(udp.o)
 .debug_abbrev  0x00009a55      0x639 C:\Nburn/lib/NetBurner.a(ftpd.o)
 .debug_abbrev  0x0000a08e      0xa94 C:\Nburn/lib/NetBurner.a(tcp.o)
 .debug_abbrev  0x0000ab22      0x1d5 C:\Nburn/lib/NetBurner.a(extraio.o)
 .debug_abbrev  0x0000acf7      0x44d C:\Nburn/lib/NetBurner.a(http.o)
 .debug_abbrev  0x0000b144      0x497 C:\Nburn/lib/NetBurner.a(httpinternal.o)
 .debug_abbrev  0x0000b5db       0x82 C:\Nburn/lib/NetBurner.a(httpstricmp.o)
 .debug_abbrev  0x0000b65d      0x4c3 C:\Nburn/lib/NetBurner.a(htmldecomp.o)
 .debug_abbrev  0x0000bb20      0x573 C:\Nburn/lib/NetBurner.a(iosys.o)
 .debug_abbrev  0x0000c093      0x17b C:\Nburn/lib/NetBurner.a(new_ops.o)
 .debug_abbrev  0x0000c20e      0x567 C:\Nburn/lib/NetBurner.a(autoip.o)
 .debug_abbrev  0x0000c775      0x76c C:\Nburn/lib/NetBurner.a(dhcpc.o)
 .debug_abbrev  0x0000cee1      0x4f3 C:\Nburn/lib/NetBurner.a(netinterface.o)
 .debug_abbrev  0x0000d3d4      0x35f C:\Nburn/lib/NetBurner.a(taskmon.o)
 .debug_abbrev  0x0000d733      0x2e1 C:\Nburn/lib/NetBurner.a(smarttrap.o)
 .debug_abbrev  0x0000da14      0x47b C:\Nburn/lib/NetBurner.a(autoupdate.o)
 .debug_abbrev  0x0000de8f      0x227 C:\Nburn/lib/NetBurner.a(device.o)
 .debug_abbrev  0x0000e0b6      0x490 C:\Nburn/lib/NetBurner.a(nbiprintf.o)
 .debug_abbrev  0x0000e546      0x10b C:\Nburn/lib/NetBurner.a(nbprintf.o)
 .debug_abbrev  0x0000e651      0x149 C:\Nburn/lib/NetBurner.a(nbsiprintf.o)
 .debug_abbrev  0x0000e79a      0x2e6 C:\Nburn/lib/NetBurner.a(nbsprintf.o)
 .debug_abbrev  0x0000ea80       0x67 C:\Nburn/lib/NetBurner.a(weakumain.o)
 .debug_abbrev  0x0000eae7       0x64 C:\Nburn/lib/NetBurner.a(cusermain.o)
 .debug_abbrev  0x0000eb4b      0x11d C:\Nburn/lib/NetBurner.a(fdprintf.o)
 .debug_abbrev  0x0000ec68      0x1a6 C:\Nburn/lib/NetBurner.a(websocket_handler.o)
 .debug_abbrev  0x0000ee0e      0x4d0 C:\Nburn/lib/NetBurner.a(ipv6_addr.o)
 .debug_abbrev  0x0000f2de      0x69f C:\Nburn/lib/NetBurner.a(ipv6_tcp.o)
 .debug_abbrev  0x0000f97d      0xb6c C:\Nburn/lib/NetBurner.a(ipv6_ip.o)
 .debug_abbrev  0x000104e9      0x787 C:\Nburn/lib/NetBurner.a(ipv6_udp.o)
 .debug_abbrev  0x00010c70      0x20f C:\Nburn/lib/NetBurner.a(ipv6_printhelp.o)
 .debug_abbrev  0x00010e7f      0x5ab C:\Nburn/lib/NetBurner.a(ipv6_extensions.o)
 .debug_abbrev  0x0001142a      0x636 C:\Nburn/lib/NetBurner.a(ipv6_multicast.o)
 .debug_abbrev  0x00011a60      0x6e7 C:\Nburn/lib/NetBurner.a(ipv6_show.o)
 .debug_abbrev  0x00012147      0x981 C:\Nburn/lib/NetBurner.a(ipv6_dhcp.o)
 .debug_abbrev  0x00012ac8      0x839 C:\Nburn/lib/NetBurner.a(multicast.o)
 .debug_abbrev  0x00013301      0x2ed C:\Nburn/lib/NetBurner.a(random.o)
 .debug_abbrev  0x000135ee      0x20e C:\Nburn/lib/NetBurner.a(netrx.o)
 .debug_abbrev  0x000137fc      0x390 C:\Nburn/lib/NetBurner.a(nbfloatprint.o)
 .debug_abbrev  0x00013b8c       0xe7 C:\Nburn/lib/NetBurner.a(fdiprintf.o)
 .debug_abbrev  0x00013c73      0x363 C:\Nburn/lib/NetBurner.a(md5c.o)
 .debug_abbrev  0x00013fd6       0xe8 c:/nburn/gcc-m68k/bin/../m68k-unknown-elf/sysroot/lib/m54455\libstdc++.a(pure.o)
 .debug_abbrev  0x000140be      0x3f1 c:/nburn/gcc-m68k/bin/../m68k-unknown-elf/sysroot/lib/m54455\libstdc++.a(eh_terminate.o)
 .debug_abbrev  0x000144af      0x160 c:/nburn/gcc-m68k/bin/../m68k-unknown-elf/sysroot/lib/m54455\libstdc++.a(del_op.o)
 .debug_abbrev  0x0001460f       0xb6 c:/nburn/gcc-m68k/bin/../m68k-unknown-elf/sysroot/lib/m54455\libstdc++.a(del_ops.o)
 .debug_abbrev  0x000146c5       0xbb c:/nburn/gcc-m68k/bin/../m68k-unknown-elf/sysroot/lib/m54455\libstdc++.a(eh_unex_handler.o)
 .debug_abbrev  0x00014780       0xbb c:/nburn/gcc-m68k/bin/../m68k-unknown-elf/sysroot/lib/m54455\libstdc++.a(eh_term_handler.o)
 .debug_abbrev  0x0001483b      0x2ab c:/nburn/gcc-m68k/bin/../m68k-unknown-elf/sysroot/lib/m54455\libstdc++.a(eh_catch.o)
 .debug_abbrev  0x00014ae6      0x594 c:/nburn/gcc-m68k/bin/../m68k-unknown-elf/sysroot/lib/m54455\libstdc++.a(eh_personality.o)
 .debug_abbrev  0x0001507a      0x218 c:/nburn/gcc-m68k/bin/../m68k-unknown-elf/sysroot/lib/m54455\libstdc++.a(eh_exception.o)
 .debug_abbrev  0x00015292      0x1a5 c:/nburn/gcc-m68k/bin/../m68k-unknown-elf/sysroot/lib/m54455\libstdc++.a(eh_globals.o)
 .debug_abbrev  0x00015437      0x338 c:/nburn/gcc-m68k/bin/../m68k-unknown-elf/sysroot/lib/m54455\libstdc++.a(vterminate.o)
 .debug_abbrev  0x0001576f      0x4c4 c:/nburn/gcc-m68k/bin/../m68k-unknown-elf/sysroot/lib/m54455\libstdc++.a(eh_alloc.o)
 .debug_abbrev  0x00015c33      0x48c c:/nburn/gcc-m68k/bin/../m68k-unknown-elf/sysroot/lib/m54455\libstdc++.a(cp-demangle.o)
 .debug_abbrev  0x000160bf      0x261 c:/nburn/gcc-m68k/bin/../m68k-unknown-elf/sysroot/lib/m54455\libstdc++.a(eh_throw.o)
 .debug_abbrev  0x00016320      0x1c5 c:/nburn/gcc-m68k/bin/../m68k-unknown-elf/sysroot/lib/m54455\libstdc++.a(eh_type.o)
 .debug_abbrev  0x000164e5      0x3aa c:/nburn/gcc-m68k/bin/../m68k-unknown-elf/sysroot/lib/m54455\libstdc++.a(si_class_type_info.o)
 .debug_abbrev  0x0001688f      0x230 c:/nburn/gcc-m68k/bin/../m68k-unknown-elf/sysroot/lib/m54455\libstdc++.a(eh_call.o)
 .debug_abbrev  0x00016abf      0x44e c:/nburn/gcc-m68k/bin/../m68k-unknown-elf/sysroot/lib/m54455\libstdc++.a(class_type_info.o)
 .debug_abbrev  0x00016f0d      0x27a c:/nburn/gcc-m68k/bin/../m68k-unknown-elf/sysroot/lib/m54455\libstdc++.a(tinfo.o)
 .debug_abbrev  0x00017187      0x7a3 C:\Nburn/lib/NANO54415.a(ethernet.o)
 .debug_abbrev  0x0001792a      0x39e C:\Nburn/lib/NANO54415.a(etherprint.o)
 .debug_abbrev  0x00017cc8      0x34b C:\Nburn/lib/NANO54415.a(emulticast.o)
 .debug_abbrev  0x00018013      0x474 C:\Nburn/lib/NANO54415.a(ether2nd.o)
 .debug_abbrev  0x00018487      0x433 C:\Nburn/lib/NANO54415.a(etherswitch.o)
 .debug_abbrev  0x000188ba       0x33 C:\Nburn/lib/NANO54415.a(weak_autoenet_var.o)
 .debug_abbrev  0x000188ed      0x37b C:\Nburn/lib/NetBurner.a(multiconfig.o)
 .debug_abbrev  0x00018c68       0xbb c:/nburn/gcc-m68k/bin/../m68k-unknown-elf/sysroot/lib/m54455\libm.a(lib_a-s_cos.o)
 .debug_abbrev  0x00018d23       0xc6 c:/nburn/gcc-m68k/bin/../m68k-unknown-elf/sysroot/lib/m54455\libm.a(lib_a-s_fpclassify.o)
 .debug_abbrev  0x00018de9      0x120 c:/nburn/gcc-m68k/bin/../m68k-unknown-elf/sysroot/lib/m54455\libm.a(lib_a-s_modf.o)
 .debug_abbrev  0x00018f09       0xe9 c:/nburn/gcc-m68k/bin/../m68k-unknown-elf/sysroot/lib/m54455\libm.a(lib_a-s_round.o)
 .debug_abbrev  0x00018ff2       0xbb c:/nburn/gcc-m68k/bin/../m68k-unknown-elf/sysroot/lib/m54455\libm.a(lib_a-s_sin.o)
 .debug_abbrev  0x000190ad      0x12c c:/nburn/gcc-m68k/bin/../m68k-unknown-elf/sysroot/lib/m54455\libm.a(lib_a-w_pow.o)
 .debug_abbrev  0x000191d9      0x119 c:/nburn/gcc-m68k/bin/../m68k-unknown-elf/sysroot/lib/m54455\libm.a(lib_a-wf_asin.o)
 .debug_abbrev  0x000192f2       0x72 c:/nburn/gcc-m68k/bin/../m68k-unknown-elf/sysroot/lib/m54455\libm.a(lib_a-wf_atan2.o)
 .debug_abbrev  0x00019364      0x108 c:/nburn/gcc-m68k/bin/../m68k-unknown-elf/sysroot/lib/m54455\libm.a(lib_a-wf_sqrt.o)
 .debug_abbrev  0x0001946c      0x1c7 c:/nburn/gcc-m68k/bin/../m68k-unknown-elf/sysroot/lib/m54455\libm.a(lib_a-e_pow.o)
 .debug_abbrev  0x00019633      0x159 c:/nburn/gcc-m68k/bin/../m68k-unknown-elf/sysroot/lib/m54455\libm.a(lib_a-e_rem_pio2.o)
 .debug_abbrev  0x0001978c      0x105 c:/nburn/gcc-m68k/bin/../m68k-unknown-elf/sysroot/lib/m54455\libm.a(lib_a-e_sqrt.o)
 .debug_abbrev  0x00019891      0x122 c:/nburn/gcc-m68k/bin/../m68k-unknown-elf/sysroot/lib/m54455\libm.a(lib_a-ef_asin.o)
 .debug_abbrev  0x000199b3      0x115 c:/nburn/gcc-m68k/bin/../m68k-unknown-elf/sysroot/lib/m54455\libm.a(lib_a-ef_atan2.o)
 .debug_abbrev  0x00019ac8       0xda c:/nburn/gcc-m68k/bin/../m68k-unknown-elf/sysroot/lib/m54455\libm.a(lib_a-ef_sqrt.o)
 .debug_abbrev  0x00019ba2       0xec c:/nburn/gcc-m68k/bin/../m68k-unknown-elf/sysroot/lib/m54455\libm.a(lib_a-k_cos.o)
 .debug_abbrev  0x00019c8e      0x12f c:/nburn/gcc-m68k/bin/../m68k-unknown-elf/sysroot/lib/m54455\libm.a(lib_a-k_rem_pio2.o)
 .debug_abbrev  0x00019dbd       0xad c:/nburn/gcc-m68k/bin/../m68k-unknown-elf/sysroot/lib/m54455\libm.a(lib_a-k_sin.o)
 .debug_abbrev  0x00019e6a       0xc4 c:/nburn/gcc-m68k/bin/../m68k-unknown-elf/sysroot/lib/m54455\libm.a(lib_a-s_fabs.o)
 .debug_abbrev  0x00019f2e       0x6d c:/nburn/gcc-m68k/bin/../m68k-unknown-elf/sysroot/lib/m54455\libm.a(lib_a-s_finite.o)
 .debug_abbrev  0x00019f9b       0xe9 c:/nburn/gcc-m68k/bin/../m68k-unknown-elf/sysroot/lib/m54455\libm.a(lib_a-s_floor.o)
 .debug_abbrev  0x0001a084       0x58 c:/nburn/gcc-m68k/bin/../m68k-unknown-elf/sysroot/lib/m54455\libm.a(lib_a-s_lib_ver.o)
 .debug_abbrev  0x0001a0dc       0x98 c:/nburn/gcc-m68k/bin/../m68k-unknown-elf/sysroot/lib/m54455\libm.a(lib_a-s_matherr.o)
 .debug_abbrev  0x0001a174       0x70 c:/nburn/gcc-m68k/bin/../m68k-unknown-elf/sysroot/lib/m54455\libm.a(lib_a-s_nan.o)
 .debug_abbrev  0x0001a1e4      0x10f c:/nburn/gcc-m68k/bin/../m68k-unknown-elf/sysroot/lib/m54455\libm.a(lib_a-s_rint.o)
 .debug_abbrev  0x0001a2f3      0x129 c:/nburn/gcc-m68k/bin/../m68k-unknown-elf/sysroot/lib/m54455\libm.a(lib_a-s_scalbn.o)
 .debug_abbrev  0x0001a41c      0x11e c:/nburn/gcc-m68k/bin/../m68k-unknown-elf/sysroot/lib/m54455\libm.a(lib_a-sf_atan.o)
 .debug_abbrev  0x0001a53a       0xa8 c:/nburn/gcc-m68k/bin/../m68k-unknown-elf/sysroot/lib/m54455\libm.a(lib_a-sf_fabs.o)
 .debug_abbrev  0x0001a5e2       0x6d c:/nburn/gcc-m68k/bin/../m68k-unknown-elf/sysroot/lib/m54455\libm.a(lib_a-sf_fpclassify.o)
 .debug_abbrev  0x0001a64f       0xd3 c:/nburn/gcc-m68k/bin/../m68k-unknown-elf/sysroot/lib/m54455\libm.a(lib_a-s_copysign.o)
 .debug_abbrev  0x0001a722       0x14 c:/nburn/gcc-m68k/bin/../lib/gcc/m68k-unknown-elf/5.2.0/m54455\libgcc.a(_double.o)
 .debug_abbrev  0x0001a736       0x14 c:/nburn/gcc-m68k/bin/../lib/gcc/m68k-unknown-elf/5.2.0/m54455\libgcc.a(_float.o)
 .debug_abbrev  0x0001a74a       0x14 c:/nburn/gcc-m68k/bin/../lib/gcc/m68k-unknown-elf/5.2.0/m54455\libgcc.a(_floatex.o)
 .debug_abbrev  0x0001a75e       0x14 c:/nburn/gcc-m68k/bin/../lib/gcc/m68k-unknown-elf/5.2.0/m54455\libgcc.a(_eqdf2.o)
 .debug_abbrev  0x0001a772       0x14 c:/nburn/gcc-m68k/bin/../lib/gcc/m68k-unknown-elf/5.2.0/m54455\libgcc.a(_nedf2.o)
 .debug_abbrev  0x0001a786       0x14 c:/nburn/gcc-m68k/bin/../lib/gcc/m68k-unknown-elf/5.2.0/m54455\libgcc.a(_gtdf2.o)
 .debug_abbrev  0x0001a79a       0x14 c:/nburn/gcc-m68k/bin/../lib/gcc/m68k-unknown-elf/5.2.0/m54455\libgcc.a(_gedf2.o)
 .debug_abbrev  0x0001a7ae       0x14 c:/nburn/gcc-m68k/bin/../lib/gcc/m68k-unknown-elf/5.2.0/m54455\libgcc.a(_ltdf2.o)
 .debug_abbrev  0x0001a7c2       0x14 c:/nburn/gcc-m68k/bin/../lib/gcc/m68k-unknown-elf/5.2.0/m54455\libgcc.a(_ledf2.o)
 .debug_abbrev  0x0001a7d6       0x14 c:/nburn/gcc-m68k/bin/../lib/gcc/m68k-unknown-elf/5.2.0/m54455\libgcc.a(_eqsf2.o)
 .debug_abbrev  0x0001a7ea       0x14 c:/nburn/gcc-m68k/bin/../lib/gcc/m68k-unknown-elf/5.2.0/m54455\libgcc.a(_gtsf2.o)
 .debug_abbrev  0x0001a7fe       0x14 c:/nburn/gcc-m68k/bin/../lib/gcc/m68k-unknown-elf/5.2.0/m54455\libgcc.a(_ltsf2.o)
 .debug_abbrev  0x0001a812       0xd3 c:/nburn/gcc-m68k/bin/../lib/gcc/m68k-unknown-elf/5.2.0/m54455\libgcc.a(_muldi3.o)
 .debug_abbrev  0x0001a8e5       0x60 c:/nburn/gcc-m68k/bin/../lib/gcc/m68k-unknown-elf/5.2.0/m54455\libgcc.a(_fixunsdfsi.o)
 .debug_abbrev  0x0001a945       0x84 c:/nburn/gcc-m68k/bin/../lib/gcc/m68k-unknown-elf/5.2.0/m54455\libgcc.a(_fixunsdfdi.o)
 .debug_abbrev  0x0001a9c9      0x14b c:/nburn/gcc-m68k/bin/../lib/gcc/m68k-unknown-elf/5.2.0/m54455\libgcc.a(_udivdi3.o)
 .debug_abbrev  0x0001ab14      0x165 c:/nburn/gcc-m68k/bin/../lib/gcc/m68k-unknown-elf/5.2.0/m54455\libgcc.a(_umoddi3.o)
 .debug_abbrev  0x0001ac79      0x1d6 c:/nburn/gcc-m68k/bin/../lib/gcc/m68k-unknown-elf/5.2.0/m54455\libgcc.a(fpgnulib.o)
 .debug_abbrev  0x0001ae4f      0x5f1 c:/nburn/gcc-m68k/bin/../lib/gcc/m68k-unknown-elf/5.2.0/m54455\libgcc.a(unwind-dw2.o)
 .debug_abbrev  0x0001b440      0x4f9 c:/nburn/gcc-m68k/bin/../lib/gcc/m68k-unknown-elf/5.2.0/m54455\libgcc.a(unwind-dw2-fde.o)
 .debug_abbrev  0x0001b939       0x61 c:/nburn/gcc-m68k/bin/../m68k-unknown-elf/sysroot/lib/m54455\libc.a(lib_a-abort.o)
 .debug_abbrev  0x0001b99a       0x99 c:/nburn/gcc-m68k/bin/../m68k-unknown-elf/sysroot/lib/m54455\libc.a(lib_a-atexit.o)
 .debug_abbrev  0x0001ba33      0x1a9 c:/nburn/gcc-m68k/bin/../m68k-unknown-elf/sysroot/lib/m54455\libc.a(lib_a-atoi.o)
 .debug_abbrev  0x0001bbdc       0xaf c:/nburn/gcc-m68k/bin/../m68k-unknown-elf/sysroot/lib/m54455\libc.a(lib_a-bsearch.o)
 .debug_abbrev  0x0001bc8b       0xa9 c:/nburn/gcc-m68k/bin/../m68k-unknown-elf/sysroot/lib/m54455\libc.a(lib_a-cxa_atexit.o)
 .debug_abbrev  0x0001bd34      0x18d c:/nburn/gcc-m68k/bin/../m68k-unknown-elf/sysroot/lib/m54455\libc.a(lib_a-errno.o)
 .debug_abbrev  0x0001bec1      0x22b c:/nburn/gcc-m68k/bin/../m68k-unknown-elf/sysroot/lib/m54455\libc.a(lib_a-fputc.o)
 .debug_abbrev  0x0001c0ec      0x218 c:/nburn/gcc-m68k/bin/../m68k-unknown-elf/sysroot/lib/m54455\libc.a(lib_a-fputs.o)
 .debug_abbrev  0x0001c304      0x201 c:/nburn/gcc-m68k/bin/../m68k-unknown-elf/sysroot/lib/m54455\libc.a(lib_a-fvwrite.o)
 .debug_abbrev  0x0001c505      0x17e c:/nburn/gcc-m68k/bin/../m68k-unknown-elf/sysroot/lib/m54455\libc.a(lib_a-impure.o)
 .debug_abbrev  0x0001c683       0x74 c:/nburn/gcc-m68k/bin/../m68k-unknown-elf/sysroot/lib/m54455\libc.a(lib_a-isspace.o)
 .debug_abbrev  0x0001c6f7      0x1d4 c:/nburn/gcc-m68k/bin/../m68k-unknown-elf/sysroot/lib/m54455\libc.a(lib_a-malloc.o)
 .debug_abbrev  0x0001c8cb      0x26d c:/nburn/gcc-m68k/bin/../m68k-unknown-elf/sysroot/lib/m54455\libc.a(lib_a-mallocr.o)
 .debug_abbrev  0x0001cb38       0xb8 c:/nburn/gcc-m68k/bin/../m68k-unknown-elf/sysroot/lib/m54455\libc.a(lib_a-memchr.o)
 .debug_abbrev  0x0001cbf0       0x8c c:/nburn/gcc-m68k/bin/../m68k-unknown-elf/sysroot/lib/m54455\libc.a(lib_a-memcmp.o)
 .debug_abbrev  0x0001cc7c       0x9a c:/nburn/gcc-m68k/bin/../m68k-unknown-elf/sysroot/lib/m54455\libc.a(lib_a-memmove.o)
 .debug_abbrev  0x0001cd16      0x25e c:/nburn/gcc-m68k/bin/../m68k-unknown-elf/sysroot/lib/m54455\libc.a(lib_a-putc.o)
 .debug_abbrev  0x0001cf74      0x208 c:/nburn/gcc-m68k/bin/../m68k-unknown-elf/sysroot/lib/m54455\libc.a(lib_a-puts.o)
 .debug_abbrev  0x0001d17c      0x1d4 c:/nburn/gcc-m68k/bin/../m68k-unknown-elf/sysroot/lib/m54455\libc.a(lib_a-rand.o)
 .debug_abbrev  0x0001d350      0x1c9 c:/nburn/gcc-m68k/bin/../m68k-unknown-elf/sysroot/lib/m54455\libc.a(lib_a-realloc.o)
 .debug_abbrev  0x0001d519      0x248 c:/nburn/gcc-m68k/bin/../m68k-unknown-elf/sysroot/lib/m54455\libc.a(lib_a-reallocr.o)
 .debug_abbrev  0x0001d761      0x23a c:/nburn/gcc-m68k/bin/../m68k-unknown-elf/sysroot/lib/m54455\libc.a(lib_a-setvbuf.o)
 .debug_abbrev  0x0001d99b      0x291 c:/nburn/gcc-m68k/bin/../m68k-unknown-elf/sysroot/lib/m54455\libc.a(lib_a-signal.o)
 .debug_abbrev  0x0001dc2c      0x203 c:/nburn/gcc-m68k/bin/../m68k-unknown-elf/sysroot/lib/m54455\libc.a(lib_a-signalr.o)
 .debug_abbrev  0x0001de2f       0x6a c:/nburn/gcc-m68k/bin/../m68k-unknown-elf/sysroot/lib/m54455\libc.a(lib_a-stpcpy.o)
 .debug_abbrev  0x0001de99       0x79 c:/nburn/gcc-m68k/bin/../m68k-unknown-elf/sysroot/lib/m54455\libc.a(lib_a-strcat.o)
 .debug_abbrev  0x0001df12       0x61 c:/nburn/gcc-m68k/bin/../m68k-unknown-elf/sysroot/lib/m54455\libc.a(lib_a-strcmp.o)
 .debug_abbrev  0x0001df73       0x7f c:/nburn/gcc-m68k/bin/../m68k-unknown-elf/sysroot/lib/m54455\libc.a(lib_a-strcpy.o)
 .debug_abbrev  0x0001dff2       0x7d c:/nburn/gcc-m68k/bin/../m68k-unknown-elf/sysroot/lib/m54455\libc.a(lib_a-strlen.o)
 .debug_abbrev  0x0001e06f       0x6e c:/nburn/gcc-m68k/bin/../m68k-unknown-elf/sysroot/lib/m54455\libc.a(lib_a-strncmp.o)
 .debug_abbrev  0x0001e0dd       0x95 c:/nburn/gcc-m68k/bin/../m68k-unknown-elf/sysroot/lib/m54455\libc.a(lib_a-strncpy.o)
 .debug_abbrev  0x0001e172       0x95 c:/nburn/gcc-m68k/bin/../m68k-unknown-elf/sysroot/lib/m54455\libc.a(lib_a-strstr.o)
 .debug_abbrev  0x0001e207      0x1fd c:/nburn/gcc-m68k/bin/../m68k-unknown-elf/sysroot/lib/m54455\libc.a(lib_a-strtol.o)
 .debug_abbrev  0x0001e404       0x74 c:/nburn/gcc-m68k/bin/../m68k-unknown-elf/sysroot/lib/m54455\libc.a(lib_a-tolower.o)
 .debug_abbrev  0x0001e478       0x74 c:/nburn/gcc-m68k/bin/../m68k-unknown-elf/sysroot/lib/m54455\libc.a(lib_a-toupper.o)
 .debug_abbrev  0x0001e4ec      0x21f c:/nburn/gcc-m68k/bin/../m68k-unknown-elf/sysroot/lib/m54455\libc.a(lib_a-wbuf.o)
 .debug_abbrev  0x0001e70b      0x1d2 c:/nburn/gcc-m68k/bin/../m68k-unknown-elf/sysroot/lib/m54455\libc.a(lib_a-wsetup.o)
 .debug_abbrev  0x0001e8dd      0x1f4 c:/nburn/gcc-m68k/bin/../m68k-unknown-elf/sysroot/lib/m54455\libc.a(lib_a-__atexit.o)
 .debug_abbrev  0x0001ead1       0x4c c:/nburn/gcc-m68k/bin/../m68k-unknown-elf/sysroot/lib/m54455\libc.a(lib_a-ctype_.o)
 .debug_abbrev  0x0001eb1d      0x25b c:/nburn/gcc-m68k/bin/../m68k-unknown-elf/sysroot/lib/m54455\libc.a(lib_a-fflush.o)
 .debug_abbrev  0x0001ed78      0x314 c:/nburn/gcc-m68k/bin/../m68k-unknown-elf/sysroot/lib/m54455\libc.a(lib_a-findfp.o)
 .debug_abbrev  0x0001f08c      0x242 c:/nburn/gcc-m68k/bin/../m68k-unknown-elf/sysroot/lib/m54455\libc.a(lib_a-freer.o)
 .debug_abbrev  0x0001f2ce      0x1b7 c:/nburn/gcc-m68k/bin/../m68k-unknown-elf/sysroot/lib/m54455\libc.a(lib_a-fwalk.o)
 .debug_abbrev  0x0001f485      0x1d4 c:/nburn/gcc-m68k/bin/../m68k-unknown-elf/sysroot/lib/m54455\libc.a(lib_a-makebuf.o)
 .debug_abbrev  0x0001f659      0x200 c:/nburn/gcc-m68k/bin/../m68k-unknown-elf/sysroot/lib/m54455\libc.a(lib_a-stdio.o)
 .debug_abbrev  0x0001f859      0x1ce c:/nburn/gcc-m68k/bin/../m68k-unknown-elf/sysroot/lib/m54455\libc.a(lib_a-writer.o)
 .debug_abbrev  0x0001fa27      0x1c9 c:/nburn/gcc-m68k/bin/../m68k-unknown-elf/sysroot/lib/m54455\libc.a(lib_a-closer.o)
 .debug_abbrev  0x0001fbf0      0x261 c:/nburn/gcc-m68k/bin/../m68k-unknown-elf/sysroot/lib/m54455\libc.a(lib_a-fclose.o)
 .debug_abbrev  0x0001fe51      0x1d8 c:/nburn/gcc-m68k/bin/../m68k-unknown-elf/sysroot/lib/m54455\libc.a(lib_a-fstatr.o)
 .debug_abbrev  0x00020029      0x1c9 c:/nburn/gcc-m68k/bin/../m68k-unknown-elf/sysroot/lib/m54455\libc.a(lib_a-isattyr.o)
 .debug_abbrev  0x000201f2      0x1d8 c:/nburn/gcc-m68k/bin/../m68k-unknown-elf/sysroot/lib/m54455\libc.a(lib_a-lseekr.o)
 .debug_abbrev  0x000203ca      0x1c9 c:/nburn/gcc-m68k/bin/../m68k-unknown-elf/sysroot/lib/m54455\libc.a(lib_a-readr.o)

.debug_line     0x00000000    0x2b8a5
 *(.debug_line)
 .debug_line    0x00000000      0x307 main.o
 .debug_line    0x00000307      0x1a6 Utility.o
 .debug_line    0x000004ad      0x150 Nav.o
 .debug_line    0x000005fd      0x204 Logger.o
 .debug_line    0x00000801      0x231 Drivers\servodrive.o
 .debug_line    0x00000a32      0x3f9 Drivers\pwm.o
 .debug_line    0x00000e2b      0x60f Drivers\introspec.o
 .debug_line    0x0000143a      0x14c Drivers\dsm2.o
 .debug_line    0x00001586      0x2f5 Drivers\SpinningLidar.o
 .debug_line    0x0000187b      0x136 Drivers\Odometer.o
 .debug_line    0x000019b1       0xed Drivers\MadgwickFilter.o
 .debug_line    0x00001a9e      0xe48 Drivers\MPU9250.o
 .debug_line    0x000028e6      0x145 Drivers\LidarPWM.o
 .debug_line    0x00002a2b      0x119 Drivers\LCD.o
 .debug_line    0x00002b44      0x3c6 Drivers\IMUSetupAndSample.o
 .debug_line    0x00002f0a       0x7d htmldata.o
 .debug_line    0x00002f87      0xbd4 C:\Nburn/lib/NANO54415.a(serial.o)
 .debug_line    0x00003b5b      0xb01 C:\Nburn/lib/NANO54415.a(pins.o)
 .debug_line    0x0000465c      0x2b8 C:\Nburn/lib/NANO54415.a(FlashOps.o)
 .debug_line    0x00004914      0x4f0 C:\Nburn/lib/NANO54415.a(HiResTimer.o)
 .debug_line    0x00004e04      0x19a C:\Nburn/lib/NANO54415.a(pin_irq.o)
 .debug_line    0x00004f9e      0x350 C:\Nburn/lib/NANO54415.a(bsp.o)
 .debug_line    0x000052ee      0x19a C:\Nburn/lib/NANO54415.a(localio.o)
 .debug_line    0x00005488      0x40f C:\Nburn/lib/NANO54415.a(multichanneli2c.o)
 .debug_line    0x00005897       0x89 C:\Nburn/lib/NANO54415.a(defpins.o)
 .debug_line    0x00005920      0x979 C:\Nburn/lib/NANO54415.a(SPIFlash.o)
 .debug_line    0x00006299      0x7d2 C:\Nburn/lib/NANO54415.a(i2c_class.o)
 .debug_line    0x00006a6b       0x51 C:\Nburn/lib/NetBurner.a(main.o)
 .debug_line    0x00006abc      0x18c C:\Nburn/lib/NetBurner.a(ucosmcfc.o)
 .debug_line    0x00006c48      0xa6c C:\Nburn/lib/NetBurner.a(ucos.o)
 .debug_line    0x000076b4       0x7a C:\Nburn/lib/NetBurner.a(cppmain.o)
 .debug_line    0x0000772e      0x1e1 C:\Nburn/lib/NetBurner.a(debugtrap.o)
 .debug_line    0x0000790f      0x2ad C:\Nburn/lib/NetBurner.a(ucosmain.o)
 .debug_line    0x00007bbc      0x3a1 C:\Nburn/lib/NetBurner.a(fileio.o)
 .debug_line    0x00007f5d      0x368 C:\Nburn/lib/NetBurner.a(system.o)
 .debug_line    0x000082c5      0x75e C:\Nburn/lib/NetBurner.a(utils.o)
 .debug_line    0x00008a23      0xa47 C:\Nburn/lib/NetBurner.a(ip.o)
 .debug_line    0x0000946a      0x774 C:\Nburn/lib/NetBurner.a(buffers.o)
 .debug_line    0x00009bde      0xdba C:\Nburn/lib/NetBurner.a(arp.o)
 .debug_line    0x0000a998      0xca3 C:\Nburn/lib/NetBurner.a(udp.o)
 .debug_line    0x0000b63b      0xa08 C:\Nburn/lib/NetBurner.a(ftpd.o)
 .debug_line    0x0000c043     0x3834 C:\Nburn/lib/NetBurner.a(tcp.o)
 .debug_line    0x0000f877      0x1db C:\Nburn/lib/NetBurner.a(extraio.o)
 .debug_line    0x0000fa52      0x30c C:\Nburn/lib/NetBurner.a(http.o)
 .debug_line    0x0000fd5e      0x734 C:\Nburn/lib/NetBurner.a(httpinternal.o)
 .debug_line    0x00010492       0x8f C:\Nburn/lib/NetBurner.a(httpstricmp.o)
 .debug_line    0x00010521      0x3fd C:\Nburn/lib/NetBurner.a(htmldecomp.o)
 .debug_line    0x0001091e      0x513 C:\Nburn/lib/NetBurner.a(iosys.o)
 .debug_line    0x00010e31      0x16b C:\Nburn/lib/NetBurner.a(new_ops.o)
 .debug_line    0x00010f9c      0x4fc C:\Nburn/lib/NetBurner.a(autoip.o)
 .debug_line    0x00011498     0x124e C:\Nburn/lib/NetBurner.a(dhcpc.o)
 .debug_line    0x000126e6      0x3fd C:\Nburn/lib/NetBurner.a(netinterface.o)
 .debug_line    0x00012ae3      0x22b C:\Nburn/lib/NetBurner.a(taskmon.o)
 .debug_line    0x00012d0e      0x482 C:\Nburn/lib/NetBurner.a(smarttrap.o)
 .debug_line    0x00013190      0x2af C:\Nburn/lib/NetBurner.a(autoupdate.o)
 .debug_line    0x0001343f       0xbe C:\Nburn/lib/NetBurner.a(device.o)
 .debug_line    0x000134fd      0xc19 C:\Nburn/lib/NetBurner.a(nbiprintf.o)
 .debug_line    0x00014116       0x79 C:\Nburn/lib/NetBurner.a(nbprintf.o)
 .debug_line    0x0001418f       0xbf C:\Nburn/lib/NetBurner.a(nbsiprintf.o)
 .debug_line    0x0001424e      0x22f C:\Nburn/lib/NetBurner.a(nbsprintf.o)
 .debug_line    0x0001447d       0x3f C:\Nburn/lib/NetBurner.a(weakumain.o)
 .debug_line    0x000144bc       0x3d C:\Nburn/lib/NetBurner.a(cusermain.o)
 .debug_line    0x000144f9       0x94 C:\Nburn/lib/NetBurner.a(fdprintf.o)
 .debug_line    0x0001458d       0xaa C:\Nburn/lib/NetBurner.a(websocket_handler.o)
 .debug_line    0x00014637      0x590 C:\Nburn/lib/NetBurner.a(ipv6_addr.o)
 .debug_line    0x00014bc7      0x4b0 C:\Nburn/lib/NetBurner.a(ipv6_tcp.o)
 .debug_line    0x00015077     0x3512 C:\Nburn/lib/NetBurner.a(ipv6_ip.o)
 .debug_line    0x00018589      0x531 C:\Nburn/lib/NetBurner.a(ipv6_udp.o)
 .debug_line    0x00018aba       0xcf C:\Nburn/lib/NetBurner.a(ipv6_printhelp.o)
 .debug_line    0x00018b89      0x2f5 C:\Nburn/lib/NetBurner.a(ipv6_extensions.o)
 .debug_line    0x00018e7e      0x33c C:\Nburn/lib/NetBurner.a(ipv6_multicast.o)
 .debug_line    0x000191ba      0x301 C:\Nburn/lib/NetBurner.a(ipv6_show.o)
 .debug_line    0x000194bb     0x1167 C:\Nburn/lib/NetBurner.a(ipv6_dhcp.o)
 .debug_line    0x0001a622      0x6e4 C:\Nburn/lib/NetBurner.a(multicast.o)
 .debug_line    0x0001ad06      0x184 C:\Nburn/lib/NetBurner.a(random.o)
 .debug_line    0x0001ae8a      0x16c C:\Nburn/lib/NetBurner.a(netrx.o)
 .debug_line    0x0001aff6      0x663 C:\Nburn/lib/NetBurner.a(nbfloatprint.o)
 .debug_line    0x0001b659       0xae C:\Nburn/lib/NetBurner.a(fdiprintf.o)
 .debug_line    0x0001b707      0x5c9 C:\Nburn/lib/NetBurner.a(md5c.o)
 .debug_line    0x0001bcd0      0x211 c:/nburn/gcc-m68k/bin/../m68k-unknown-elf/sysroot/lib/m54455\libstdc++.a(pure.o)
 .debug_line    0x0001bee1      0x3b1 c:/nburn/gcc-m68k/bin/../m68k-unknown-elf/sysroot/lib/m54455\libstdc++.a(eh_terminate.o)
 .debug_line    0x0001c292      0x24e c:/nburn/gcc-m68k/bin/../m68k-unknown-elf/sysroot/lib/m54455\libstdc++.a(del_op.o)
 .debug_line    0x0001c4e0      0x120 c:/nburn/gcc-m68k/bin/../m68k-unknown-elf/sysroot/lib/m54455\libstdc++.a(del_ops.o)
 .debug_line    0x0001c600      0x19f c:/nburn/gcc-m68k/bin/../m68k-unknown-elf/sysroot/lib/m54455\libstdc++.a(eh_unex_handler.o)
 .debug_line    0x0001c79f      0x19f c:/nburn/gcc-m68k/bin/../m68k-unknown-elf/sysroot/lib/m54455\libstdc++.a(eh_term_handler.o)
 .debug_line    0x0001c93e      0x301 c:/nburn/gcc-m68k/bin/../m68k-unknown-elf/sysroot/lib/m54455\libstdc++.a(eh_catch.o)
 .debug_line    0x0001cc3f      0x5da c:/nburn/gcc-m68k/bin/../m68k-unknown-elf/sysroot/lib/m54455\libstdc++.a(eh_personality.o)
 .debug_line    0x0001d219      0x250 c:/nburn/gcc-m68k/bin/../m68k-unknown-elf/sysroot/lib/m54455\libstdc++.a(eh_exception.o)
 .debug_line    0x0001d469      0x288 c:/nburn/gcc-m68k/bin/../m68k-unknown-elf/sysroot/lib/m54455\libstdc++.a(eh_globals.o)
 .debug_line    0x0001d6f1      0x31b c:/nburn/gcc-m68k/bin/../m68k-unknown-elf/sysroot/lib/m54455\libstdc++.a(vterminate.o)
 .debug_line    0x0001da0c      0x411 c:/nburn/gcc-m68k/bin/../m68k-unknown-elf/sysroot/lib/m54455\libstdc++.a(eh_alloc.o)
 .debug_line    0x0001de1d      0xfa4 c:/nburn/gcc-m68k/bin/../m68k-unknown-elf/sysroot/lib/m54455\libstdc++.a(cp-demangle.o)
 .debug_line    0x0001edc1      0x28b c:/nburn/gcc-m68k/bin/../m68k-unknown-elf/sysroot/lib/m54455\libstdc++.a(eh_throw.o)
 .debug_line    0x0001f04c      0x1b8 c:/nburn/gcc-m68k/bin/../m68k-unknown-elf/sysroot/lib/m54455\libstdc++.a(eh_type.o)
 .debug_line    0x0001f204      0x23c c:/nburn/gcc-m68k/bin/../m68k-unknown-elf/sysroot/lib/m54455\libstdc++.a(si_class_type_info.o)
 .debug_line    0x0001f440      0x288 c:/nburn/gcc-m68k/bin/../m68k-unknown-elf/sysroot/lib/m54455\libstdc++.a(eh_call.o)
 .debug_line    0x0001f6c8      0x282 c:/nburn/gcc-m68k/bin/../m68k-unknown-elf/sysroot/lib/m54455\libstdc++.a(class_type_info.o)
 .debug_line    0x0001f94a      0x18a c:/nburn/gcc-m68k/bin/../m68k-unknown-elf/sysroot/lib/m54455\libstdc++.a(tinfo.o)
 .debug_line    0x0001fad4     0x1100 C:\Nburn/lib/NANO54415.a(ethernet.o)
 .debug_line    0x00020bd4      0x2f4 C:\Nburn/lib/NANO54415.a(etherprint.o)
 .debug_line    0x00020ec8      0x1a2 C:\Nburn/lib/NANO54415.a(emulticast.o)
 .debug_line    0x0002106a      0x1d3 C:\Nburn/lib/NANO54415.a(ether2nd.o)
 .debug_line    0x0002123d      0x399 C:\Nburn/lib/NANO54415.a(etherswitch.o)
 .debug_line    0x000215d6       0x36 C:\Nburn/lib/NANO54415.a(weak_autoenet_var.o)
 .debug_line    0x0002160c      0x185 C:\Nburn/lib/NetBurner.a(multiconfig.o)
 .debug_line    0x00021791      0x17b c:/nburn/gcc-m68k/bin/../m68k-unknown-elf/sysroot/lib/m54455\libm.a(lib_a-s_cos.o)
 .debug_line    0x0002190c      0x144 c:/nburn/gcc-m68k/bin/../m68k-unknown-elf/sysroot/lib/m54455\libm.a(lib_a-s_fpclassify.o)
 .debug_line    0x00021a50      0x13d c:/nburn/gcc-m68k/bin/../m68k-unknown-elf/sysroot/lib/m54455\libm.a(lib_a-s_modf.o)
 .debug_line    0x00021b8d      0x150 c:/nburn/gcc-m68k/bin/../m68k-unknown-elf/sysroot/lib/m54455\libm.a(lib_a-s_round.o)
 .debug_line    0x00021cdd      0x17c c:/nburn/gcc-m68k/bin/../m68k-unknown-elf/sysroot/lib/m54455\libm.a(lib_a-s_sin.o)
 .debug_line    0x00021e59      0x22a c:/nburn/gcc-m68k/bin/../m68k-unknown-elf/sysroot/lib/m54455\libm.a(lib_a-w_pow.o)
 .debug_line    0x00022083      0x174 c:/nburn/gcc-m68k/bin/../m68k-unknown-elf/sysroot/lib/m54455\libm.a(lib_a-wf_asin.o)
 .debug_line    0x000221f7      0x10a c:/nburn/gcc-m68k/bin/../m68k-unknown-elf/sysroot/lib/m54455\libm.a(lib_a-wf_atan2.o)
 .debug_line    0x00022301      0x174 c:/nburn/gcc-m68k/bin/../m68k-unknown-elf/sysroot/lib/m54455\libm.a(lib_a-wf_sqrt.o)
 .debug_line    0x00022475      0x32f c:/nburn/gcc-m68k/bin/../m68k-unknown-elf/sysroot/lib/m54455\libm.a(lib_a-e_pow.o)
 .debug_line    0x000227a4      0x20b c:/nburn/gcc-m68k/bin/../m68k-unknown-elf/sysroot/lib/m54455\libm.a(lib_a-e_rem_pio2.o)
 .debug_line    0x000229af      0x1b4 c:/nburn/gcc-m68k/bin/../m68k-unknown-elf/sysroot/lib/m54455\libm.a(lib_a-e_sqrt.o)
 .debug_line    0x00022b63      0x1a0 c:/nburn/gcc-m68k/bin/../m68k-unknown-elf/sysroot/lib/m54455\libm.a(lib_a-ef_asin.o)
 .debug_line    0x00022d03      0x1d1 c:/nburn/gcc-m68k/bin/../m68k-unknown-elf/sysroot/lib/m54455\libm.a(lib_a-ef_atan2.o)
 .debug_line    0x00022ed4      0x15f c:/nburn/gcc-m68k/bin/../m68k-unknown-elf/sysroot/lib/m54455\libm.a(lib_a-ef_sqrt.o)
 .debug_line    0x00023033      0x134 c:/nburn/gcc-m68k/bin/../m68k-unknown-elf/sysroot/lib/m54455\libm.a(lib_a-k_cos.o)
 .debug_line    0x00023167      0x356 c:/nburn/gcc-m68k/bin/../m68k-unknown-elf/sysroot/lib/m54455\libm.a(lib_a-k_rem_pio2.o)
 .debug_line    0x000234bd       0xe5 c:/nburn/gcc-m68k/bin/../m68k-unknown-elf/sysroot/lib/m54455\libm.a(lib_a-k_sin.o)
 .debug_line    0x000235a2      0x164 c:/nburn/gcc-m68k/bin/../m68k-unknown-elf/sysroot/lib/m54455\libm.a(lib_a-s_fabs.o)
 .debug_line    0x00023706      0x117 c:/nburn/gcc-m68k/bin/../m68k-unknown-elf/sysroot/lib/m54455\libm.a(lib_a-s_finite.o)
 .debug_line    0x0002381d      0x1a4 c:/nburn/gcc-m68k/bin/../m68k-unknown-elf/sysroot/lib/m54455\libm.a(lib_a-s_floor.o)
 .debug_line    0x000239c1       0xad c:/nburn/gcc-m68k/bin/../m68k-unknown-elf/sysroot/lib/m54455\libm.a(lib_a-s_lib_ver.o)
 .debug_line    0x00023a6e       0xc0 c:/nburn/gcc-m68k/bin/../m68k-unknown-elf/sysroot/lib/m54455\libm.a(lib_a-s_matherr.o)
 .debug_line    0x00023b2e       0xc1 c:/nburn/gcc-m68k/bin/../m68k-unknown-elf/sysroot/lib/m54455\libm.a(lib_a-s_nan.o)
 .debug_line    0x00023bef      0x163 c:/nburn/gcc-m68k/bin/../m68k-unknown-elf/sysroot/lib/m54455\libm.a(lib_a-s_rint.o)
 .debug_line    0x00023d52      0x158 c:/nburn/gcc-m68k/bin/../m68k-unknown-elf/sysroot/lib/m54455\libm.a(lib_a-s_scalbn.o)
 .debug_line    0x00023eaa      0x1a9 c:/nburn/gcc-m68k/bin/../m68k-unknown-elf/sysroot/lib/m54455\libm.a(lib_a-sf_atan.o)
 .debug_line    0x00024053      0x163 c:/nburn/gcc-m68k/bin/../m68k-unknown-elf/sysroot/lib/m54455\libm.a(lib_a-sf_fabs.o)
 .debug_line    0x000241b6      0x122 c:/nburn/gcc-m68k/bin/../m68k-unknown-elf/sysroot/lib/m54455\libm.a(lib_a-sf_fpclassify.o)
 .debug_line    0x000242d8      0x128 c:/nburn/gcc-m68k/bin/../m68k-unknown-elf/sysroot/lib/m54455\libm.a(lib_a-s_copysign.o)
 .debug_line    0x00024400      0x461 c:/nburn/gcc-m68k/bin/../lib/gcc/m68k-unknown-elf/5.2.0/m54455\libgcc.a(_double.o)
 .debug_line    0x00024861      0x2f9 c:/nburn/gcc-m68k/bin/../lib/gcc/m68k-unknown-elf/5.2.0/m54455\libgcc.a(_float.o)
 .debug_line    0x00024b5a       0x8f c:/nburn/gcc-m68k/bin/../lib/gcc/m68k-unknown-elf/5.2.0/m54455\libgcc.a(_floatex.o)
 .debug_line    0x00024be9       0x7a c:/nburn/gcc-m68k/bin/../lib/gcc/m68k-unknown-elf/5.2.0/m54455\libgcc.a(_eqdf2.o)
 .debug_line    0x00024c63       0x7a c:/nburn/gcc-m68k/bin/../lib/gcc/m68k-unknown-elf/5.2.0/m54455\libgcc.a(_nedf2.o)
 .debug_line    0x00024cdd       0x7a c:/nburn/gcc-m68k/bin/../lib/gcc/m68k-unknown-elf/5.2.0/m54455\libgcc.a(_gtdf2.o)
 .debug_line    0x00024d57       0x7a c:/nburn/gcc-m68k/bin/../lib/gcc/m68k-unknown-elf/5.2.0/m54455\libgcc.a(_gedf2.o)
 .debug_line    0x00024dd1       0x7a c:/nburn/gcc-m68k/bin/../lib/gcc/m68k-unknown-elf/5.2.0/m54455\libgcc.a(_ltdf2.o)
 .debug_line    0x00024e4b       0x7a c:/nburn/gcc-m68k/bin/../lib/gcc/m68k-unknown-elf/5.2.0/m54455\libgcc.a(_ledf2.o)
 .debug_line    0x00024ec5       0x78 c:/nburn/gcc-m68k/bin/../lib/gcc/m68k-unknown-elf/5.2.0/m54455\libgcc.a(_eqsf2.o)
 .debug_line    0x00024f3d       0x78 c:/nburn/gcc-m68k/bin/../lib/gcc/m68k-unknown-elf/5.2.0/m54455\libgcc.a(_gtsf2.o)
 .debug_line    0x00024fb5       0x78 c:/nburn/gcc-m68k/bin/../lib/gcc/m68k-unknown-elf/5.2.0/m54455\libgcc.a(_ltsf2.o)
 .debug_line    0x0002502d       0x7c c:/nburn/gcc-m68k/bin/../lib/gcc/m68k-unknown-elf/5.2.0/m54455\libgcc.a(_muldi3.o)
 .debug_line    0x000250a9       0x7f c:/nburn/gcc-m68k/bin/../lib/gcc/m68k-unknown-elf/5.2.0/m54455\libgcc.a(_fixunsdfsi.o)
 .debug_line    0x00025128       0x7f c:/nburn/gcc-m68k/bin/../lib/gcc/m68k-unknown-elf/5.2.0/m54455\libgcc.a(_fixunsdfdi.o)
 .debug_line    0x000251a7      0x112 c:/nburn/gcc-m68k/bin/../lib/gcc/m68k-unknown-elf/5.2.0/m54455\libgcc.a(_udivdi3.o)
 .debug_line    0x000252b9      0x114 c:/nburn/gcc-m68k/bin/../lib/gcc/m68k-unknown-elf/5.2.0/m54455\libgcc.a(_umoddi3.o)
 .debug_line    0x000253cd      0x1c0 c:/nburn/gcc-m68k/bin/../lib/gcc/m68k-unknown-elf/5.2.0/m54455\libgcc.a(fpgnulib.o)
 .debug_line    0x0002558d      0xdc7 c:/nburn/gcc-m68k/bin/../lib/gcc/m68k-unknown-elf/5.2.0/m54455\libgcc.a(unwind-dw2.o)
 .debug_line    0x00026354      0x756 c:/nburn/gcc-m68k/bin/../lib/gcc/m68k-unknown-elf/5.2.0/m54455\libgcc.a(unwind-dw2-fde.o)
 .debug_line    0x00026aaa      0x114 c:/nburn/gcc-m68k/bin/../m68k-unknown-elf/sysroot/lib/m54455\libc.a(lib_a-abort.o)
 .debug_line    0x00026bbe       0xc9 c:/nburn/gcc-m68k/bin/../m68k-unknown-elf/sysroot/lib/m54455\libc.a(lib_a-atexit.o)
 .debug_line    0x00026c87      0x186 c:/nburn/gcc-m68k/bin/../m68k-unknown-elf/sysroot/lib/m54455\libc.a(lib_a-atoi.o)
 .debug_line    0x00026e0d      0x13a c:/nburn/gcc-m68k/bin/../m68k-unknown-elf/sysroot/lib/m54455\libc.a(lib_a-bsearch.o)
 .debug_line    0x00026f47       0x87 c:/nburn/gcc-m68k/bin/../m68k-unknown-elf/sysroot/lib/m54455\libc.a(lib_a-cxa_atexit.o)
 .debug_line    0x00026fce      0x144 c:/nburn/gcc-m68k/bin/../m68k-unknown-elf/sysroot/lib/m54455\libc.a(lib_a-errno.o)
 .debug_line    0x00027112      0x1a3 c:/nburn/gcc-m68k/bin/../m68k-unknown-elf/sysroot/lib/m54455\libc.a(lib_a-fputc.o)
 .debug_line    0x000272b5      0x1d9 c:/nburn/gcc-m68k/bin/../m68k-unknown-elf/sysroot/lib/m54455\libc.a(lib_a-fputs.o)
 .debug_line    0x0002748e      0x2ac c:/nburn/gcc-m68k/bin/../m68k-unknown-elf/sysroot/lib/m54455\libc.a(lib_a-fvwrite.o)
 .debug_line    0x0002773a      0x12a c:/nburn/gcc-m68k/bin/../m68k-unknown-elf/sysroot/lib/m54455\libc.a(lib_a-impure.o)
 .debug_line    0x00027864       0xc0 c:/nburn/gcc-m68k/bin/../m68k-unknown-elf/sysroot/lib/m54455\libc.a(lib_a-isspace.o)
 .debug_line    0x00027924      0x188 c:/nburn/gcc-m68k/bin/../m68k-unknown-elf/sysroot/lib/m54455\libc.a(lib_a-malloc.o)
 .debug_line    0x00027aac      0x2ff c:/nburn/gcc-m68k/bin/../m68k-unknown-elf/sysroot/lib/m54455\libc.a(lib_a-mallocr.o)
 .debug_line    0x00027dab      0x129 c:/nburn/gcc-m68k/bin/../m68k-unknown-elf/sysroot/lib/m54455\libc.a(lib_a-memchr.o)
 .debug_line    0x00027ed4      0x12a c:/nburn/gcc-m68k/bin/../m68k-unknown-elf/sysroot/lib/m54455\libc.a(lib_a-memcmp.o)
 .debug_line    0x00027ffe      0x133 c:/nburn/gcc-m68k/bin/../m68k-unknown-elf/sysroot/lib/m54455\libc.a(lib_a-memmove.o)
 .debug_line    0x00028131      0x1cb c:/nburn/gcc-m68k/bin/../m68k-unknown-elf/sysroot/lib/m54455\libc.a(lib_a-putc.o)
 .debug_line    0x000282fc      0x1d2 c:/nburn/gcc-m68k/bin/../m68k-unknown-elf/sysroot/lib/m54455\libc.a(lib_a-puts.o)
 .debug_line    0x000284ce      0x18b c:/nburn/gcc-m68k/bin/../m68k-unknown-elf/sysroot/lib/m54455\libc.a(lib_a-rand.o)
 .debug_line    0x00028659      0x185 c:/nburn/gcc-m68k/bin/../m68k-unknown-elf/sysroot/lib/m54455\libc.a(lib_a-realloc.o)
 .debug_line    0x000287de      0x27b c:/nburn/gcc-m68k/bin/../m68k-unknown-elf/sysroot/lib/m54455\libc.a(lib_a-reallocr.o)
 .debug_line    0x00028a59      0x1fa c:/nburn/gcc-m68k/bin/../m68k-unknown-elf/sysroot/lib/m54455\libc.a(lib_a-setvbuf.o)
 .debug_line    0x00028c53      0x207 c:/nburn/gcc-m68k/bin/../m68k-unknown-elf/sysroot/lib/m54455\libc.a(lib_a-signal.o)
 .debug_line    0x00028e5a      0x19e c:/nburn/gcc-m68k/bin/../m68k-unknown-elf/sysroot/lib/m54455\libc.a(lib_a-signalr.o)
 .debug_line    0x00028ff8       0xc5 c:/nburn/gcc-m68k/bin/../m68k-unknown-elf/sysroot/lib/m54455\libc.a(lib_a-stpcpy.o)
 .debug_line    0x000290bd       0xc5 c:/nburn/gcc-m68k/bin/../m68k-unknown-elf/sysroot/lib/m54455\libc.a(lib_a-strcat.o)
 .debug_line    0x00029182       0xcc c:/nburn/gcc-m68k/bin/../m68k-unknown-elf/sysroot/lib/m54455\libc.a(lib_a-strcmp.o)
 .debug_line    0x0002924e       0xc8 c:/nburn/gcc-m68k/bin/../m68k-unknown-elf/sysroot/lib/m54455\libc.a(lib_a-strcpy.o)
 .debug_line    0x00029316      0x12f c:/nburn/gcc-m68k/bin/../m68k-unknown-elf/sysroot/lib/m54455\libc.a(lib_a-strlen.o)
 .debug_line    0x00029445      0x136 c:/nburn/gcc-m68k/bin/../m68k-unknown-elf/sysroot/lib/m54455\libc.a(lib_a-strncmp.o)
 .debug_line    0x0002957b      0x12e c:/nburn/gcc-m68k/bin/../m68k-unknown-elf/sysroot/lib/m54455\libc.a(lib_a-strncpy.o)
 .debug_line    0x000296a9      0x12f c:/nburn/gcc-m68k/bin/../m68k-unknown-elf/sysroot/lib/m54455\libc.a(lib_a-strstr.o)
 .debug_line    0x000297d8      0x219 c:/nburn/gcc-m68k/bin/../m68k-unknown-elf/sysroot/lib/m54455\libc.a(lib_a-strtol.o)
 .debug_line    0x000299f1       0xcf c:/nburn/gcc-m68k/bin/../m68k-unknown-elf/sysroot/lib/m54455\libc.a(lib_a-tolower.o)
 .debug_line    0x00029ac0       0xcf c:/nburn/gcc-m68k/bin/../m68k-unknown-elf/sysroot/lib/m54455\libc.a(lib_a-toupper.o)
 .debug_line    0x00029b8f      0x1dc c:/nburn/gcc-m68k/bin/../m68k-unknown-elf/sysroot/lib/m54455\libc.a(lib_a-wbuf.o)
 .debug_line    0x00029d6b      0x1ec c:/nburn/gcc-m68k/bin/../m68k-unknown-elf/sysroot/lib/m54455\libc.a(lib_a-wsetup.o)
 .debug_line    0x00029f57      0x16a c:/nburn/gcc-m68k/bin/../m68k-unknown-elf/sysroot/lib/m54455\libc.a(lib_a-__atexit.o)
 .debug_line    0x0002a0c1       0x64 c:/nburn/gcc-m68k/bin/../m68k-unknown-elf/sysroot/lib/m54455\libc.a(lib_a-ctype_.o)
 .debug_line    0x0002a125      0x246 c:/nburn/gcc-m68k/bin/../m68k-unknown-elf/sysroot/lib/m54455\libc.a(lib_a-fflush.o)
 .debug_line    0x0002a36b      0x24f c:/nburn/gcc-m68k/bin/../m68k-unknown-elf/sysroot/lib/m54455\libc.a(lib_a-findfp.o)
 .debug_line    0x0002a5ba      0x1fe c:/nburn/gcc-m68k/bin/../m68k-unknown-elf/sysroot/lib/m54455\libc.a(lib_a-freer.o)
 .debug_line    0x0002a7b8      0x1d6 c:/nburn/gcc-m68k/bin/../m68k-unknown-elf/sysroot/lib/m54455\libc.a(lib_a-fwalk.o)
 .debug_line    0x0002a98e      0x1f9 c:/nburn/gcc-m68k/bin/../m68k-unknown-elf/sysroot/lib/m54455\libc.a(lib_a-makebuf.o)
 .debug_line    0x0002ab87      0x1c6 c:/nburn/gcc-m68k/bin/../m68k-unknown-elf/sysroot/lib/m54455\libc.a(lib_a-stdio.o)
 .debug_line    0x0002ad4d      0x198 c:/nburn/gcc-m68k/bin/../m68k-unknown-elf/sysroot/lib/m54455\libc.a(lib_a-writer.o)
 .debug_line    0x0002aee5      0x198 c:/nburn/gcc-m68k/bin/../m68k-unknown-elf/sysroot/lib/m54455\libc.a(lib_a-closer.o)
 .debug_line    0x0002b07d      0x1bf c:/nburn/gcc-m68k/bin/../m68k-unknown-elf/sysroot/lib/m54455\libc.a(lib_a-fclose.o)
 .debug_line    0x0002b23c      0x1a1 c:/nburn/gcc-m68k/bin/../m68k-unknown-elf/sysroot/lib/m54455\libc.a(lib_a-fstatr.o)
 .debug_line    0x0002b3dd      0x199 c:/nburn/gcc-m68k/bin/../m68k-unknown-elf/sysroot/lib/m54455\libc.a(lib_a-isattyr.o)
 .debug_line    0x0002b576      0x198 c:/nburn/gcc-m68k/bin/../m68k-unknown-elf/sysroot/lib/m54455\libc.a(lib_a-lseekr.o)
 .debug_line    0x0002b70e      0x197 c:/nburn/gcc-m68k/bin/../m68k-unknown-elf/sysroot/lib/m54455\libc.a(lib_a-readr.o)

.debug_frame    0x00000000     0xbde0
 *(.debug_frame)
 .debug_frame   0x00000000       0xc4 main.o
 .debug_frame   0x000000c4       0xd4 Utility.o
 .debug_frame   0x00000198       0xe8 Nav.o
 .debug_frame   0x00000280       0xd8 Logger.o
 .debug_frame   0x00000358      0x150 Drivers\servodrive.o
 .debug_frame   0x000004a8       0xf4 Drivers\pwm.o
 .debug_frame   0x0000059c      0x414 Drivers\introspec.o
 .debug_frame   0x000009b0       0x50 Drivers\dsm2.o
 .debug_frame   0x00000a00      0x174 Drivers\SpinningLidar.o
 .debug_frame   0x00000b74       0xc0 Drivers\Odometer.o
 .debug_frame   0x00000c34       0x40 Drivers\MadgwickFilter.o
 .debug_frame   0x00000c74      0x380 Drivers\MPU9250.o
 .debug_frame   0x00000ff4       0xb0 Drivers\LidarPWM.o
 .debug_frame   0x000010a4       0xe0 Drivers\LCD.o
 .debug_frame   0x00001184      0x144 Drivers\IMUSetupAndSample.o
 .debug_frame   0x000012c8       0x44 htmldata.o
 .debug_frame   0x0000130c      0x544 C:\Nburn/lib/NANO54415.a(serial.o)
 .debug_frame   0x00001850       0xb8 C:\Nburn/lib/NANO54415.a(pins.o)
 .debug_frame   0x00001908      0x114 C:\Nburn/lib/NANO54415.a(FlashOps.o)
 .debug_frame   0x00001a1c      0x2a0 C:\Nburn/lib/NANO54415.a(HiResTimer.o)
 .debug_frame   0x00001cbc       0xc8 C:\Nburn/lib/NANO54415.a(pin_irq.o)
 .debug_frame   0x00001d84      0x198 C:\Nburn/lib/NANO54415.a(bsp.o)
 .debug_frame   0x00001f1c       0x90 C:\Nburn/lib/NANO54415.a(localio.o)
 .debug_frame   0x00001fac      0x1ac C:\Nburn/lib/NANO54415.a(multichanneli2c.o)
 .debug_frame   0x00002158       0x30 C:\Nburn/lib/NANO54415.a(defpins.o)
 .debug_frame   0x00002188      0x294 C:\Nburn/lib/NANO54415.a(SPIFlash.o)
 .debug_frame   0x0000241c      0x320 C:\Nburn/lib/NANO54415.a(i2c_class.o)
 .debug_frame   0x0000273c       0x48 C:\Nburn/lib/NetBurner.a(main.o)
 .debug_frame   0x00002784       0xa0 C:\Nburn/lib/NetBurner.a(ucosmcfc.o)
 .debug_frame   0x00002824      0x4e4 C:\Nburn/lib/NetBurner.a(ucos.o)
 .debug_frame   0x00002d08       0x2c C:\Nburn/lib/NetBurner.a(cppmain.o)
 .debug_frame   0x00002d34       0x98 C:\Nburn/lib/NetBurner.a(debugtrap.o)
 .debug_frame   0x00002dcc      0x114 C:\Nburn/lib/NetBurner.a(ucosmain.o)
 .debug_frame   0x00002ee0      0x1d4 C:\Nburn/lib/NetBurner.a(fileio.o)
 .debug_frame   0x000030b4      0x130 C:\Nburn/lib/NetBurner.a(system.o)
 .debug_frame   0x000031e4      0x318 C:\Nburn/lib/NetBurner.a(utils.o)
 .debug_frame   0x000034fc      0x34c C:\Nburn/lib/NetBurner.a(ip.o)
 .debug_frame   0x00003848      0x394 C:\Nburn/lib/NetBurner.a(buffers.o)
 .debug_frame   0x00003bdc      0x3dc C:\Nburn/lib/NetBurner.a(arp.o)
 .debug_frame   0x00003fb8      0x570 C:\Nburn/lib/NetBurner.a(udp.o)
 .debug_frame   0x00004528      0x548 C:\Nburn/lib/NetBurner.a(ftpd.o)
 .debug_frame   0x00004a70     0x1038 C:\Nburn/lib/NetBurner.a(tcp.o)
 .debug_frame   0x00005aa8      0x144 C:\Nburn/lib/NetBurner.a(extraio.o)
 .debug_frame   0x00005bec       0x9c C:\Nburn/lib/NetBurner.a(http.o)
 .debug_frame   0x00005c88      0x37c C:\Nburn/lib/NetBurner.a(httpinternal.o)
 .debug_frame   0x00006004       0x34 C:\Nburn/lib/NetBurner.a(httpstricmp.o)
 .debug_frame   0x00006038      0x194 C:\Nburn/lib/NetBurner.a(htmldecomp.o)
 .debug_frame   0x000061cc      0x2ec C:\Nburn/lib/NetBurner.a(iosys.o)
 .debug_frame   0x000064b8       0x2c C:\Nburn/lib/NetBurner.a(new_ops.o)
 .debug_frame   0x000064e4      0x214 C:\Nburn/lib/NetBurner.a(autoip.o)
 .debug_frame   0x000066f8      0x528 C:\Nburn/lib/NetBurner.a(dhcpc.o)
 .debug_frame   0x00006c20      0x234 C:\Nburn/lib/NetBurner.a(netinterface.o)
 .debug_frame   0x00006e54       0x8c C:\Nburn/lib/NetBurner.a(taskmon.o)
 .debug_frame   0x00006ee0      0x114 C:\Nburn/lib/NetBurner.a(smarttrap.o)
 .debug_frame   0x00006ff4       0xc4 C:\Nburn/lib/NetBurner.a(autoupdate.o)
 .debug_frame   0x000070b8       0x7c C:\Nburn/lib/NetBurner.a(device.o)
 .debug_frame   0x00007134      0x24c C:\Nburn/lib/NetBurner.a(nbiprintf.o)
 .debug_frame   0x00007380       0x2c C:\Nburn/lib/NetBurner.a(nbprintf.o)
 .debug_frame   0x000073ac       0x64 C:\Nburn/lib/NetBurner.a(nbsiprintf.o)
 .debug_frame   0x00007410      0x104 C:\Nburn/lib/NetBurner.a(nbsprintf.o)
 .debug_frame   0x00007514       0x2c C:\Nburn/lib/NetBurner.a(weakumain.o)
 .debug_frame   0x00007540       0x2c C:\Nburn/lib/NetBurner.a(cusermain.o)
 .debug_frame   0x0000756c       0x30 C:\Nburn/lib/NetBurner.a(fdprintf.o)
 .debug_frame   0x0000759c      0x21c C:\Nburn/lib/NetBurner.a(ipv6_addr.o)
 .debug_frame   0x000077b8       0xf0 C:\Nburn/lib/NetBurner.a(ipv6_tcp.o)
 .debug_frame   0x000078a8     0x1004 C:\Nburn/lib/NetBurner.a(ipv6_ip.o)
 .debug_frame   0x000088ac      0x180 C:\Nburn/lib/NetBurner.a(ipv6_udp.o)
 .debug_frame   0x00008a2c       0x48 C:\Nburn/lib/NetBurner.a(ipv6_printhelp.o)
 .debug_frame   0x00008a74       0xd0 C:\Nburn/lib/NetBurner.a(ipv6_extensions.o)
 .debug_frame   0x00008b44       0x8c C:\Nburn/lib/NetBurner.a(ipv6_multicast.o)
 .debug_frame   0x00008bd0      0x174 C:\Nburn/lib/NetBurner.a(ipv6_show.o)
 .debug_frame   0x00008d44      0x568 C:\Nburn/lib/NetBurner.a(ipv6_dhcp.o)
 .debug_frame   0x000092ac      0x1c8 C:\Nburn/lib/NetBurner.a(multicast.o)
 .debug_frame   0x00009474       0xa0 C:\Nburn/lib/NetBurner.a(random.o)
 .debug_frame   0x00009514       0x34 C:\Nburn/lib/NetBurner.a(netrx.o)
 .debug_frame   0x00009548      0x1a0 C:\Nburn/lib/NetBurner.a(nbfloatprint.o)
 .debug_frame   0x000096e8       0x48 C:\Nburn/lib/NetBurner.a(fdiprintf.o)
 .debug_frame   0x00009730      0x13c C:\Nburn/lib/NetBurner.a(md5c.o)
 .debug_frame   0x0000986c      0x680 c:/nburn/gcc-m68k/bin/../m68k-unknown-elf/sysroot/lib/m54455\libstdc++.a(cp-demangle.o)
 .debug_frame   0x00009eec      0x53c C:\Nburn/lib/NANO54415.a(ethernet.o)
 .debug_frame   0x0000a428      0x168 C:\Nburn/lib/NANO54415.a(etherprint.o)
 .debug_frame   0x0000a590       0x74 C:\Nburn/lib/NANO54415.a(emulticast.o)
 .debug_frame   0x0000a604       0xa8 C:\Nburn/lib/NANO54415.a(ether2nd.o)
 .debug_frame   0x0000a6ac      0x18c C:\Nburn/lib/NANO54415.a(etherswitch.o)
 .debug_frame   0x0000a838       0x34 C:\Nburn/lib/NetBurner.a(multiconfig.o)
 .debug_frame   0x0000a86c       0x30 c:/nburn/gcc-m68k/bin/../m68k-unknown-elf/sysroot/lib/m54455\libm.a(lib_a-s_cos.o)
 .debug_frame   0x0000a89c       0x30 c:/nburn/gcc-m68k/bin/../m68k-unknown-elf/sysroot/lib/m54455\libm.a(lib_a-s_fpclassify.o)
 .debug_frame   0x0000a8cc       0x34 c:/nburn/gcc-m68k/bin/../m68k-unknown-elf/sysroot/lib/m54455\libm.a(lib_a-s_modf.o)
 .debug_frame   0x0000a900       0x34 c:/nburn/gcc-m68k/bin/../m68k-unknown-elf/sysroot/lib/m54455\libm.a(lib_a-s_round.o)
 .debug_frame   0x0000a934       0x30 c:/nburn/gcc-m68k/bin/../m68k-unknown-elf/sysroot/lib/m54455\libm.a(lib_a-s_sin.o)
 .debug_frame   0x0000a964       0x40 c:/nburn/gcc-m68k/bin/../m68k-unknown-elf/sysroot/lib/m54455\libm.a(lib_a-w_pow.o)
 .debug_frame   0x0000a9a4       0x30 c:/nburn/gcc-m68k/bin/../m68k-unknown-elf/sysroot/lib/m54455\libm.a(lib_a-wf_asin.o)
 .debug_frame   0x0000a9d4       0x2c c:/nburn/gcc-m68k/bin/../m68k-unknown-elf/sysroot/lib/m54455\libm.a(lib_a-wf_atan2.o)
 .debug_frame   0x0000aa00       0x30 c:/nburn/gcc-m68k/bin/../m68k-unknown-elf/sysroot/lib/m54455\libm.a(lib_a-wf_sqrt.o)
 .debug_frame   0x0000aa30       0x40 c:/nburn/gcc-m68k/bin/../m68k-unknown-elf/sysroot/lib/m54455\libm.a(lib_a-e_pow.o)
 .debug_frame   0x0000aa70       0x40 c:/nburn/gcc-m68k/bin/../m68k-unknown-elf/sysroot/lib/m54455\libm.a(lib_a-e_rem_pio2.o)
 .debug_frame   0x0000aab0       0x3c c:/nburn/gcc-m68k/bin/../m68k-unknown-elf/sysroot/lib/m54455\libm.a(lib_a-e_sqrt.o)
 .debug_frame   0x0000aaec       0x40 c:/nburn/gcc-m68k/bin/../m68k-unknown-elf/sysroot/lib/m54455\libm.a(lib_a-ef_asin.o)
 .debug_frame   0x0000ab2c       0x34 c:/nburn/gcc-m68k/bin/../m68k-unknown-elf/sysroot/lib/m54455\libm.a(lib_a-ef_atan2.o)
 .debug_frame   0x0000ab60       0x34 c:/nburn/gcc-m68k/bin/../m68k-unknown-elf/sysroot/lib/m54455\libm.a(lib_a-ef_sqrt.o)
 .debug_frame   0x0000ab94       0x40 c:/nburn/gcc-m68k/bin/../m68k-unknown-elf/sysroot/lib/m54455\libm.a(lib_a-k_cos.o)
 .debug_frame   0x0000abd4       0x4c c:/nburn/gcc-m68k/bin/../m68k-unknown-elf/sysroot/lib/m54455\libm.a(lib_a-k_rem_pio2.o)
 .debug_frame   0x0000ac20       0x40 c:/nburn/gcc-m68k/bin/../m68k-unknown-elf/sysroot/lib/m54455\libm.a(lib_a-k_sin.o)
 .debug_frame   0x0000ac60       0x30 c:/nburn/gcc-m68k/bin/../m68k-unknown-elf/sysroot/lib/m54455\libm.a(lib_a-s_fabs.o)
 .debug_frame   0x0000ac90       0x2c c:/nburn/gcc-m68k/bin/../m68k-unknown-elf/sysroot/lib/m54455\libm.a(lib_a-s_finite.o)
 .debug_frame   0x0000acbc       0x3c c:/nburn/gcc-m68k/bin/../m68k-unknown-elf/sysroot/lib/m54455\libm.a(lib_a-s_floor.o)
 .debug_frame   0x0000acf8       0x2c c:/nburn/gcc-m68k/bin/../m68k-unknown-elf/sysroot/lib/m54455\libm.a(lib_a-s_matherr.o)
 .debug_frame   0x0000ad24       0x2c c:/nburn/gcc-m68k/bin/../m68k-unknown-elf/sysroot/lib/m54455\libm.a(lib_a-s_nan.o)
 .debug_frame   0x0000ad50       0x38 c:/nburn/gcc-m68k/bin/../m68k-unknown-elf/sysroot/lib/m54455\libm.a(lib_a-s_rint.o)
 .debug_frame   0x0000ad88       0x38 c:/nburn/gcc-m68k/bin/../m68k-unknown-elf/sysroot/lib/m54455\libm.a(lib_a-s_scalbn.o)
 .debug_frame   0x0000adc0       0x3c c:/nburn/gcc-m68k/bin/../m68k-unknown-elf/sysroot/lib/m54455\libm.a(lib_a-sf_atan.o)
 .debug_frame   0x0000adfc       0x2c c:/nburn/gcc-m68k/bin/../m68k-unknown-elf/sysroot/lib/m54455\libm.a(lib_a-sf_fabs.o)
 .debug_frame   0x0000ae28       0x2c c:/nburn/gcc-m68k/bin/../m68k-unknown-elf/sysroot/lib/m54455\libm.a(lib_a-sf_fpclassify.o)
 .debug_frame   0x0000ae54       0x30 c:/nburn/gcc-m68k/bin/../m68k-unknown-elf/sysroot/lib/m54455\libm.a(lib_a-s_copysign.o)
 .debug_frame   0x0000ae84       0x38 c:/nburn/gcc-m68k/bin/../lib/gcc/m68k-unknown-elf/5.2.0/m54455\libgcc.a(_muldi3.o)
 .debug_frame   0x0000aebc       0x30 c:/nburn/gcc-m68k/bin/../lib/gcc/m68k-unknown-elf/5.2.0/m54455\libgcc.a(_fixunsdfsi.o)
 .debug_frame   0x0000aeec       0x38 c:/nburn/gcc-m68k/bin/../lib/gcc/m68k-unknown-elf/5.2.0/m54455\libgcc.a(_fixunsdfdi.o)
 .debug_frame   0x0000af24      0x130 c:/nburn/gcc-m68k/bin/../lib/gcc/m68k-unknown-elf/5.2.0/m54455\libgcc.a(fpgnulib.o)
 .debug_frame   0x0000b054       0x2c c:/nburn/gcc-m68k/bin/../m68k-unknown-elf/sysroot/lib/m54455\libc.a(lib_a-abort.o)
 .debug_frame   0x0000b080       0x2c c:/nburn/gcc-m68k/bin/../m68k-unknown-elf/sysroot/lib/m54455\libc.a(lib_a-atexit.o)
 .debug_frame   0x0000b0ac       0x44 c:/nburn/gcc-m68k/bin/../m68k-unknown-elf/sysroot/lib/m54455\libc.a(lib_a-atoi.o)
 .debug_frame   0x0000b0f0       0x38 c:/nburn/gcc-m68k/bin/../m68k-unknown-elf/sysroot/lib/m54455\libc.a(lib_a-bsearch.o)
 .debug_frame   0x0000b128       0x2c c:/nburn/gcc-m68k/bin/../m68k-unknown-elf/sysroot/lib/m54455\libc.a(lib_a-cxa_atexit.o)
 .debug_frame   0x0000b154       0x2c c:/nburn/gcc-m68k/bin/../m68k-unknown-elf/sysroot/lib/m54455\libc.a(lib_a-errno.o)
 .debug_frame   0x0000b180       0x4c c:/nburn/gcc-m68k/bin/../m68k-unknown-elf/sysroot/lib/m54455\libc.a(lib_a-fputc.o)
 .debug_frame   0x0000b1cc       0x48 c:/nburn/gcc-m68k/bin/../m68k-unknown-elf/sysroot/lib/m54455\libc.a(lib_a-fputs.o)
 .debug_frame   0x0000b214       0x40 c:/nburn/gcc-m68k/bin/../m68k-unknown-elf/sysroot/lib/m54455\libc.a(lib_a-fvwrite.o)
 .debug_frame   0x0000b254       0x2c c:/nburn/gcc-m68k/bin/../m68k-unknown-elf/sysroot/lib/m54455\libc.a(lib_a-isspace.o)
 .debug_frame   0x0000b280       0x44 c:/nburn/gcc-m68k/bin/../m68k-unknown-elf/sysroot/lib/m54455\libc.a(lib_a-malloc.o)
 .debug_frame   0x0000b2c4       0x40 c:/nburn/gcc-m68k/bin/../m68k-unknown-elf/sysroot/lib/m54455\libc.a(lib_a-mallocr.o)
 .debug_frame   0x0000b304       0x30 c:/nburn/gcc-m68k/bin/../m68k-unknown-elf/sysroot/lib/m54455\libc.a(lib_a-memchr.o)
 .debug_frame   0x0000b334       0x30 c:/nburn/gcc-m68k/bin/../m68k-unknown-elf/sysroot/lib/m54455\libc.a(lib_a-memcmp.o)
 .debug_frame   0x0000b364       0x30 c:/nburn/gcc-m68k/bin/../m68k-unknown-elf/sysroot/lib/m54455\libc.a(lib_a-memmove.o)
 .debug_frame   0x0000b394       0x4c c:/nburn/gcc-m68k/bin/../m68k-unknown-elf/sysroot/lib/m54455\libc.a(lib_a-putc.o)
 .debug_frame   0x0000b3e0       0x48 c:/nburn/gcc-m68k/bin/../m68k-unknown-elf/sysroot/lib/m54455\libc.a(lib_a-puts.o)
 .debug_frame   0x0000b428       0x48 c:/nburn/gcc-m68k/bin/../m68k-unknown-elf/sysroot/lib/m54455\libc.a(lib_a-rand.o)
 .debug_frame   0x0000b470       0x2c c:/nburn/gcc-m68k/bin/../m68k-unknown-elf/sysroot/lib/m54455\libc.a(lib_a-realloc.o)
 .debug_frame   0x0000b49c       0x40 c:/nburn/gcc-m68k/bin/../m68k-unknown-elf/sysroot/lib/m54455\libc.a(lib_a-reallocr.o)
 .debug_frame   0x0000b4dc       0x38 c:/nburn/gcc-m68k/bin/../m68k-unknown-elf/sysroot/lib/m54455\libc.a(lib_a-setvbuf.o)
 .debug_frame   0x0000b514       0xe4 c:/nburn/gcc-m68k/bin/../m68k-unknown-elf/sysroot/lib/m54455\libc.a(lib_a-signal.o)
 .debug_frame   0x0000b5f8       0x44 c:/nburn/gcc-m68k/bin/../m68k-unknown-elf/sysroot/lib/m54455\libc.a(lib_a-signalr.o)
 .debug_frame   0x0000b63c       0x2c c:/nburn/gcc-m68k/bin/../m68k-unknown-elf/sysroot/lib/m54455\libc.a(lib_a-stpcpy.o)
 .debug_frame   0x0000b668       0x30 c:/nburn/gcc-m68k/bin/../m68k-unknown-elf/sysroot/lib/m54455\libc.a(lib_a-strcat.o)
 .debug_frame   0x0000b698       0x30 c:/nburn/gcc-m68k/bin/../m68k-unknown-elf/sysroot/lib/m54455\libc.a(lib_a-strcmp.o)
 .debug_frame   0x0000b6c8       0x2c c:/nburn/gcc-m68k/bin/../m68k-unknown-elf/sysroot/lib/m54455\libc.a(lib_a-strcpy.o)
 .debug_frame   0x0000b6f4       0x2c c:/nburn/gcc-m68k/bin/../m68k-unknown-elf/sysroot/lib/m54455\libc.a(lib_a-strlen.o)
 .debug_frame   0x0000b720       0x34 c:/nburn/gcc-m68k/bin/../m68k-unknown-elf/sysroot/lib/m54455\libc.a(lib_a-strncmp.o)
 .debug_frame   0x0000b754       0x30 c:/nburn/gcc-m68k/bin/../m68k-unknown-elf/sysroot/lib/m54455\libc.a(lib_a-strncpy.o)
 .debug_frame   0x0000b784       0x30 c:/nburn/gcc-m68k/bin/../m68k-unknown-elf/sysroot/lib/m54455\libc.a(lib_a-strstr.o)
 .debug_frame   0x0000b7b4       0x58 c:/nburn/gcc-m68k/bin/../m68k-unknown-elf/sysroot/lib/m54455\libc.a(lib_a-strtol.o)
 .debug_frame   0x0000b80c       0x30 c:/nburn/gcc-m68k/bin/../m68k-unknown-elf/sysroot/lib/m54455\libc.a(lib_a-tolower.o)
 .debug_frame   0x0000b83c       0x30 c:/nburn/gcc-m68k/bin/../m68k-unknown-elf/sysroot/lib/m54455\libc.a(lib_a-toupper.o)
 .debug_frame   0x0000b86c       0x4c c:/nburn/gcc-m68k/bin/../m68k-unknown-elf/sysroot/lib/m54455\libc.a(lib_a-wbuf.o)
 .debug_frame   0x0000b8b8       0x34 c:/nburn/gcc-m68k/bin/../m68k-unknown-elf/sysroot/lib/m54455\libc.a(lib_a-wsetup.o)
 .debug_frame   0x0000b8ec       0x34 c:/nburn/gcc-m68k/bin/../m68k-unknown-elf/sysroot/lib/m54455\libc.a(lib_a-__atexit.o)
 .debug_frame   0x0000b920       0x6c c:/nburn/gcc-m68k/bin/../m68k-unknown-elf/sysroot/lib/m54455\libc.a(lib_a-fflush.o)
 .debug_frame   0x0000b98c      0x17c c:/nburn/gcc-m68k/bin/../m68k-unknown-elf/sysroot/lib/m54455\libc.a(lib_a-findfp.o)
 .debug_frame   0x0000bb08       0x5c c:/nburn/gcc-m68k/bin/../m68k-unknown-elf/sysroot/lib/m54455\libc.a(lib_a-freer.o)
 .debug_frame   0x0000bb64       0x58 c:/nburn/gcc-m68k/bin/../m68k-unknown-elf/sysroot/lib/m54455\libc.a(lib_a-fwalk.o)
 .debug_frame   0x0000bbbc       0x34 c:/nburn/gcc-m68k/bin/../m68k-unknown-elf/sysroot/lib/m54455\libc.a(lib_a-makebuf.o)
 .debug_frame   0x0000bbf0       0x9c c:/nburn/gcc-m68k/bin/../m68k-unknown-elf/sysroot/lib/m54455\libc.a(lib_a-stdio.o)
 .debug_frame   0x0000bc8c       0x2c c:/nburn/gcc-m68k/bin/../m68k-unknown-elf/sysroot/lib/m54455\libc.a(lib_a-writer.o)
 .debug_frame   0x0000bcb8       0x2c c:/nburn/gcc-m68k/bin/../m68k-unknown-elf/sysroot/lib/m54455\libc.a(lib_a-closer.o)
 .debug_frame   0x0000bce4       0x4c c:/nburn/gcc-m68k/bin/../m68k-unknown-elf/sysroot/lib/m54455\libc.a(lib_a-fclose.o)
 .debug_frame   0x0000bd30       0x2c c:/nburn/gcc-m68k/bin/../m68k-unknown-elf/sysroot/lib/m54455\libc.a(lib_a-fstatr.o)
 .debug_frame   0x0000bd5c       0x2c c:/nburn/gcc-m68k/bin/../m68k-unknown-elf/sysroot/lib/m54455\libc.a(lib_a-isattyr.o)
 .debug_frame   0x0000bd88       0x2c c:/nburn/gcc-m68k/bin/../m68k-unknown-elf/sysroot/lib/m54455\libc.a(lib_a-lseekr.o)
 .debug_frame   0x0000bdb4       0x2c c:/nburn/gcc-m68k/bin/../m68k-unknown-elf/sysroot/lib/m54455\libc.a(lib_a-readr.o)

.debug_str      0x00000000    0x1f800
 *(.debug_str)
 .debug_str     0x00000000     0x1601 main.o
                               0x1767 (size before relaxing)
 .debug_str     0x00001601      0x126 Utility.o
                                0x352 (size before relaxing)
 .debug_str     0x00001727      0x169 Nav.o
                                0x31a (size before relaxing)
 .debug_str     0x00001890      0x678 Logger.o
                                0x8fe (size before relaxing)
 .debug_str     0x00001f08      0xe49 Drivers\servodrive.o
                               0x166f (size before relaxing)
 .debug_str     0x00002d51      0x5ee Drivers\pwm.o
                                0xac4 (size before relaxing)
 .debug_str     0x0000333f      0x7df Drivers\introspec.o
                               0x11c5 (size before relaxing)
 .debug_str     0x00003b1e      0x4a4 Drivers\dsm2.o
                               0x187b (size before relaxing)
 .debug_str     0x00003fc2      0x36a Drivers\SpinningLidar.o
                                0x694 (size before relaxing)
 .debug_str     0x0000432c      0x161 Drivers\Odometer.o
                               0x1290 (size before relaxing)
 .debug_str     0x0000448d      0x10e Drivers\MadgwickFilter.o
                                0x2ad (size before relaxing)
 .debug_str     0x0000459b      0x1d4 Drivers\MPU9250.o
                               0x1060 (size before relaxing)
 .debug_str     0x0000476f      0x154 Drivers\LidarPWM.o
                               0x1254 (size before relaxing)
 .debug_str     0x000048c3       0xd2 Drivers\LCD.o
                                0x34c (size before relaxing)
 .debug_str     0x00004995      0x206 Drivers\IMUSetupAndSample.o
                               0x12f9 (size before relaxing)
 .debug_str     0x00004b9b      0x135 htmldata.o
                                0x2a8 (size before relaxing)
 .debug_str     0x00004cd0      0xc90 C:\Nburn/lib/NANO54415.a(serial.o)
                               0x2e37 (size before relaxing)
 .debug_str     0x00005960      0xc90 C:\Nburn/lib/NANO54415.a(pins.o)
                                0x8c8 (size before relaxing)
 .debug_str     0x00005960      0x502 C:\Nburn/lib/NANO54415.a(FlashOps.o)
                                0xe6f (size before relaxing)
 .debug_str     0x00005e62      0x258 C:\Nburn/lib/NANO54415.a(HiResTimer.o)
                               0x1ae8 (size before relaxing)
 .debug_str     0x000060ba       0xd6 C:\Nburn/lib/NANO54415.a(pin_irq.o)
                               0x1352 (size before relaxing)
 .debug_str     0x00006190      0x2ac C:\Nburn/lib/NANO54415.a(bsp.o)
                               0x1dde (size before relaxing)
 .debug_str     0x0000643c       0xb0 C:\Nburn/lib/NANO54415.a(localio.o)
                               0x1b18 (size before relaxing)
 .debug_str     0x000064ec      0x9da C:\Nburn/lib/NANO54415.a(multichanneli2c.o)
                               0x10ae (size before relaxing)
 .debug_str     0x00006ec6        0xc C:\Nburn/lib/NANO54415.a(defpins.o)
                                0x2ec (size before relaxing)
 .debug_str     0x00006ed2       0x56 C:\Nburn/lib/NANO54415.a(SPIFlash.o)
                               0x1986 (size before relaxing)
 .debug_str     0x00006f28      0x2fb C:\Nburn/lib/NANO54415.a(i2c_class.o)
                               0x24b3 (size before relaxing)
 .debug_str     0x00007223       0x98 C:\Nburn/lib/NetBurner.a(main.o)
                                 0xc5 (size before relaxing)
 .debug_str     0x000072bb      0x1e9 C:\Nburn/lib/NetBurner.a(ucosmcfc.o)
                                0x357 (size before relaxing)
 .debug_str     0x000074a4      0x42d C:\Nburn/lib/NetBurner.a(ucos.o)
                                0xa64 (size before relaxing)
 .debug_str     0x000078d1       0x63 C:\Nburn/lib/NetBurner.a(cppmain.o)
                                0x21c (size before relaxing)
 .debug_str     0x00007934       0xe2 C:\Nburn/lib/NetBurner.a(debugtrap.o)
                                0x237 (size before relaxing)
 .debug_str     0x00007a16       0xcb C:\Nburn/lib/NetBurner.a(ucosmain.o)
                                0xad5 (size before relaxing)
 .debug_str     0x00007ae1      0x266 C:\Nburn/lib/NetBurner.a(fileio.o)
                                0x8be (size before relaxing)
 .debug_str     0x00007d47      0x1d2 C:\Nburn/lib/NetBurner.a(system.o)
                                0xc56 (size before relaxing)
 .debug_str     0x00007f19      0x4f9 C:\Nburn/lib/NetBurner.a(utils.o)
                                0xebb (size before relaxing)
 .debug_str     0x00008412     0x1965 C:\Nburn/lib/NetBurner.a(ip.o)
                               0x26c4 (size before relaxing)
 .debug_str     0x00009d77      0x2d5 C:\Nburn/lib/NetBurner.a(buffers.o)
                                0xdcf (size before relaxing)
 .debug_str     0x0000a04c      0x58e C:\Nburn/lib/NetBurner.a(arp.o)
                               0x231e (size before relaxing)
 .debug_str     0x0000a5da     0x1528 C:\Nburn/lib/NetBurner.a(udp.o)
                               0x3122 (size before relaxing)
 .debug_str     0x0000bb02      0x682 C:\Nburn/lib/NetBurner.a(ftpd.o)
                               0x1210 (size before relaxing)
 .debug_str     0x0000c184     0x56b9 C:\Nburn/lib/NetBurner.a(tcp.o)
                               0x89eb (size before relaxing)
 .debug_str     0x0001183d      0x1b2 C:\Nburn/lib/NetBurner.a(extraio.o)
                                0x3dd (size before relaxing)
 .debug_str     0x000119ef      0x331 C:\Nburn/lib/NetBurner.a(http.o)
                                0xeca (size before relaxing)
 .debug_str     0x00011d20      0x717 C:\Nburn/lib/NetBurner.a(httpinternal.o)
                               0x1411 (size before relaxing)
 .debug_str     0x00012437       0x1a C:\Nburn/lib/NetBurner.a(httpstricmp.o)
                                0x160 (size before relaxing)
 .debug_str     0x00012451      0x35b C:\Nburn/lib/NetBurner.a(htmldecomp.o)
                                0x841 (size before relaxing)
 .debug_str     0x000127ac      0x248 C:\Nburn/lib/NetBurner.a(iosys.o)
                                0x82a (size before relaxing)
 .debug_str     0x000129f4       0xa6 C:\Nburn/lib/NetBurner.a(new_ops.o)
                                0x250 (size before relaxing)
 .debug_str     0x00012a9a       0xb6 C:\Nburn/lib/NetBurner.a(autoip.o)
                               0x1618 (size before relaxing)
 .debug_str     0x00012b50      0x93a C:\Nburn/lib/NetBurner.a(dhcpc.o)
                               0x30ca (size before relaxing)
 .debug_str     0x0001348a      0x20e C:\Nburn/lib/NetBurner.a(netinterface.o)
                               0x1a37 (size before relaxing)
 .debug_str     0x00013698       0xc5 C:\Nburn/lib/NetBurner.a(taskmon.o)
                               0x1901 (size before relaxing)
 .debug_str     0x0001375d      0x163 C:\Nburn/lib/NetBurner.a(smarttrap.o)
                                0x48a (size before relaxing)
 .debug_str     0x000138c0      0x1b1 C:\Nburn/lib/NetBurner.a(autoupdate.o)
                               0x1a68 (size before relaxing)
 .debug_str     0x00013a71       0x81 C:\Nburn/lib/NetBurner.a(device.o)
                                0x44d (size before relaxing)
 .debug_str     0x00013af2      0x324 C:\Nburn/lib/NetBurner.a(nbiprintf.o)
                                0xd2b (size before relaxing)
 .debug_str     0x00013e16        0xd C:\Nburn/lib/NetBurner.a(nbprintf.o)
                                0x224 (size before relaxing)
 .debug_str     0x00013e23       0x51 C:\Nburn/lib/NetBurner.a(nbsiprintf.o)
                                0x23b (size before relaxing)
 .debug_str     0x00013e74       0xab C:\Nburn/lib/NetBurner.a(nbsprintf.o)
                                0x73f (size before relaxing)
 .debug_str     0x00013f1f       0x2a C:\Nburn/lib/NetBurner.a(weakumain.o)
                                 0xd8 (size before relaxing)
 .debug_str     0x00013f49        0xe C:\Nburn/lib/NetBurner.a(cusermain.o)
                                 0xca (size before relaxing)
 .debug_str     0x00013f57        0xd C:\Nburn/lib/NetBurner.a(fdprintf.o)
                                0x29c (size before relaxing)
 .debug_str     0x00013f64       0x16 C:\Nburn/lib/NetBurner.a(websocket_handler.o)
                                0xa87 (size before relaxing)
 .debug_str     0x00013f7a       0xde C:\Nburn/lib/NetBurner.a(ipv6_addr.o)
                                0xad9 (size before relaxing)
 .debug_str     0x00014058       0x7c C:\Nburn/lib/NetBurner.a(ipv6_tcp.o)
                               0x6240 (size before relaxing)
 .debug_str     0x000140d4     0x18cc C:\Nburn/lib/NetBurner.a(ipv6_ip.o)
                               0x78f5 (size before relaxing)
 .debug_str     0x000159a0       0x9f C:\Nburn/lib/NetBurner.a(ipv6_udp.o)
                               0x4fb8 (size before relaxing)
 .debug_str     0x00015a3f       0x20 C:\Nburn/lib/NetBurner.a(ipv6_printhelp.o)
                                0x990 (size before relaxing)
 .debug_str     0x00015a5f       0xc0 C:\Nburn/lib/NetBurner.a(ipv6_extensions.o)
                               0x4f39 (size before relaxing)
 .debug_str     0x00015b1f      0x1c2 C:\Nburn/lib/NetBurner.a(ipv6_multicast.o)
                               0x50f9 (size before relaxing)
 .debug_str     0x00015ce1       0xc3 C:\Nburn/lib/NetBurner.a(ipv6_show.o)
                               0x522e (size before relaxing)
 .debug_str     0x00015da4      0x54c C:\Nburn/lib/NetBurner.a(ipv6_dhcp.o)
                               0x567a (size before relaxing)
 .debug_str     0x000162f0      0x1b1 C:\Nburn/lib/NetBurner.a(multicast.o)
                               0x54ce (size before relaxing)
 .debug_str     0x000164a1      0x374 C:\Nburn/lib/NetBurner.a(random.o)
                                0x5ae (size before relaxing)
 .debug_str     0x00016815       0x5a C:\Nburn/lib/NetBurner.a(netrx.o)
                                0x466 (size before relaxing)
 .debug_str     0x0001686f      0x233 C:\Nburn/lib/NetBurner.a(nbfloatprint.o)
                                0x4aa (size before relaxing)
 .debug_str     0x00016aa2       0x4c C:\Nburn/lib/NetBurner.a(fdiprintf.o)
                                0x26e (size before relaxing)
 .debug_str     0x00016aee       0x86 C:\Nburn/lib/NetBurner.a(md5c.o)
                                0x516 (size before relaxing)
 .debug_str     0x00016b74      0x1d4 c:/nburn/gcc-m68k/bin/../m68k-unknown-elf/sysroot/lib/m54455\libstdc++.a(pure.o)
                                0x28d (size before relaxing)
 .debug_str     0x00016d48      0x4e3 c:/nburn/gcc-m68k/bin/../m68k-unknown-elf/sysroot/lib/m54455\libstdc++.a(eh_terminate.o)
                                0x828 (size before relaxing)
 .debug_str     0x0001722b       0xd5 c:/nburn/gcc-m68k/bin/../m68k-unknown-elf/sysroot/lib/m54455\libstdc++.a(del_op.o)
                                0x2c1 (size before relaxing)
 .debug_str     0x00017300       0xdf c:/nburn/gcc-m68k/bin/../m68k-unknown-elf/sysroot/lib/m54455\libstdc++.a(del_ops.o)
                                0x199 (size before relaxing)
 .debug_str     0x000173df       0xe0 c:/nburn/gcc-m68k/bin/../m68k-unknown-elf/sysroot/lib/m54455\libstdc++.a(eh_unex_handler.o)
                                0x264 (size before relaxing)
 .debug_str     0x000174bf       0xe0 c:/nburn/gcc-m68k/bin/../m68k-unknown-elf/sysroot/lib/m54455\libstdc++.a(eh_term_handler.o)
                                0x261 (size before relaxing)
 .debug_str     0x0001759f      0x3d5 c:/nburn/gcc-m68k/bin/../m68k-unknown-elf/sysroot/lib/m54455\libstdc++.a(eh_catch.o)
                                0x6eb (size before relaxing)
 .debug_str     0x00017974      0x66d c:/nburn/gcc-m68k/bin/../m68k-unknown-elf/sysroot/lib/m54455\libstdc++.a(eh_personality.o)
                                0xd22 (size before relaxing)
 .debug_str     0x00017fe1      0x38a c:/nburn/gcc-m68k/bin/../m68k-unknown-elf/sysroot/lib/m54455\libstdc++.a(eh_exception.o)
                                0x4ed (size before relaxing)
 .debug_str     0x0001836b       0xd6 c:/nburn/gcc-m68k/bin/../m68k-unknown-elf/sysroot/lib/m54455\libstdc++.a(eh_globals.o)
                                0x5c1 (size before relaxing)
 .debug_str     0x00018441      0x213 c:/nburn/gcc-m68k/bin/../m68k-unknown-elf/sysroot/lib/m54455\libstdc++.a(vterminate.o)
                                0x860 (size before relaxing)
 .debug_str     0x00018654      0x1f1 c:/nburn/gcc-m68k/bin/../m68k-unknown-elf/sysroot/lib/m54455\libstdc++.a(eh_alloc.o)
                                0x9ab (size before relaxing)
 .debug_str     0x00018845     0x16a8 c:/nburn/gcc-m68k/bin/../m68k-unknown-elf/sysroot/lib/m54455\libstdc++.a(cp-demangle.o)
                               0x19c6 (size before relaxing)
 .debug_str     0x00019eed      0x1bc c:/nburn/gcc-m68k/bin/../m68k-unknown-elf/sysroot/lib/m54455\libstdc++.a(eh_throw.o)
                                0x6fc (size before relaxing)
 .debug_str     0x0001a0a9       0xd0 c:/nburn/gcc-m68k/bin/../m68k-unknown-elf/sysroot/lib/m54455\libstdc++.a(eh_type.o)
                                0x564 (size before relaxing)
 .debug_str     0x0001a179      0x6d7 c:/nburn/gcc-m68k/bin/../m68k-unknown-elf/sysroot/lib/m54455\libstdc++.a(si_class_type_info.o)
                                0x830 (size before relaxing)
 .debug_str     0x0001a850       0xd0 c:/nburn/gcc-m68k/bin/../m68k-unknown-elf/sysroot/lib/m54455\libstdc++.a(eh_call.o)
                                0x61b (size before relaxing)
 .debug_str     0x0001a920      0x4db c:/nburn/gcc-m68k/bin/../m68k-unknown-elf/sysroot/lib/m54455\libstdc++.a(class_type_info.o)
                                0x972 (size before relaxing)
 .debug_str     0x0001adfb      0x26d c:/nburn/gcc-m68k/bin/../m68k-unknown-elf/sysroot/lib/m54455\libstdc++.a(tinfo.o)
                                0x49d (size before relaxing)
 .debug_str     0x0001b068      0xbae C:\Nburn/lib/NANO54415.a(ethernet.o)
                               0x3930 (size before relaxing)
 .debug_str     0x0001bc16       0x6d C:\Nburn/lib/NANO54415.a(etherprint.o)
                               0x21cf (size before relaxing)
 .debug_str     0x0001bc83       0x83 C:\Nburn/lib/NANO54415.a(emulticast.o)
                               0x1d14 (size before relaxing)
 .debug_str     0x0001bd06      0x106 C:\Nburn/lib/NANO54415.a(ether2nd.o)
                               0x1f4e (size before relaxing)
 .debug_str     0x0001be0c      0x1ac C:\Nburn/lib/NANO54415.a(etherswitch.o)
                               0x22f9 (size before relaxing)
 .debug_str     0x0001bfb8       0x16 C:\Nburn/lib/NANO54415.a(weak_autoenet_var.o)
                                 0xd1 (size before relaxing)
 .debug_str     0x0001bfce       0x2e C:\Nburn/lib/NetBurner.a(multiconfig.o)
                               0x158a (size before relaxing)
 .debug_str     0x0001bffc       0xb6 c:/nburn/gcc-m68k/bin/../m68k-unknown-elf/sysroot/lib/m54455\libm.a(lib_a-s_cos.o)
                                0x161 (size before relaxing)
 .debug_str     0x0001c0b2       0x77 c:/nburn/gcc-m68k/bin/../m68k-unknown-elf/sysroot/lib/m54455\libm.a(lib_a-s_fpclassify.o)
                                0x174 (size before relaxing)
 .debug_str     0x0001c129       0x4e c:/nburn/gcc-m68k/bin/../m68k-unknown-elf/sysroot/lib/m54455\libm.a(lib_a-s_modf.o)
                                0x179 (size before relaxing)
 .debug_str     0x0001c177       0x66 c:/nburn/gcc-m68k/bin/../m68k-unknown-elf/sysroot/lib/m54455\libm.a(lib_a-s_round.o)
                                0x197 (size before relaxing)
 .debug_str     0x0001c1dd       0x41 c:/nburn/gcc-m68k/bin/../m68k-unknown-elf/sysroot/lib/m54455\libm.a(lib_a-s_sin.o)
                                0x161 (size before relaxing)
 .debug_str     0x0001c21e       0xca c:/nburn/gcc-m68k/bin/../m68k-unknown-elf/sysroot/lib/m54455\libm.a(lib_a-w_pow.o)
                                0x1d4 (size before relaxing)
 .debug_str     0x0001c2e8       0x67 c:/nburn/gcc-m68k/bin/../m68k-unknown-elf/sysroot/lib/m54455\libm.a(lib_a-wf_asin.o)
                                0x1e6 (size before relaxing)
 .debug_str     0x0001c34f       0x55 c:/nburn/gcc-m68k/bin/../m68k-unknown-elf/sysroot/lib/m54455\libm.a(lib_a-wf_atan2.o)
                                0x145 (size before relaxing)
 .debug_str     0x0001c3a4       0x53 c:/nburn/gcc-m68k/bin/../m68k-unknown-elf/sysroot/lib/m54455\libm.a(lib_a-wf_sqrt.o)
                                0x1e0 (size before relaxing)
 .debug_str     0x0001c3f7       0xb8 c:/nburn/gcc-m68k/bin/../m68k-unknown-elf/sysroot/lib/m54455\libm.a(lib_a-e_pow.o)
                                0x1f1 (size before relaxing)
 .debug_str     0x0001c4af       0xad c:/nburn/gcc-m68k/bin/../m68k-unknown-elf/sysroot/lib/m54455\libm.a(lib_a-e_rem_pio2.o)
                                0x1fa (size before relaxing)
 .debug_str     0x0001c55c       0x42 c:/nburn/gcc-m68k/bin/../m68k-unknown-elf/sysroot/lib/m54455\libm.a(lib_a-e_sqrt.o)
                                0x186 (size before relaxing)
 .debug_str     0x0001c59e       0x7b c:/nburn/gcc-m68k/bin/../m68k-unknown-elf/sysroot/lib/m54455\libm.a(lib_a-ef_asin.o)
                                0x1af (size before relaxing)
 .debug_str     0x0001c619       0x5e c:/nburn/gcc-m68k/bin/../m68k-unknown-elf/sysroot/lib/m54455\libm.a(lib_a-ef_atan2.o)
                                0x1a8 (size before relaxing)
 .debug_str     0x0001c677       0x43 c:/nburn/gcc-m68k/bin/../m68k-unknown-elf/sysroot/lib/m54455\libm.a(lib_a-ef_sqrt.o)
                                0x181 (size before relaxing)
 .debug_str     0x0001c6ba       0x41 c:/nburn/gcc-m68k/bin/../m68k-unknown-elf/sysroot/lib/m54455\libm.a(lib_a-k_cos.o)
                                0x174 (size before relaxing)
 .debug_str     0x0001c6fb       0x7b c:/nburn/gcc-m68k/bin/../m68k-unknown-elf/sysroot/lib/m54455\libm.a(lib_a-k_rem_pio2.o)
                                0x192 (size before relaxing)
 .debug_str     0x0001c776       0x41 c:/nburn/gcc-m68k/bin/../m68k-unknown-elf/sysroot/lib/m54455\libm.a(lib_a-k_sin.o)
                                0x146 (size before relaxing)
 .debug_str     0x0001c7b7       0x42 c:/nburn/gcc-m68k/bin/../m68k-unknown-elf/sysroot/lib/m54455\libm.a(lib_a-s_fabs.o)
                                0x168 (size before relaxing)
 .debug_str     0x0001c7f9       0x46 c:/nburn/gcc-m68k/bin/../m68k-unknown-elf/sysroot/lib/m54455\libm.a(lib_a-s_finite.o)
                                0x14b (size before relaxing)
 .debug_str     0x0001c83f       0x43 c:/nburn/gcc-m68k/bin/../m68k-unknown-elf/sysroot/lib/m54455\libm.a(lib_a-s_floor.o)
                                0x179 (size before relaxing)
 .debug_str     0x0001c882       0x47 c:/nburn/gcc-m68k/bin/../m68k-unknown-elf/sysroot/lib/m54455\libm.a(lib_a-s_lib_ver.o)
                                0x18b (size before relaxing)
 .debug_str     0x0001c8c9       0x47 c:/nburn/gcc-m68k/bin/../m68k-unknown-elf/sysroot/lib/m54455\libm.a(lib_a-s_matherr.o)
                                0x15d (size before relaxing)
 .debug_str     0x0001c910       0x43 c:/nburn/gcc-m68k/bin/../m68k-unknown-elf/sysroot/lib/m54455\libm.a(lib_a-s_nan.o)
                                0x133 (size before relaxing)
 .debug_str     0x0001c953       0x4a c:/nburn/gcc-m68k/bin/../m68k-unknown-elf/sysroot/lib/m54455\libm.a(lib_a-s_rint.o)
                                0x17a (size before relaxing)
 .debug_str     0x0001c99d       0x5c c:/nburn/gcc-m68k/bin/../m68k-unknown-elf/sysroot/lib/m54455\libm.a(lib_a-s_scalbn.o)
                                0x19d (size before relaxing)
 .debug_str     0x0001c9f9       0x51 c:/nburn/gcc-m68k/bin/../m68k-unknown-elf/sysroot/lib/m54455\libm.a(lib_a-sf_atan.o)
                                0x186 (size before relaxing)
 .debug_str     0x0001ca4a       0x43 c:/nburn/gcc-m68k/bin/../m68k-unknown-elf/sysroot/lib/m54455\libm.a(lib_a-sf_fabs.o)
                                0x163 (size before relaxing)
 .debug_str     0x0001ca8d       0x4b c:/nburn/gcc-m68k/bin/../m68k-unknown-elf/sysroot/lib/m54455\libm.a(lib_a-sf_fpclassify.o)
                                0x14d (size before relaxing)
 .debug_str     0x0001cad8       0x48 c:/nburn/gcc-m68k/bin/../m68k-unknown-elf/sysroot/lib/m54455\libm.a(lib_a-s_copysign.o)
                                0x16d (size before relaxing)
 .debug_str     0x0001cb20      0x13f c:/nburn/gcc-m68k/bin/../lib/gcc/m68k-unknown-elf/5.2.0/m54455\libgcc.a(_muldi3.o)
                                0x1fd (size before relaxing)
 .debug_str     0x0001cc5f       0x14 c:/nburn/gcc-m68k/bin/../lib/gcc/m68k-unknown-elf/5.2.0/m54455\libgcc.a(_fixunsdfsi.o)
                                0x1eb (size before relaxing)
 .debug_str     0x0001cc73       0x15 c:/nburn/gcc-m68k/bin/../lib/gcc/m68k-unknown-elf/5.2.0/m54455\libgcc.a(_fixunsdfdi.o)
                                0x1ec (size before relaxing)
 .debug_str     0x0001cc88       0xc2 c:/nburn/gcc-m68k/bin/../lib/gcc/m68k-unknown-elf/5.2.0/m54455\libgcc.a(_udivdi3.o)
                                0x254 (size before relaxing)
 .debug_str     0x0001cd4a        0xa c:/nburn/gcc-m68k/bin/../lib/gcc/m68k-unknown-elf/5.2.0/m54455\libgcc.a(_umoddi3.o)
                                0x254 (size before relaxing)
 .debug_str     0x0001cd54       0xe8 c:/nburn/gcc-m68k/bin/../lib/gcc/m68k-unknown-elf/5.2.0/m54455\libgcc.a(fpgnulib.o)
                                0x19d (size before relaxing)
 .debug_str     0x0001ce3c     0x1287 c:/nburn/gcc-m68k/bin/../lib/gcc/m68k-unknown-elf/5.2.0/m54455\libgcc.a(unwind-dw2.o)
                               0x17ec (size before relaxing)
 .debug_str     0x0001e0c3      0x3f1 c:/nburn/gcc-m68k/bin/../lib/gcc/m68k-unknown-elf/5.2.0/m54455\libgcc.a(unwind-dw2-fde.o)
                                0x75a (size before relaxing)
 .debug_str     0x0001e4b4       0x49 c:/nburn/gcc-m68k/bin/../m68k-unknown-elf/sysroot/lib/m54455\libc.a(lib_a-abort.o)
                                0x131 (size before relaxing)
 .debug_str     0x0001e4fd       0x88 c:/nburn/gcc-m68k/bin/../m68k-unknown-elf/sysroot/lib/m54455\libc.a(lib_a-atexit.o)
                                0x16b (size before relaxing)
 .debug_str     0x0001e585       0x54 c:/nburn/gcc-m68k/bin/../m68k-unknown-elf/sysroot/lib/m54455\libc.a(lib_a-atoi.o)
                                0x4fb (size before relaxing)
 .debug_str     0x0001e5d9       0x52 c:/nburn/gcc-m68k/bin/../m68k-unknown-elf/sysroot/lib/m54455\libc.a(lib_a-bsearch.o)
                                0x168 (size before relaxing)
 .debug_str     0x0001e62b       0x48 c:/nburn/gcc-m68k/bin/../m68k-unknown-elf/sysroot/lib/m54455\libc.a(lib_a-cxa_atexit.o)
                                0x175 (size before relaxing)
 .debug_str     0x0001e673       0x42 c:/nburn/gcc-m68k/bin/../m68k-unknown-elf/sysroot/lib/m54455\libc.a(lib_a-errno.o)
                                0x4f1 (size before relaxing)
 .debug_str     0x0001e6b5       0x6b c:/nburn/gcc-m68k/bin/../m68k-unknown-elf/sysroot/lib/m54455\libc.a(lib_a-fputc.o)
                                0x529 (size before relaxing)
 .debug_str     0x0001e720       0x9a c:/nburn/gcc-m68k/bin/../m68k-unknown-elf/sysroot/lib/m54455\libc.a(lib_a-fputs.o)
                                0x573 (size before relaxing)
 .debug_str     0x0001e7ba       0xa4 c:/nburn/gcc-m68k/bin/../m68k-unknown-elf/sysroot/lib/m54455\libc.a(lib_a-fvwrite.o)
                                0x59b (size before relaxing)
 .debug_str     0x0001e85e       0x62 c:/nburn/gcc-m68k/bin/../m68k-unknown-elf/sysroot/lib/m54455\libc.a(lib_a-impure.o)
                                0x509 (size before relaxing)
 .debug_str     0x0001e8c0       0x5a c:/nburn/gcc-m68k/bin/../m68k-unknown-elf/sysroot/lib/m54455\libc.a(lib_a-isspace.o)
                                 0x9d (size before relaxing)
 .debug_str     0x0001e91a       0x49 c:/nburn/gcc-m68k/bin/../m68k-unknown-elf/sysroot/lib/m54455\libc.a(lib_a-malloc.o)
                                0x51c (size before relaxing)
 .debug_str     0x0001e963      0x1fb c:/nburn/gcc-m68k/bin/../m68k-unknown-elf/sysroot/lib/m54455\libc.a(lib_a-mallocr.o)
                                0x705 (size before relaxing)
 .debug_str     0x0001eb5e       0x4d c:/nburn/gcc-m68k/bin/../m68k-unknown-elf/sysroot/lib/m54455\libc.a(lib_a-memchr.o)
                                0x13e (size before relaxing)
 .debug_str     0x0001ebab       0x44 c:/nburn/gcc-m68k/bin/../m68k-unknown-elf/sysroot/lib/m54455\libc.a(lib_a-memcmp.o)
                                0x12e (size before relaxing)
 .debug_str     0x0001ebef       0x4e c:/nburn/gcc-m68k/bin/../m68k-unknown-elf/sysroot/lib/m54455\libc.a(lib_a-memmove.o)
                                0x149 (size before relaxing)
 .debug_str     0x0001ec3d       0x41 c:/nburn/gcc-m68k/bin/../m68k-unknown-elf/sysroot/lib/m54455\libc.a(lib_a-putc.o)
                                0x523 (size before relaxing)
 .debug_str     0x0001ec7e       0x49 c:/nburn/gcc-m68k/bin/../m68k-unknown-elf/sysroot/lib/m54455\libc.a(lib_a-puts.o)
                                0x558 (size before relaxing)
 .debug_str     0x0001ecc7       0x42 c:/nburn/gcc-m68k/bin/../m68k-unknown-elf/sysroot/lib/m54455\libc.a(lib_a-rand.o)
                                0x4ff (size before relaxing)
 .debug_str     0x0001ed09       0x45 c:/nburn/gcc-m68k/bin/../m68k-unknown-elf/sysroot/lib/m54455\libc.a(lib_a-realloc.o)
                                0x50d (size before relaxing)
 .debug_str     0x0001ed4e       0x39 c:/nburn/gcc-m68k/bin/../m68k-unknown-elf/sysroot/lib/m54455\libc.a(lib_a-reallocr.o)
                                0x5d9 (size before relaxing)
 .debug_str     0x0001ed87       0x44 c:/nburn/gcc-m68k/bin/../m68k-unknown-elf/sysroot/lib/m54455\libc.a(lib_a-setvbuf.o)
                                0x539 (size before relaxing)
 .debug_str     0x0001edcb       0xaa c:/nburn/gcc-m68k/bin/../m68k-unknown-elf/sysroot/lib/m54455\libc.a(lib_a-signal.o)
                                0x577 (size before relaxing)
 .debug_str     0x0001ee75       0x44 c:/nburn/gcc-m68k/bin/../m68k-unknown-elf/sysroot/lib/m54455\libc.a(lib_a-signalr.o)
                                0x503 (size before relaxing)
 .debug_str     0x0001eeb9       0x44 c:/nburn/gcc-m68k/bin/../m68k-unknown-elf/sysroot/lib/m54455\libc.a(lib_a-stpcpy.o)
                                0x127 (size before relaxing)
 .debug_str     0x0001eefd       0x44 c:/nburn/gcc-m68k/bin/../m68k-unknown-elf/sysroot/lib/m54455\libc.a(lib_a-strcat.o)
                                0x127 (size before relaxing)
 .debug_str     0x0001ef41       0x44 c:/nburn/gcc-m68k/bin/../m68k-unknown-elf/sysroot/lib/m54455\libc.a(lib_a-strcmp.o)
                                0x127 (size before relaxing)
 .debug_str     0x0001ef85       0x4a c:/nburn/gcc-m68k/bin/../m68k-unknown-elf/sysroot/lib/m54455\libc.a(lib_a-strcpy.o)
                                0x132 (size before relaxing)
 .debug_str     0x0001efcf       0x4a c:/nburn/gcc-m68k/bin/../m68k-unknown-elf/sysroot/lib/m54455\libc.a(lib_a-strlen.o)
                                0x134 (size before relaxing)
 .debug_str     0x0001f019       0x45 c:/nburn/gcc-m68k/bin/../m68k-unknown-elf/sysroot/lib/m54455\libc.a(lib_a-strncmp.o)
                                0x130 (size before relaxing)
 .debug_str     0x0001f05e       0x5b c:/nburn/gcc-m68k/bin/../m68k-unknown-elf/sysroot/lib/m54455\libc.a(lib_a-strncpy.o)
                                0x14c (size before relaxing)
 .debug_str     0x0001f0b9       0x55 c:/nburn/gcc-m68k/bin/../m68k-unknown-elf/sysroot/lib/m54455\libc.a(lib_a-strstr.o)
                                0x13f (size before relaxing)
 .debug_str     0x0001f10e       0x5e c:/nburn/gcc-m68k/bin/../m68k-unknown-elf/sysroot/lib/m54455\libc.a(lib_a-strtol.o)
                                0x52e (size before relaxing)
 .debug_str     0x0001f16c       0x4c c:/nburn/gcc-m68k/bin/../m68k-unknown-elf/sysroot/lib/m54455\libc.a(lib_a-tolower.o)
                                 0x9d (size before relaxing)
 .debug_str     0x0001f1b8       0x44 c:/nburn/gcc-m68k/bin/../m68k-unknown-elf/sysroot/lib/m54455\libc.a(lib_a-toupper.o)
                                 0x9d (size before relaxing)
 .debug_str     0x0001f1fc       0x49 c:/nburn/gcc-m68k/bin/../m68k-unknown-elf/sysroot/lib/m54455\libc.a(lib_a-wbuf.o)
                                0x52d (size before relaxing)
 .debug_str     0x0001f245       0x50 c:/nburn/gcc-m68k/bin/../m68k-unknown-elf/sysroot/lib/m54455\libc.a(lib_a-wsetup.o)
                                0x528 (size before relaxing)
 .debug_str     0x0001f295       0x46 c:/nburn/gcc-m68k/bin/../m68k-unknown-elf/sysroot/lib/m54455\libc.a(lib_a-__atexit.o)
                                0x542 (size before relaxing)
 .debug_str     0x0001f2db       0x4b c:/nburn/gcc-m68k/bin/../m68k-unknown-elf/sysroot/lib/m54455\libc.a(lib_a-ctype_.o)
                                 0xa5 (size before relaxing)
 .debug_str     0x0001f326       0x6c c:/nburn/gcc-m68k/bin/../m68k-unknown-elf/sysroot/lib/m54455\libc.a(lib_a-fflush.o)
                                0x569 (size before relaxing)
 .debug_str     0x0001f392      0x116 c:/nburn/gcc-m68k/bin/../m68k-unknown-elf/sysroot/lib/m54455\libc.a(lib_a-findfp.o)
                                0x61f (size before relaxing)
 .debug_str     0x0001f4a8       0x2e c:/nburn/gcc-m68k/bin/../m68k-unknown-elf/sysroot/lib/m54455\libc.a(lib_a-freer.o)
                                0x64f (size before relaxing)
 .debug_str     0x0001f4d6       0x51 c:/nburn/gcc-m68k/bin/../m68k-unknown-elf/sysroot/lib/m54455\libc.a(lib_a-fwalk.o)
                                0x50e (size before relaxing)
 .debug_str     0x0001f527       0x62 c:/nburn/gcc-m68k/bin/../m68k-unknown-elf/sysroot/lib/m54455\libc.a(lib_a-makebuf.o)
                                0x60b (size before relaxing)
 .debug_str     0x0001f589       0x92 c:/nburn/gcc-m68k/bin/../m68k-unknown-elf/sysroot/lib/m54455\libc.a(lib_a-stdio.o)
                                0x554 (size before relaxing)
 .debug_str     0x0001f61b       0x43 c:/nburn/gcc-m68k/bin/../m68k-unknown-elf/sysroot/lib/m54455\libc.a(lib_a-writer.o)
                                0x4fa (size before relaxing)
 .debug_str     0x0001f65e       0x43 c:/nburn/gcc-m68k/bin/../m68k-unknown-elf/sysroot/lib/m54455\libc.a(lib_a-closer.o)
                                0x4f3 (size before relaxing)
 .debug_str     0x0001f6a1       0x4d c:/nburn/gcc-m68k/bin/../m68k-unknown-elf/sysroot/lib/m54455\libc.a(lib_a-fclose.o)
                                0x556 (size before relaxing)
 .debug_str     0x0001f6ee       0x49 c:/nburn/gcc-m68k/bin/../m68k-unknown-elf/sysroot/lib/m54455\libc.a(lib_a-fstatr.o)
                                0x5df (size before relaxing)
 .debug_str     0x0001f737       0x44 c:/nburn/gcc-m68k/bin/../m68k-unknown-elf/sysroot/lib/m54455\libc.a(lib_a-isattyr.o)
                                0x4f6 (size before relaxing)
 .debug_str     0x0001f77b       0x43 c:/nburn/gcc-m68k/bin/../m68k-unknown-elf/sysroot/lib/m54455\libc.a(lib_a-lseekr.o)
                                0x4fa (size before relaxing)
 .debug_str     0x0001f7be       0x42 c:/nburn/gcc-m68k/bin/../m68k-unknown-elf/sysroot/lib/m54455\libc.a(lib_a-readr.o)
                                0x4f7 (size before relaxing)

.debug_loc      0x00000000    0x6dccc
 *(.debug_loc)
 .debug_loc     0x00000000      0x1db main.o
 .debug_loc     0x000001db      0x26b Utility.o
 .debug_loc     0x00000446       0xe0 Nav.o
 .debug_loc     0x00000526      0xb0a Logger.o
 .debug_loc     0x00001030      0x1be Drivers\servodrive.o
 .debug_loc     0x000011ee      0x41d Drivers\pwm.o
 .debug_loc     0x0000160b      0xa3d Drivers\introspec.o
 .debug_loc     0x00002048       0x85 Drivers\dsm2.o
 .debug_loc     0x000020cd      0x608 Drivers\SpinningLidar.o
 .debug_loc     0x000026d5      0x110 Drivers\Odometer.o
 .debug_loc     0x000027e5      0x17c Drivers\MadgwickFilter.o
 .debug_loc     0x00002961     0x8890 Drivers\MPU9250.o
 .debug_loc     0x0000b1f1       0xc0 Drivers\LidarPWM.o
 .debug_loc     0x0000b2b1      0x1c2 Drivers\LCD.o
 .debug_loc     0x0000b473      0x27e Drivers\IMUSetupAndSample.o
 .debug_loc     0x0000b6f1       0x40 htmldata.o
 .debug_loc     0x0000b731     0x18b1 C:\Nburn/lib/NANO54415.a(serial.o)
 .debug_loc     0x0000cfe2      0x120 C:\Nburn/lib/NANO54415.a(pins.o)
 .debug_loc     0x0000d102      0x4c3 C:\Nburn/lib/NANO54415.a(FlashOps.o)
 .debug_loc     0x0000d5c5      0x86d C:\Nburn/lib/NANO54415.a(HiResTimer.o)
 .debug_loc     0x0000de32      0x2cc C:\Nburn/lib/NANO54415.a(pin_irq.o)
 .debug_loc     0x0000e0fe      0x384 C:\Nburn/lib/NANO54415.a(bsp.o)
 .debug_loc     0x0000e482      0x144 C:\Nburn/lib/NANO54415.a(localio.o)
 .debug_loc     0x0000e5c6      0xb21 C:\Nburn/lib/NANO54415.a(multichanneli2c.o)
 .debug_loc     0x0000f0e7       0x20 C:\Nburn/lib/NANO54415.a(defpins.o)
 .debug_loc     0x0000f107     0x12d8 C:\Nburn/lib/NANO54415.a(SPIFlash.o)
 .debug_loc     0x000103df     0x11ae C:\Nburn/lib/NANO54415.a(i2c_class.o)
 .debug_loc     0x0001158d       0x7e C:\Nburn/lib/NetBurner.a(main.o)
 .debug_loc     0x0001160b      0x310 C:\Nburn/lib/NetBurner.a(ucosmcfc.o)
 .debug_loc     0x0001191b      0xff9 C:\Nburn/lib/NetBurner.a(ucos.o)
 .debug_loc     0x00012914       0x20 C:\Nburn/lib/NetBurner.a(cppmain.o)
 .debug_loc     0x00012934      0x15a C:\Nburn/lib/NetBurner.a(debugtrap.o)
 .debug_loc     0x00012a8e      0x2ce C:\Nburn/lib/NetBurner.a(ucosmain.o)
 .debug_loc     0x00012d5c      0x915 C:\Nburn/lib/NetBurner.a(fileio.o)
 .debug_loc     0x00013671      0x840 C:\Nburn/lib/NetBurner.a(system.o)
 .debug_loc     0x00013eb1      0xfbe C:\Nburn/lib/NetBurner.a(utils.o)
 .debug_loc     0x00014e6f     0x23e2 C:\Nburn/lib/NetBurner.a(ip.o)
 .debug_loc     0x00017251      0xe54 C:\Nburn/lib/NetBurner.a(buffers.o)
 .debug_loc     0x000180a5     0x450e C:\Nburn/lib/NetBurner.a(arp.o)
 .debug_loc     0x0001c5b3     0x2ab9 C:\Nburn/lib/NetBurner.a(udp.o)
 .debug_loc     0x0001f06c     0x17be C:\Nburn/lib/NetBurner.a(ftpd.o)
 .debug_loc     0x0002082a     0xc1b2 C:\Nburn/lib/NetBurner.a(tcp.o)
 .debug_loc     0x0002c9dc      0x350 C:\Nburn/lib/NetBurner.a(extraio.o)
 .debug_loc     0x0002cd2c      0x829 C:\Nburn/lib/NetBurner.a(http.o)
 .debug_loc     0x0002d555     0x10ca C:\Nburn/lib/NetBurner.a(httpinternal.o)
 .debug_loc     0x0002e61f       0xad C:\Nburn/lib/NetBurner.a(httpstricmp.o)
 .debug_loc     0x0002e6cc      0xce7 C:\Nburn/lib/NetBurner.a(htmldecomp.o)
 .debug_loc     0x0002f3b3     0x1765 C:\Nburn/lib/NetBurner.a(iosys.o)
 .debug_loc     0x00030b18       0x3f C:\Nburn/lib/NetBurner.a(new_ops.o)
 .debug_loc     0x00030b57      0xc00 C:\Nburn/lib/NetBurner.a(autoip.o)
 .debug_loc     0x00031757     0x5c98 C:\Nburn/lib/NetBurner.a(dhcpc.o)
 .debug_loc     0x000373ef      0x5e0 C:\Nburn/lib/NetBurner.a(netinterface.o)
 .debug_loc     0x000379cf      0x1f9 C:\Nburn/lib/NetBurner.a(taskmon.o)
 .debug_loc     0x00037bc8      0xd6e C:\Nburn/lib/NetBurner.a(smarttrap.o)
 .debug_loc     0x00038936      0x3a2 C:\Nburn/lib/NetBurner.a(autoupdate.o)
 .debug_loc     0x00038cd8       0x80 C:\Nburn/lib/NetBurner.a(device.o)
 .debug_loc     0x00038d58     0x2a2a C:\Nburn/lib/NetBurner.a(nbiprintf.o)
 .debug_loc     0x0003b782       0x88 C:\Nburn/lib/NetBurner.a(nbprintf.o)
 .debug_loc     0x0003b80a      0x388 C:\Nburn/lib/NetBurner.a(nbsiprintf.o)
 .debug_loc     0x0003bb92      0x5cb C:\Nburn/lib/NetBurner.a(nbsprintf.o)
 .debug_loc     0x0003c15d       0x20 C:\Nburn/lib/NetBurner.a(weakumain.o)
 .debug_loc     0x0003c17d       0x20 C:\Nburn/lib/NetBurner.a(cusermain.o)
 .debug_loc     0x0003c19d      0x163 C:\Nburn/lib/NetBurner.a(fdprintf.o)
 .debug_loc     0x0003c300     0x1722 C:\Nburn/lib/NetBurner.a(ipv6_addr.o)
 .debug_loc     0x0003da22     0x113e C:\Nburn/lib/NetBurner.a(ipv6_tcp.o)
 .debug_loc     0x0003eb60     0xa589 C:\Nburn/lib/NetBurner.a(ipv6_ip.o)
 .debug_loc     0x000490e9     0x10b0 C:\Nburn/lib/NetBurner.a(ipv6_udp.o)
 .debug_loc     0x0004a199      0x17b C:\Nburn/lib/NetBurner.a(ipv6_printhelp.o)
 .debug_loc     0x0004a314      0x615 C:\Nburn/lib/NetBurner.a(ipv6_extensions.o)
 .debug_loc     0x0004a929      0x376 C:\Nburn/lib/NetBurner.a(ipv6_multicast.o)
 .debug_loc     0x0004ac9f      0x279 C:\Nburn/lib/NetBurner.a(ipv6_show.o)
 .debug_loc     0x0004af18     0x3b57 C:\Nburn/lib/NetBurner.a(ipv6_dhcp.o)
 .debug_loc     0x0004ea6f     0x15f1 C:\Nburn/lib/NetBurner.a(multicast.o)
 .debug_loc     0x00050060      0x3dc C:\Nburn/lib/NetBurner.a(random.o)
 .debug_loc     0x0005043c      0x433 C:\Nburn/lib/NetBurner.a(netrx.o)
 .debug_loc     0x0005086f     0x185f C:\Nburn/lib/NetBurner.a(nbfloatprint.o)
 .debug_loc     0x000520ce      0x183 C:\Nburn/lib/NetBurner.a(fdiprintf.o)
 .debug_loc     0x00052251      0xed6 C:\Nburn/lib/NetBurner.a(md5c.o)
 .debug_loc     0x00053127       0x40 c:/nburn/gcc-m68k/bin/../m68k-unknown-elf/sysroot/lib/m54455\libstdc++.a(eh_terminate.o)
 .debug_loc     0x00053167      0x14f c:/nburn/gcc-m68k/bin/../m68k-unknown-elf/sysroot/lib/m54455\libstdc++.a(eh_catch.o)
 .debug_loc     0x000532b6      0xf23 c:/nburn/gcc-m68k/bin/../m68k-unknown-elf/sysroot/lib/m54455\libstdc++.a(eh_personality.o)
 .debug_loc     0x000541d9       0xb8 c:/nburn/gcc-m68k/bin/../m68k-unknown-elf/sysroot/lib/m54455\libstdc++.a(vterminate.o)
 .debug_loc     0x00054291      0x2d5 c:/nburn/gcc-m68k/bin/../m68k-unknown-elf/sysroot/lib/m54455\libstdc++.a(eh_alloc.o)
 .debug_loc     0x00054566     0x3784 c:/nburn/gcc-m68k/bin/../m68k-unknown-elf/sysroot/lib/m54455\libstdc++.a(cp-demangle.o)
 .debug_loc     0x00057cea       0x5c c:/nburn/gcc-m68k/bin/../m68k-unknown-elf/sysroot/lib/m54455\libstdc++.a(eh_throw.o)
 .debug_loc     0x00057d46       0x7d c:/nburn/gcc-m68k/bin/../m68k-unknown-elf/sysroot/lib/m54455\libstdc++.a(eh_type.o)
 .debug_loc     0x00057dc3      0x10b c:/nburn/gcc-m68k/bin/../m68k-unknown-elf/sysroot/lib/m54455\libstdc++.a(si_class_type_info.o)
 .debug_loc     0x00057ece      0x14b c:/nburn/gcc-m68k/bin/../m68k-unknown-elf/sysroot/lib/m54455\libstdc++.a(class_type_info.o)
 .debug_loc     0x00058019     0x38e4 C:\Nburn/lib/NANO54415.a(ethernet.o)
 .debug_loc     0x0005b8fd      0x28e C:\Nburn/lib/NANO54415.a(etherprint.o)
 .debug_loc     0x0005bb8b      0x444 C:\Nburn/lib/NANO54415.a(emulticast.o)
 .debug_loc     0x0005bfcf      0x322 C:\Nburn/lib/NANO54415.a(ether2nd.o)
 .debug_loc     0x0005c2f1      0x8c7 C:\Nburn/lib/NANO54415.a(etherswitch.o)
 .debug_loc     0x0005cbb8     0x1416 C:\Nburn/lib/NetBurner.a(multiconfig.o)
 .debug_loc     0x0005dfce       0x3a c:/nburn/gcc-m68k/bin/../m68k-unknown-elf/sysroot/lib/m54455\libm.a(lib_a-s_cos.o)
 .debug_loc     0x0005e008       0x6a c:/nburn/gcc-m68k/bin/../m68k-unknown-elf/sysroot/lib/m54455\libm.a(lib_a-s_fpclassify.o)
 .debug_loc     0x0005e072      0x1c5 c:/nburn/gcc-m68k/bin/../m68k-unknown-elf/sysroot/lib/m54455\libm.a(lib_a-s_modf.o)
 .debug_loc     0x0005e237      0x1f3 c:/nburn/gcc-m68k/bin/../m68k-unknown-elf/sysroot/lib/m54455\libm.a(lib_a-s_round.o)
 .debug_loc     0x0005e42a       0x3a c:/nburn/gcc-m68k/bin/../m68k-unknown-elf/sysroot/lib/m54455\libm.a(lib_a-s_sin.o)
 .debug_loc     0x0005e464       0xf4 c:/nburn/gcc-m68k/bin/../m68k-unknown-elf/sysroot/lib/m54455\libm.a(lib_a-w_pow.o)
 .debug_loc     0x0005e558       0x1e c:/nburn/gcc-m68k/bin/../m68k-unknown-elf/sysroot/lib/m54455\libm.a(lib_a-wf_asin.o)
 .debug_loc     0x0005e576       0x29 c:/nburn/gcc-m68k/bin/../m68k-unknown-elf/sysroot/lib/m54455\libm.a(lib_a-wf_sqrt.o)
 .debug_loc     0x0005e59f      0xc56 c:/nburn/gcc-m68k/bin/../m68k-unknown-elf/sysroot/lib/m54455\libm.a(lib_a-e_pow.o)
 .debug_loc     0x0005f1f5      0x413 c:/nburn/gcc-m68k/bin/../m68k-unknown-elf/sysroot/lib/m54455\libm.a(lib_a-e_rem_pio2.o)
 .debug_loc     0x0005f608      0x282 c:/nburn/gcc-m68k/bin/../m68k-unknown-elf/sysroot/lib/m54455\libm.a(lib_a-e_sqrt.o)
 .debug_loc     0x0005f88a      0x4df c:/nburn/gcc-m68k/bin/../m68k-unknown-elf/sysroot/lib/m54455\libm.a(lib_a-ef_asin.o)
 .debug_loc     0x0005fd69      0x33d c:/nburn/gcc-m68k/bin/../m68k-unknown-elf/sysroot/lib/m54455\libm.a(lib_a-ef_atan2.o)
 .debug_loc     0x000600a6      0x17b c:/nburn/gcc-m68k/bin/../m68k-unknown-elf/sysroot/lib/m54455\libm.a(lib_a-ef_sqrt.o)
 .debug_loc     0x00060221      0x12c c:/nburn/gcc-m68k/bin/../m68k-unknown-elf/sysroot/lib/m54455\libm.a(lib_a-k_cos.o)
 .debug_loc     0x0006034d      0xa3a c:/nburn/gcc-m68k/bin/../m68k-unknown-elf/sysroot/lib/m54455\libm.a(lib_a-k_rem_pio2.o)
 .debug_loc     0x00060d87       0x4b c:/nburn/gcc-m68k/bin/../m68k-unknown-elf/sysroot/lib/m54455\libm.a(lib_a-k_sin.o)
 .debug_loc     0x00060dd2       0x14 c:/nburn/gcc-m68k/bin/../m68k-unknown-elf/sysroot/lib/m54455\libm.a(lib_a-s_fabs.o)
 .debug_loc     0x00060de6      0x143 c:/nburn/gcc-m68k/bin/../m68k-unknown-elf/sysroot/lib/m54455\libm.a(lib_a-s_floor.o)
 .debug_loc     0x00060f29      0x3c5 c:/nburn/gcc-m68k/bin/../m68k-unknown-elf/sysroot/lib/m54455\libm.a(lib_a-s_rint.o)
 .debug_loc     0x000612ee      0x1cf c:/nburn/gcc-m68k/bin/../m68k-unknown-elf/sysroot/lib/m54455\libm.a(lib_a-s_scalbn.o)
 .debug_loc     0x000614bd      0x28c c:/nburn/gcc-m68k/bin/../m68k-unknown-elf/sysroot/lib/m54455\libm.a(lib_a-sf_atan.o)
 .debug_loc     0x00061749       0x2a c:/nburn/gcc-m68k/bin/../m68k-unknown-elf/sysroot/lib/m54455\libm.a(lib_a-sf_fabs.o)
 .debug_loc     0x00061773       0x14 c:/nburn/gcc-m68k/bin/../m68k-unknown-elf/sysroot/lib/m54455\libm.a(lib_a-s_copysign.o)
 .debug_loc     0x00061787       0x58 c:/nburn/gcc-m68k/bin/../lib/gcc/m68k-unknown-elf/5.2.0/m54455\libgcc.a(_muldi3.o)
 .debug_loc     0x000617df       0x77 c:/nburn/gcc-m68k/bin/../lib/gcc/m68k-unknown-elf/5.2.0/m54455\libgcc.a(_fixunsdfdi.o)
 .debug_loc     0x00061856     0x162e c:/nburn/gcc-m68k/bin/../lib/gcc/m68k-unknown-elf/5.2.0/m54455\libgcc.a(_udivdi3.o)
 .debug_loc     0x00062e84      0xeb3 c:/nburn/gcc-m68k/bin/../lib/gcc/m68k-unknown-elf/5.2.0/m54455\libgcc.a(_umoddi3.o)
 .debug_loc     0x00063d37      0x6f6 c:/nburn/gcc-m68k/bin/../lib/gcc/m68k-unknown-elf/5.2.0/m54455\libgcc.a(fpgnulib.o)
 .debug_loc     0x0006442d     0x4f86 c:/nburn/gcc-m68k/bin/../lib/gcc/m68k-unknown-elf/5.2.0/m54455\libgcc.a(unwind-dw2.o)
 .debug_loc     0x000693b3     0x1f1e c:/nburn/gcc-m68k/bin/../lib/gcc/m68k-unknown-elf/5.2.0/m54455\libgcc.a(unwind-dw2-fde.o)
 .debug_loc     0x0006b2d1       0xa3 c:/nburn/gcc-m68k/bin/../m68k-unknown-elf/sysroot/lib/m54455\libc.a(lib_a-bsearch.o)
 .debug_loc     0x0006b374       0x1f c:/nburn/gcc-m68k/bin/../m68k-unknown-elf/sysroot/lib/m54455\libc.a(lib_a-fputc.o)
 .debug_loc     0x0006b393       0x1f c:/nburn/gcc-m68k/bin/../m68k-unknown-elf/sysroot/lib/m54455\libc.a(lib_a-fputs.o)
 .debug_loc     0x0006b3b2      0x3ec c:/nburn/gcc-m68k/bin/../m68k-unknown-elf/sysroot/lib/m54455\libc.a(lib_a-fvwrite.o)
 .debug_loc     0x0006b79e      0x642 c:/nburn/gcc-m68k/bin/../m68k-unknown-elf/sysroot/lib/m54455\libc.a(lib_a-mallocr.o)
 .debug_loc     0x0006bde0       0xac c:/nburn/gcc-m68k/bin/../m68k-unknown-elf/sysroot/lib/m54455\libc.a(lib_a-memchr.o)
 .debug_loc     0x0006be8c       0xd3 c:/nburn/gcc-m68k/bin/../m68k-unknown-elf/sysroot/lib/m54455\libc.a(lib_a-memcmp.o)
 .debug_loc     0x0006bf5f      0x13c c:/nburn/gcc-m68k/bin/../m68k-unknown-elf/sysroot/lib/m54455\libc.a(lib_a-memmove.o)
 .debug_loc     0x0006c09b       0x6f c:/nburn/gcc-m68k/bin/../m68k-unknown-elf/sysroot/lib/m54455\libc.a(lib_a-putc.o)
 .debug_loc     0x0006c10a       0x54 c:/nburn/gcc-m68k/bin/../m68k-unknown-elf/sysroot/lib/m54455\libc.a(lib_a-puts.o)
 .debug_loc     0x0006c15e       0x13 c:/nburn/gcc-m68k/bin/../m68k-unknown-elf/sysroot/lib/m54455\libc.a(lib_a-rand.o)
 .debug_loc     0x0006c171      0xbeb c:/nburn/gcc-m68k/bin/../m68k-unknown-elf/sysroot/lib/m54455\libc.a(lib_a-reallocr.o)
 .debug_loc     0x0006cd5c      0x153 c:/nburn/gcc-m68k/bin/../m68k-unknown-elf/sysroot/lib/m54455\libc.a(lib_a-setvbuf.o)
 .debug_loc     0x0006ceaf       0x80 c:/nburn/gcc-m68k/bin/../m68k-unknown-elf/sysroot/lib/m54455\libc.a(lib_a-signal.o)
 .debug_loc     0x0006cf2f       0x40 c:/nburn/gcc-m68k/bin/../m68k-unknown-elf/sysroot/lib/m54455\libc.a(lib_a-stpcpy.o)
 .debug_loc     0x0006cf6f       0x82 c:/nburn/gcc-m68k/bin/../m68k-unknown-elf/sysroot/lib/m54455\libc.a(lib_a-strcat.o)
 .debug_loc     0x0006cff1       0x68 c:/nburn/gcc-m68k/bin/../m68k-unknown-elf/sysroot/lib/m54455\libc.a(lib_a-strcmp.o)
 .debug_loc     0x0006d059       0x3d c:/nburn/gcc-m68k/bin/../m68k-unknown-elf/sysroot/lib/m54455\libc.a(lib_a-strcpy.o)
 .debug_loc     0x0006d096       0x33 c:/nburn/gcc-m68k/bin/../m68k-unknown-elf/sysroot/lib/m54455\libc.a(lib_a-strlen.o)
 .debug_loc     0x0006d0c9       0xfc c:/nburn/gcc-m68k/bin/../m68k-unknown-elf/sysroot/lib/m54455\libc.a(lib_a-strncmp.o)
 .debug_loc     0x0006d1c5       0xa5 c:/nburn/gcc-m68k/bin/../m68k-unknown-elf/sysroot/lib/m54455\libc.a(lib_a-strncpy.o)
 .debug_loc     0x0006d26a       0x3d c:/nburn/gcc-m68k/bin/../m68k-unknown-elf/sysroot/lib/m54455\libc.a(lib_a-strstr.o)
 .debug_loc     0x0006d2a7      0x1eb c:/nburn/gcc-m68k/bin/../m68k-unknown-elf/sysroot/lib/m54455\libc.a(lib_a-strtol.o)
 .debug_loc     0x0006d492       0x8b c:/nburn/gcc-m68k/bin/../m68k-unknown-elf/sysroot/lib/m54455\libc.a(lib_a-wbuf.o)
 .debug_loc     0x0006d51d       0x13 c:/nburn/gcc-m68k/bin/../m68k-unknown-elf/sysroot/lib/m54455\libc.a(lib_a-wsetup.o)
 .debug_loc     0x0006d530       0x85 c:/nburn/gcc-m68k/bin/../m68k-unknown-elf/sysroot/lib/m54455\libc.a(lib_a-__atexit.o)
 .debug_loc     0x0006d5b5      0x122 c:/nburn/gcc-m68k/bin/../m68k-unknown-elf/sysroot/lib/m54455\libc.a(lib_a-fflush.o)
 .debug_loc     0x0006d6d7       0x8b c:/nburn/gcc-m68k/bin/../m68k-unknown-elf/sysroot/lib/m54455\libc.a(lib_a-findfp.o)
 .debug_loc     0x0006d762      0x347 c:/nburn/gcc-m68k/bin/../m68k-unknown-elf/sysroot/lib/m54455\libc.a(lib_a-freer.o)
 .debug_loc     0x0006daa9       0xc6 c:/nburn/gcc-m68k/bin/../m68k-unknown-elf/sysroot/lib/m54455\libc.a(lib_a-fwalk.o)
 .debug_loc     0x0006db6f       0x81 c:/nburn/gcc-m68k/bin/../m68k-unknown-elf/sysroot/lib/m54455\libc.a(lib_a-makebuf.o)
 .debug_loc     0x0006dbf0       0x85 c:/nburn/gcc-m68k/bin/../m68k-unknown-elf/sysroot/lib/m54455\libc.a(lib_a-stdio.o)
 .debug_loc     0x0006dc75       0x57 c:/nburn/gcc-m68k/bin/../m68k-unknown-elf/sysroot/lib/m54455\libc.a(lib_a-fclose.o)

.comment        0x00000000       0x1c
 .comment       0x00000000       0x1c c:/nburn/gcc-m68k/bin/../lib/gcc/m68k-unknown-elf/5.2.0/m54455/crtbegin.o
                                 0x1d (size before relaxing)
 .comment       0x0000001c       0x1d main.o
 .comment       0x0000001c       0x1d Utility.o
 .comment       0x0000001c       0x1d Nav.o
 .comment       0x0000001c       0x1d Logger.o
 .comment       0x0000001c       0x1d Drivers\servodrive.o
 .comment       0x0000001c       0x1d Drivers\pwm.o
 .comment       0x0000001c       0x1d Drivers\introspec.o
 .comment       0x0000001c       0x1d Drivers\dsm2.o
 .comment       0x0000001c       0x1d Drivers\SpinningLidar.o
 .comment       0x0000001c       0x1d Drivers\Odometer.o
 .comment       0x0000001c       0x1d Drivers\MadgwickFilter.o
 .comment       0x0000001c       0x1d Drivers\MPU9250.o
 .comment       0x0000001c       0x1d Drivers\LidarPWM.o
 .comment       0x0000001c       0x1d Drivers\LCD.o
 .comment       0x0000001c       0x1d Drivers\IMUSetupAndSample.o
 .comment       0x0000001c       0x1d htmldata.o
 .comment       0x0000001c       0x1d C:\Nburn/lib/NANO54415.a(serial.o)
 .comment       0x0000001c       0x1d C:\Nburn/lib/NANO54415.a(pins.o)
 .comment       0x0000001c       0x1d C:\Nburn/lib/NANO54415.a(FlashOps.o)
 .comment       0x0000001c       0x1d C:\Nburn/lib/NANO54415.a(HiResTimer.o)
 .comment       0x0000001c       0x1d C:\Nburn/lib/NANO54415.a(pin_irq.o)
 .comment       0x0000001c       0x1d C:\Nburn/lib/NANO54415.a(bsp.o)
 .comment       0x0000001c       0x1d C:\Nburn/lib/NANO54415.a(localio.o)
 .comment       0x0000001c       0x1d C:\Nburn/lib/NANO54415.a(multichanneli2c.o)
 .comment       0x0000001c       0x1d C:\Nburn/lib/NANO54415.a(defpins.o)
 .comment       0x0000001c       0x1d C:\Nburn/lib/NANO54415.a(SPIFlash.o)
 .comment       0x0000001c       0x1d C:\Nburn/lib/NANO54415.a(i2c_class.o)
 .comment       0x0000001c       0x1d C:\Nburn/lib/NetBurner.a(main.o)
 .comment       0x0000001c       0x1d C:\Nburn/lib/NetBurner.a(ucosmcfc.o)
 .comment       0x0000001c       0x1d C:\Nburn/lib/NetBurner.a(ucos.o)
 .comment       0x0000001c       0x1d C:\Nburn/lib/NetBurner.a(cppmain.o)
 .comment       0x0000001c       0x1d C:\Nburn/lib/NetBurner.a(debugtrap.o)
 .comment       0x0000001c       0x1d C:\Nburn/lib/NetBurner.a(ucosmain.o)
 .comment       0x0000001c       0x1d C:\Nburn/lib/NetBurner.a(fileio.o)
 .comment       0x0000001c       0x1d C:\Nburn/lib/NetBurner.a(system.o)
 .comment       0x0000001c       0x1d C:\Nburn/lib/NetBurner.a(utils.o)
 .comment       0x0000001c       0x1d C:\Nburn/lib/NetBurner.a(ip.o)
 .comment       0x0000001c       0x1d C:\Nburn/lib/NetBurner.a(buffers.o)
 .comment       0x0000001c       0x1d C:\Nburn/lib/NetBurner.a(arp.o)
 .comment       0x0000001c       0x1d C:\Nburn/lib/NetBurner.a(udp.o)
 .comment       0x0000001c       0x1d C:\Nburn/lib/NetBurner.a(ftpd.o)
 .comment       0x0000001c       0x1d C:\Nburn/lib/NetBurner.a(tcp.o)
 .comment       0x0000001c       0x1d C:\Nburn/lib/NetBurner.a(extraio.o)
 .comment       0x0000001c       0x1d C:\Nburn/lib/NetBurner.a(http.o)
 .comment       0x0000001c       0x1d C:\Nburn/lib/NetBurner.a(httpinternal.o)
 .comment       0x0000001c       0x1d C:\Nburn/lib/NetBurner.a(httpstricmp.o)
 .comment       0x0000001c       0x1d C:\Nburn/lib/NetBurner.a(htmldecomp.o)
 .comment       0x0000001c       0x1d C:\Nburn/lib/NetBurner.a(iosys.o)
 .comment       0x0000001c       0x1d C:\Nburn/lib/NetBurner.a(new_ops.o)
 .comment       0x0000001c       0x1d C:\Nburn/lib/NetBurner.a(autoip.o)
 .comment       0x0000001c       0x1d C:\Nburn/lib/NetBurner.a(dhcpc.o)
 .comment       0x0000001c       0x1d C:\Nburn/lib/NetBurner.a(netinterface.o)
 .comment       0x0000001c       0x1d C:\Nburn/lib/NetBurner.a(taskmon.o)
 .comment       0x0000001c       0x1d C:\Nburn/lib/NetBurner.a(smarttrap.o)
 .comment       0x0000001c       0x1d C:\Nburn/lib/NetBurner.a(autoupdate.o)
 .comment       0x0000001c       0x1d C:\Nburn/lib/NetBurner.a(device.o)
 .comment       0x0000001c       0x1d C:\Nburn/lib/NetBurner.a(nbiprintf.o)
 .comment       0x0000001c       0x1d C:\Nburn/lib/NetBurner.a(nbprintf.o)
 .comment       0x0000001c       0x1d C:\Nburn/lib/NetBurner.a(nbsiprintf.o)
 .comment       0x0000001c       0x1d C:\Nburn/lib/NetBurner.a(nbsprintf.o)
 .comment       0x0000001c       0x1d C:\Nburn/lib/NetBurner.a(weakumain.o)
 .comment       0x0000001c       0x1d C:\Nburn/lib/NetBurner.a(cusermain.o)
 .comment       0x0000001c       0x1d C:\Nburn/lib/NetBurner.a(fdprintf.o)
 .comment       0x0000001c       0x1d C:\Nburn/lib/NetBurner.a(websocket_handler.o)
 .comment       0x0000001c       0x1d C:\Nburn/lib/NetBurner.a(ipv6_addr.o)
 .comment       0x0000001c       0x1d C:\Nburn/lib/NetBurner.a(ipv6_tcp.o)
 .comment       0x0000001c       0x1d C:\Nburn/lib/NetBurner.a(ipv6_ip.o)
 .comment       0x0000001c       0x1d C:\Nburn/lib/NetBurner.a(ipv6_udp.o)
 .comment       0x0000001c       0x1d C:\Nburn/lib/NetBurner.a(ipv6_printhelp.o)
 .comment       0x0000001c       0x1d C:\Nburn/lib/NetBurner.a(ipv6_extensions.o)
 .comment       0x0000001c       0x1d C:\Nburn/lib/NetBurner.a(ipv6_multicast.o)
 .comment       0x0000001c       0x1d C:\Nburn/lib/NetBurner.a(ipv6_show.o)
 .comment       0x0000001c       0x1d C:\Nburn/lib/NetBurner.a(ipv6_dhcp.o)
 .comment       0x0000001c       0x1d C:\Nburn/lib/NetBurner.a(multicast.o)
 .comment       0x0000001c       0x1d C:\Nburn/lib/NetBurner.a(random.o)
 .comment       0x0000001c       0x1d C:\Nburn/lib/NetBurner.a(netrx.o)
 .comment       0x0000001c       0x1d C:\Nburn/lib/NetBurner.a(nbfloatprint.o)
 .comment       0x0000001c       0x1d C:\Nburn/lib/NetBurner.a(fdiprintf.o)
 .comment       0x0000001c       0x1d C:\Nburn/lib/NetBurner.a(md5c.o)
 .comment       0x0000001c       0x1d c:/nburn/gcc-m68k/bin/../m68k-unknown-elf/sysroot/lib/m54455\libstdc++.a(pure.o)
 .comment       0x0000001c       0x1d c:/nburn/gcc-m68k/bin/../m68k-unknown-elf/sysroot/lib/m54455\libstdc++.a(eh_terminate.o)
 .comment       0x0000001c       0x1d c:/nburn/gcc-m68k/bin/../m68k-unknown-elf/sysroot/lib/m54455\libstdc++.a(del_op.o)
 .comment       0x0000001c       0x1d c:/nburn/gcc-m68k/bin/../m68k-unknown-elf/sysroot/lib/m54455\libstdc++.a(del_ops.o)
 .comment       0x0000001c       0x1d c:/nburn/gcc-m68k/bin/../m68k-unknown-elf/sysroot/lib/m54455\libstdc++.a(eh_unex_handler.o)
 .comment       0x0000001c       0x1d c:/nburn/gcc-m68k/bin/../m68k-unknown-elf/sysroot/lib/m54455\libstdc++.a(eh_term_handler.o)
 .comment       0x0000001c       0x1d c:/nburn/gcc-m68k/bin/../m68k-unknown-elf/sysroot/lib/m54455\libstdc++.a(eh_catch.o)
 .comment       0x0000001c       0x1d c:/nburn/gcc-m68k/bin/../m68k-unknown-elf/sysroot/lib/m54455\libstdc++.a(eh_personality.o)
 .comment       0x0000001c       0x1d c:/nburn/gcc-m68k/bin/../m68k-unknown-elf/sysroot/lib/m54455\libstdc++.a(eh_exception.o)
 .comment       0x0000001c       0x1d c:/nburn/gcc-m68k/bin/../m68k-unknown-elf/sysroot/lib/m54455\libstdc++.a(eh_globals.o)
 .comment       0x0000001c       0x1d c:/nburn/gcc-m68k/bin/../m68k-unknown-elf/sysroot/lib/m54455\libstdc++.a(vterminate.o)
 .comment       0x0000001c       0x1d c:/nburn/gcc-m68k/bin/../m68k-unknown-elf/sysroot/lib/m54455\libstdc++.a(eh_alloc.o)
 .comment       0x0000001c       0x1d c:/nburn/gcc-m68k/bin/../m68k-unknown-elf/sysroot/lib/m54455\libstdc++.a(cp-demangle.o)
 .comment       0x0000001c       0x1d c:/nburn/gcc-m68k/bin/../m68k-unknown-elf/sysroot/lib/m54455\libstdc++.a(eh_throw.o)
 .comment       0x0000001c       0x1d c:/nburn/gcc-m68k/bin/../m68k-unknown-elf/sysroot/lib/m54455\libstdc++.a(eh_type.o)
 .comment       0x0000001c       0x1d c:/nburn/gcc-m68k/bin/../m68k-unknown-elf/sysroot/lib/m54455\libstdc++.a(si_class_type_info.o)
 .comment       0x0000001c       0x1d c:/nburn/gcc-m68k/bin/../m68k-unknown-elf/sysroot/lib/m54455\libstdc++.a(eh_call.o)
 .comment       0x0000001c       0x1d c:/nburn/gcc-m68k/bin/../m68k-unknown-elf/sysroot/lib/m54455\libstdc++.a(class_type_info.o)
 .comment       0x0000001c       0x1d c:/nburn/gcc-m68k/bin/../m68k-unknown-elf/sysroot/lib/m54455\libstdc++.a(tinfo.o)
 .comment       0x0000001c       0x1d C:\Nburn/lib/NANO54415.a(ethernet.o)
 .comment       0x0000001c       0x1d C:\Nburn/lib/NANO54415.a(etherprint.o)
 .comment       0x0000001c       0x1d C:\Nburn/lib/NANO54415.a(emulticast.o)
 .comment       0x0000001c       0x1d C:\Nburn/lib/NANO54415.a(ether2nd.o)
 .comment       0x0000001c       0x1d C:\Nburn/lib/NANO54415.a(etherswitch.o)
 .comment       0x0000001c       0x1d C:\Nburn/lib/NANO54415.a(weak_autoenet_var.o)
 .comment       0x0000001c       0x1d C:\Nburn/lib/NetBurner.a(multiconfig.o)
 .comment       0x0000001c       0x1d c:/nburn/gcc-m68k/bin/../m68k-unknown-elf/sysroot/lib/m54455\libm.a(lib_a-s_cos.o)
 .comment       0x0000001c       0x1d c:/nburn/gcc-m68k/bin/../m68k-unknown-elf/sysroot/lib/m54455\libm.a(lib_a-s_fpclassify.o)
 .comment       0x0000001c       0x1d c:/nburn/gcc-m68k/bin/../m68k-unknown-elf/sysroot/lib/m54455\libm.a(lib_a-s_modf.o)
 .comment       0x0000001c       0x1d c:/nburn/gcc-m68k/bin/../m68k-unknown-elf/sysroot/lib/m54455\libm.a(lib_a-s_round.o)
 .comment       0x0000001c       0x1d c:/nburn/gcc-m68k/bin/../m68k-unknown-elf/sysroot/lib/m54455\libm.a(lib_a-s_sin.o)
 .comment       0x0000001c       0x1d c:/nburn/gcc-m68k/bin/../m68k-unknown-elf/sysroot/lib/m54455\libm.a(lib_a-w_pow.o)
 .comment       0x0000001c       0x1d c:/nburn/gcc-m68k/bin/../m68k-unknown-elf/sysroot/lib/m54455\libm.a(lib_a-wf_asin.o)
 .comment       0x0000001c       0x1d c:/nburn/gcc-m68k/bin/../m68k-unknown-elf/sysroot/lib/m54455\libm.a(lib_a-wf_atan2.o)
 .comment       0x0000001c       0x1d c:/nburn/gcc-m68k/bin/../m68k-unknown-elf/sysroot/lib/m54455\libm.a(lib_a-wf_sqrt.o)
 .comment       0x0000001c       0x1d c:/nburn/gcc-m68k/bin/../m68k-unknown-elf/sysroot/lib/m54455\libm.a(lib_a-e_pow.o)
 .comment       0x0000001c       0x1d c:/nburn/gcc-m68k/bin/../m68k-unknown-elf/sysroot/lib/m54455\libm.a(lib_a-e_rem_pio2.o)
 .comment       0x0000001c       0x1d c:/nburn/gcc-m68k/bin/../m68k-unknown-elf/sysroot/lib/m54455\libm.a(lib_a-e_sqrt.o)
 .comment       0x0000001c       0x1d c:/nburn/gcc-m68k/bin/../m68k-unknown-elf/sysroot/lib/m54455\libm.a(lib_a-ef_asin.o)
 .comment       0x0000001c       0x1d c:/nburn/gcc-m68k/bin/../m68k-unknown-elf/sysroot/lib/m54455\libm.a(lib_a-ef_atan2.o)
 .comment       0x0000001c       0x1d c:/nburn/gcc-m68k/bin/../m68k-unknown-elf/sysroot/lib/m54455\libm.a(lib_a-ef_sqrt.o)
 .comment       0x0000001c       0x1d c:/nburn/gcc-m68k/bin/../m68k-unknown-elf/sysroot/lib/m54455\libm.a(lib_a-k_cos.o)
 .comment       0x0000001c       0x1d c:/nburn/gcc-m68k/bin/../m68k-unknown-elf/sysroot/lib/m54455\libm.a(lib_a-k_rem_pio2.o)
 .comment       0x0000001c       0x1d c:/nburn/gcc-m68k/bin/../m68k-unknown-elf/sysroot/lib/m54455\libm.a(lib_a-k_sin.o)
 .comment       0x0000001c       0x1d c:/nburn/gcc-m68k/bin/../m68k-unknown-elf/sysroot/lib/m54455\libm.a(lib_a-s_fabs.o)
 .comment       0x0000001c       0x1d c:/nburn/gcc-m68k/bin/../m68k-unknown-elf/sysroot/lib/m54455\libm.a(lib_a-s_finite.o)
 .comment       0x0000001c       0x1d c:/nburn/gcc-m68k/bin/../m68k-unknown-elf/sysroot/lib/m54455\libm.a(lib_a-s_floor.o)
 .comment       0x0000001c       0x1d c:/nburn/gcc-m68k/bin/../m68k-unknown-elf/sysroot/lib/m54455\libm.a(lib_a-s_lib_ver.o)
 .comment       0x0000001c       0x1d c:/nburn/gcc-m68k/bin/../m68k-unknown-elf/sysroot/lib/m54455\libm.a(lib_a-s_matherr.o)
 .comment       0x0000001c       0x1d c:/nburn/gcc-m68k/bin/../m68k-unknown-elf/sysroot/lib/m54455\libm.a(lib_a-s_nan.o)
 .comment       0x0000001c       0x1d c:/nburn/gcc-m68k/bin/../m68k-unknown-elf/sysroot/lib/m54455\libm.a(lib_a-s_rint.o)
 .comment       0x0000001c       0x1d c:/nburn/gcc-m68k/bin/../m68k-unknown-elf/sysroot/lib/m54455\libm.a(lib_a-s_scalbn.o)
 .comment       0x0000001c       0x1d c:/nburn/gcc-m68k/bin/../m68k-unknown-elf/sysroot/lib/m54455\libm.a(lib_a-sf_atan.o)
 .comment       0x0000001c       0x1d c:/nburn/gcc-m68k/bin/../m68k-unknown-elf/sysroot/lib/m54455\libm.a(lib_a-sf_fabs.o)
 .comment       0x0000001c       0x1d c:/nburn/gcc-m68k/bin/../m68k-unknown-elf/sysroot/lib/m54455\libm.a(lib_a-sf_fpclassify.o)
 .comment       0x0000001c       0x1d c:/nburn/gcc-m68k/bin/../m68k-unknown-elf/sysroot/lib/m54455\libm.a(lib_a-s_copysign.o)
 .comment       0x0000001c       0x1d c:/nburn/gcc-m68k/bin/../lib/gcc/m68k-unknown-elf/5.2.0/m54455\libgcc.a(_muldi3.o)
 .comment       0x0000001c       0x1d c:/nburn/gcc-m68k/bin/../lib/gcc/m68k-unknown-elf/5.2.0/m54455\libgcc.a(_fixunsdfsi.o)
 .comment       0x0000001c       0x1d c:/nburn/gcc-m68k/bin/../lib/gcc/m68k-unknown-elf/5.2.0/m54455\libgcc.a(_fixunsdfdi.o)
 .comment       0x0000001c       0x1d c:/nburn/gcc-m68k/bin/../lib/gcc/m68k-unknown-elf/5.2.0/m54455\libgcc.a(_udivdi3.o)
 .comment       0x0000001c       0x1d c:/nburn/gcc-m68k/bin/../lib/gcc/m68k-unknown-elf/5.2.0/m54455\libgcc.a(_umoddi3.o)
 .comment       0x0000001c       0x1d c:/nburn/gcc-m68k/bin/../lib/gcc/m68k-unknown-elf/5.2.0/m54455\libgcc.a(fpgnulib.o)
 .comment       0x0000001c       0x1d c:/nburn/gcc-m68k/bin/../lib/gcc/m68k-unknown-elf/5.2.0/m54455\libgcc.a(unwind-dw2.o)
 .comment       0x0000001c       0x1d c:/nburn/gcc-m68k/bin/../lib/gcc/m68k-unknown-elf/5.2.0/m54455\libgcc.a(unwind-dw2-fde.o)
 .comment       0x0000001c       0x1d c:/nburn/gcc-m68k/bin/../m68k-unknown-elf/sysroot/lib/m54455\libc.a(lib_a-abort.o)
 .comment       0x0000001c       0x1d c:/nburn/gcc-m68k/bin/../m68k-unknown-elf/sysroot/lib/m54455\libc.a(lib_a-atexit.o)
 .comment       0x0000001c       0x1d c:/nburn/gcc-m68k/bin/../m68k-unknown-elf/sysroot/lib/m54455\libc.a(lib_a-atoi.o)
 .comment       0x0000001c       0x1d c:/nburn/gcc-m68k/bin/../m68k-unknown-elf/sysroot/lib/m54455\libc.a(lib_a-bsearch.o)
 .comment       0x0000001c       0x1d c:/nburn/gcc-m68k/bin/../m68k-unknown-elf/sysroot/lib/m54455\libc.a(lib_a-cxa_atexit.o)
 .comment       0x0000001c       0x1d c:/nburn/gcc-m68k/bin/../m68k-unknown-elf/sysroot/lib/m54455\libc.a(lib_a-errno.o)
 .comment       0x0000001c       0x1d c:/nburn/gcc-m68k/bin/../m68k-unknown-elf/sysroot/lib/m54455\libc.a(lib_a-fputc.o)
 .comment       0x0000001c       0x1d c:/nburn/gcc-m68k/bin/../m68k-unknown-elf/sysroot/lib/m54455\libc.a(lib_a-fputs.o)
 .comment       0x0000001c       0x1d c:/nburn/gcc-m68k/bin/../m68k-unknown-elf/sysroot/lib/m54455\libc.a(lib_a-fvwrite.o)
 .comment       0x0000001c       0x1d c:/nburn/gcc-m68k/bin/../m68k-unknown-elf/sysroot/lib/m54455\libc.a(lib_a-impure.o)
 .comment       0x0000001c       0x1d c:/nburn/gcc-m68k/bin/../m68k-unknown-elf/sysroot/lib/m54455\libc.a(lib_a-isspace.o)
 .comment       0x0000001c       0x1d c:/nburn/gcc-m68k/bin/../m68k-unknown-elf/sysroot/lib/m54455\libc.a(lib_a-malloc.o)
 .comment       0x0000001c       0x1d c:/nburn/gcc-m68k/bin/../m68k-unknown-elf/sysroot/lib/m54455\libc.a(lib_a-mallocr.o)
 .comment       0x0000001c       0x1d c:/nburn/gcc-m68k/bin/../m68k-unknown-elf/sysroot/lib/m54455\libc.a(lib_a-memchr.o)
 .comment       0x0000001c       0x1d c:/nburn/gcc-m68k/bin/../m68k-unknown-elf/sysroot/lib/m54455\libc.a(lib_a-memcmp.o)
 .comment       0x0000001c       0x1d c:/nburn/gcc-m68k/bin/../m68k-unknown-elf/sysroot/lib/m54455\libc.a(lib_a-memmove.o)
 .comment       0x0000001c       0x1d c:/nburn/gcc-m68k/bin/../m68k-unknown-elf/sysroot/lib/m54455\libc.a(lib_a-putc.o)
 .comment       0x0000001c       0x1d c:/nburn/gcc-m68k/bin/../m68k-unknown-elf/sysroot/lib/m54455\libc.a(lib_a-puts.o)
 .comment       0x0000001c       0x1d c:/nburn/gcc-m68k/bin/../m68k-unknown-elf/sysroot/lib/m54455\libc.a(lib_a-rand.o)
 .comment       0x0000001c       0x1d c:/nburn/gcc-m68k/bin/../m68k-unknown-elf/sysroot/lib/m54455\libc.a(lib_a-realloc.o)
 .comment       0x0000001c       0x1d c:/nburn/gcc-m68k/bin/../m68k-unknown-elf/sysroot/lib/m54455\libc.a(lib_a-reallocr.o)
 .comment       0x0000001c       0x1d c:/nburn/gcc-m68k/bin/../m68k-unknown-elf/sysroot/lib/m54455\libc.a(lib_a-setvbuf.o)
 .comment       0x0000001c       0x1d c:/nburn/gcc-m68k/bin/../m68k-unknown-elf/sysroot/lib/m54455\libc.a(lib_a-signal.o)
 .comment       0x0000001c       0x1d c:/nburn/gcc-m68k/bin/../m68k-unknown-elf/sysroot/lib/m54455\libc.a(lib_a-signalr.o)
 .comment       0x0000001c       0x1d c:/nburn/gcc-m68k/bin/../m68k-unknown-elf/sysroot/lib/m54455\libc.a(lib_a-stpcpy.o)
 .comment       0x0000001c       0x1d c:/nburn/gcc-m68k/bin/../m68k-unknown-elf/sysroot/lib/m54455\libc.a(lib_a-strcat.o)
 .comment       0x0000001c       0x1d c:/nburn/gcc-m68k/bin/../m68k-unknown-elf/sysroot/lib/m54455\libc.a(lib_a-strcmp.o)
 .comment       0x0000001c       0x1d c:/nburn/gcc-m68k/bin/../m68k-unknown-elf/sysroot/lib/m54455\libc.a(lib_a-strcpy.o)
 .comment       0x0000001c       0x1d c:/nburn/gcc-m68k/bin/../m68k-unknown-elf/sysroot/lib/m54455\libc.a(lib_a-strlen.o)
 .comment       0x0000001c       0x1d c:/nburn/gcc-m68k/bin/../m68k-unknown-elf/sysroot/lib/m54455\libc.a(lib_a-strncmp.o)
 .comment       0x0000001c       0x1d c:/nburn/gcc-m68k/bin/../m68k-unknown-elf/sysroot/lib/m54455\libc.a(lib_a-strncpy.o)
 .comment       0x0000001c       0x1d c:/nburn/gcc-m68k/bin/../m68k-unknown-elf/sysroot/lib/m54455\libc.a(lib_a-strstr.o)
 .comment       0x0000001c       0x1d c:/nburn/gcc-m68k/bin/../m68k-unknown-elf/sysroot/lib/m54455\libc.a(lib_a-strtol.o)
 .comment       0x0000001c       0x1d c:/nburn/gcc-m68k/bin/../m68k-unknown-elf/sysroot/lib/m54455\libc.a(lib_a-tolower.o)
 .comment       0x0000001c       0x1d c:/nburn/gcc-m68k/bin/../m68k-unknown-elf/sysroot/lib/m54455\libc.a(lib_a-toupper.o)
 .comment       0x0000001c       0x1d c:/nburn/gcc-m68k/bin/../m68k-unknown-elf/sysroot/lib/m54455\libc.a(lib_a-wbuf.o)
 .comment       0x0000001c       0x1d c:/nburn/gcc-m68k/bin/../m68k-unknown-elf/sysroot/lib/m54455\libc.a(lib_a-wsetup.o)
 .comment       0x0000001c       0x1d c:/nburn/gcc-m68k/bin/../m68k-unknown-elf/sysroot/lib/m54455\libc.a(lib_a-__atexit.o)
 .comment       0x0000001c       0x1d c:/nburn/gcc-m68k/bin/../m68k-unknown-elf/sysroot/lib/m54455\libc.a(lib_a-ctype_.o)
 .comment       0x0000001c       0x1d c:/nburn/gcc-m68k/bin/../m68k-unknown-elf/sysroot/lib/m54455\libc.a(lib_a-fflush.o)
 .comment       0x0000001c       0x1d c:/nburn/gcc-m68k/bin/../m68k-unknown-elf/sysroot/lib/m54455\libc.a(lib_a-findfp.o)
 .comment       0x0000001c       0x1d c:/nburn/gcc-m68k/bin/../m68k-unknown-elf/sysroot/lib/m54455\libc.a(lib_a-freer.o)
 .comment       0x0000001c       0x1d c:/nburn/gcc-m68k/bin/../m68k-unknown-elf/sysroot/lib/m54455\libc.a(lib_a-fwalk.o)
 .comment       0x0000001c       0x1d c:/nburn/gcc-m68k/bin/../m68k-unknown-elf/sysroot/lib/m54455\libc.a(lib_a-makebuf.o)
 .comment       0x0000001c       0x1d c:/nburn/gcc-m68k/bin/../m68k-unknown-elf/sysroot/lib/m54455\libc.a(lib_a-stdio.o)
 .comment       0x0000001c       0x1d c:/nburn/gcc-m68k/bin/../m68k-unknown-elf/sysroot/lib/m54455\libc.a(lib_a-writer.o)
 .comment       0x0000001c       0x1d c:/nburn/gcc-m68k/bin/../m68k-unknown-elf/sysroot/lib/m54455\libc.a(lib_a-closer.o)
 .comment       0x0000001c       0x1d c:/nburn/gcc-m68k/bin/../m68k-unknown-elf/sysroot/lib/m54455\libc.a(lib_a-fclose.o)
 .comment       0x0000001c       0x1d c:/nburn/gcc-m68k/bin/../m68k-unknown-elf/sysroot/lib/m54455\libc.a(lib_a-fstatr.o)
 .comment       0x0000001c       0x1d c:/nburn/gcc-m68k/bin/../m68k-unknown-elf/sysroot/lib/m54455\libc.a(lib_a-isattyr.o)
 .comment       0x0000001c       0x1d c:/nburn/gcc-m68k/bin/../m68k-unknown-elf/sysroot/lib/m54455\libc.a(lib_a-lseekr.o)
 .comment       0x0000001c       0x1d c:/nburn/gcc-m68k/bin/../m68k-unknown-elf/sysroot/lib/m54455\libc.a(lib_a-readr.o)
 .comment       0x0000001c       0x1d c:/nburn/gcc-m68k/bin/../lib/gcc/m68k-unknown-elf/5.2.0/m54455/crtend.o

.debug_macinfo
 *(.debug_macinfo)

.debug_weaknames
 *(.debug_weaknames)

.debug_funcnames
 *(.debug_funcnames)

.debug_typenames
 *(.debug_typenames)

.debug_varnames
 *(.debug_varnames)
OUTPUT(AutoVeh18.elf elf32-m68k)

.debug_ranges   0x00000000    0x10f18
 .debug_ranges  0x00000000       0x80 main.o
 .debug_ranges  0x00000080       0xa0 Utility.o
 .debug_ranges  0x00000120       0x40 Nav.o
 .debug_ranges  0x00000160      0x220 Logger.o
 .debug_ranges  0x00000380       0x90 Drivers\servodrive.o
 .debug_ranges  0x00000410       0xa8 Drivers\pwm.o
 .debug_ranges  0x000004b8      0x250 Drivers\introspec.o
 .debug_ranges  0x00000708       0x40 Drivers\dsm2.o
 .debug_ranges  0x00000748      0x128 Drivers\SpinningLidar.o
 .debug_ranges  0x00000870       0x68 Drivers\Odometer.o
 .debug_ranges  0x000008d8       0x10 Drivers\MadgwickFilter.o
 .debug_ranges  0x000008e8      0x948 Drivers\MPU9250.o
 .debug_ranges  0x00001230       0x58 Drivers\LidarPWM.o
 .debug_ranges  0x00001288       0x48 Drivers\LCD.o
 .debug_ranges  0x000012d0       0xa8 Drivers\IMUSetupAndSample.o
 .debug_ranges  0x00001378       0x18 htmldata.o
 .debug_ranges  0x00001390      0x370 C:\Nburn/lib/NANO54415.a(serial.o)
 .debug_ranges  0x00001700       0x38 C:\Nburn/lib/NANO54415.a(pins.o)
 .debug_ranges  0x00001738      0x1a0 C:\Nburn/lib/NANO54415.a(FlashOps.o)
 .debug_ranges  0x000018d8      0x248 C:\Nburn/lib/NANO54415.a(HiResTimer.o)
 .debug_ranges  0x00001b20       0x40 C:\Nburn/lib/NANO54415.a(pin_irq.o)
 .debug_ranges  0x00001b60       0xc0 C:\Nburn/lib/NANO54415.a(bsp.o)
 .debug_ranges  0x00001c20      0x128 C:\Nburn/lib/NANO54415.a(localio.o)
 .debug_ranges  0x00001d48      0x298 C:\Nburn/lib/NANO54415.a(multichanneli2c.o)
 .debug_ranges  0x00001fe0       0x10 C:\Nburn/lib/NANO54415.a(defpins.o)
 .debug_ranges  0x00001ff0      0x910 C:\Nburn/lib/NANO54415.a(SPIFlash.o)
 .debug_ranges  0x00002900      0x4d0 C:\Nburn/lib/NANO54415.a(i2c_class.o)
 .debug_ranges  0x00002dd0       0x18 C:\Nburn/lib/NetBurner.a(main.o)
 .debug_ranges  0x00002de8       0x48 C:\Nburn/lib/NetBurner.a(ucosmcfc.o)
 .debug_ranges  0x00002e30      0x4a0 C:\Nburn/lib/NetBurner.a(ucos.o)
 .debug_ranges  0x000032d0       0x10 C:\Nburn/lib/NetBurner.a(cppmain.o)
 .debug_ranges  0x000032e0       0xd0 C:\Nburn/lib/NetBurner.a(debugtrap.o)
 .debug_ranges  0x000033b0       0x90 C:\Nburn/lib/NetBurner.a(ucosmain.o)
 .debug_ranges  0x00003440       0xf8 C:\Nburn/lib/NetBurner.a(fileio.o)
 .debug_ranges  0x00003538       0x80 C:\Nburn/lib/NetBurner.a(system.o)
 .debug_ranges  0x000035b8      0x280 C:\Nburn/lib/NetBurner.a(utils.o)
 .debug_ranges  0x00003838      0x538 C:\Nburn/lib/NetBurner.a(ip.o)
 .debug_ranges  0x00003d70      0x4b8 C:\Nburn/lib/NetBurner.a(buffers.o)
 .debug_ranges  0x00004228      0x6a0 C:\Nburn/lib/NetBurner.a(arp.o)
 .debug_ranges  0x000048c8      0x6f8 C:\Nburn/lib/NetBurner.a(udp.o)
 .debug_ranges  0x00004fc0      0x320 C:\Nburn/lib/NetBurner.a(ftpd.o)
 .debug_ranges  0x000052e0     0x2298 C:\Nburn/lib/NetBurner.a(tcp.o)
 .debug_ranges  0x00007578       0x80 C:\Nburn/lib/NetBurner.a(extraio.o)
 .debug_ranges  0x000075f8      0x188 C:\Nburn/lib/NetBurner.a(http.o)
 .debug_ranges  0x00007780      0x218 C:\Nburn/lib/NetBurner.a(httpinternal.o)
 .debug_ranges  0x00007998       0x10 C:\Nburn/lib/NetBurner.a(httpstricmp.o)
 .debug_ranges  0x000079a8      0x188 C:\Nburn/lib/NetBurner.a(htmldecomp.o)
 .debug_ranges  0x00007b30      0x3c8 C:\Nburn/lib/NetBurner.a(iosys.o)
 .debug_ranges  0x00007ef8       0x10 C:\Nburn/lib/NetBurner.a(new_ops.o)
 .debug_ranges  0x00007f08      0x260 C:\Nburn/lib/NetBurner.a(autoip.o)
 .debug_ranges  0x00008168     0x1140 C:\Nburn/lib/NetBurner.a(dhcpc.o)
 .debug_ranges  0x000092a8      0x190 C:\Nburn/lib/NetBurner.a(netinterface.o)
 .debug_ranges  0x00009438       0x70 C:\Nburn/lib/NetBurner.a(taskmon.o)
 .debug_ranges  0x000094a8      0x1a8 C:\Nburn/lib/NetBurner.a(smarttrap.o)
 .debug_ranges  0x00009650       0xb0 C:\Nburn/lib/NetBurner.a(autoupdate.o)
 .debug_ranges  0x00009700       0x58 C:\Nburn/lib/NetBurner.a(device.o)
 .debug_ranges  0x00009758      0x7e0 C:\Nburn/lib/NetBurner.a(nbiprintf.o)
 .debug_ranges  0x00009f38       0x10 C:\Nburn/lib/NetBurner.a(nbprintf.o)
 .debug_ranges  0x00009f48       0x20 C:\Nburn/lib/NetBurner.a(nbsiprintf.o)
 .debug_ranges  0x00009f68       0x88 C:\Nburn/lib/NetBurner.a(nbsprintf.o)
 .debug_ranges  0x00009ff0       0x10 C:\Nburn/lib/NetBurner.a(weakumain.o)
 .debug_ranges  0x0000a000       0x10 C:\Nburn/lib/NetBurner.a(cusermain.o)
 .debug_ranges  0x0000a010       0x10 C:\Nburn/lib/NetBurner.a(fdprintf.o)
 .debug_ranges  0x0000a020      0x248 C:\Nburn/lib/NetBurner.a(ipv6_addr.o)
 .debug_ranges  0x0000a268      0x208 C:\Nburn/lib/NetBurner.a(ipv6_tcp.o)
 .debug_ranges  0x0000a470     0x22d8 C:\Nburn/lib/NetBurner.a(ipv6_ip.o)
 .debug_ranges  0x0000c748      0x288 C:\Nburn/lib/NetBurner.a(ipv6_udp.o)
 .debug_ranges  0x0000c9d0       0x18 C:\Nburn/lib/NetBurner.a(ipv6_printhelp.o)
 .debug_ranges  0x0000c9e8      0x138 C:\Nburn/lib/NetBurner.a(ipv6_extensions.o)
 .debug_ranges  0x0000cb20      0x1a8 C:\Nburn/lib/NetBurner.a(ipv6_multicast.o)
 .debug_ranges  0x0000ccc8       0x80 C:\Nburn/lib/NetBurner.a(ipv6_show.o)
 .debug_ranges  0x0000cd48     0x1020 C:\Nburn/lib/NetBurner.a(ipv6_dhcp.o)
 .debug_ranges  0x0000dd68      0x480 C:\Nburn/lib/NetBurner.a(multicast.o)
 .debug_ranges  0x0000e1e8       0x90 C:\Nburn/lib/NetBurner.a(random.o)
 .debug_ranges  0x0000e278       0x60 C:\Nburn/lib/NetBurner.a(netrx.o)
 .debug_ranges  0x0000e2d8      0x2a0 C:\Nburn/lib/NetBurner.a(nbfloatprint.o)
 .debug_ranges  0x0000e578       0x18 C:\Nburn/lib/NetBurner.a(fdiprintf.o)
 .debug_ranges  0x0000e590       0x78 C:\Nburn/lib/NetBurner.a(md5c.o)
 .debug_ranges  0x0000e608       0x18 c:/nburn/gcc-m68k/bin/../m68k-unknown-elf/sysroot/lib/m54455\libstdc++.a(pure.o)
 .debug_ranges  0x0000e620       0x48 c:/nburn/gcc-m68k/bin/../m68k-unknown-elf/sysroot/lib/m54455\libstdc++.a(eh_terminate.o)
 .debug_ranges  0x0000e668       0x10 c:/nburn/gcc-m68k/bin/../m68k-unknown-elf/sysroot/lib/m54455\libstdc++.a(del_op.o)
 .debug_ranges  0x0000e678       0x10 c:/nburn/gcc-m68k/bin/../m68k-unknown-elf/sysroot/lib/m54455\libstdc++.a(del_ops.o)
 .debug_ranges  0x0000e688       0x40 c:/nburn/gcc-m68k/bin/../m68k-unknown-elf/sysroot/lib/m54455\libstdc++.a(eh_catch.o)
 .debug_ranges  0x0000e6c8      0x110 c:/nburn/gcc-m68k/bin/../m68k-unknown-elf/sysroot/lib/m54455\libstdc++.a(eh_personality.o)
 .debug_ranges  0x0000e7d8       0x58 c:/nburn/gcc-m68k/bin/../m68k-unknown-elf/sysroot/lib/m54455\libstdc++.a(eh_exception.o)
 .debug_ranges  0x0000e830       0x10 c:/nburn/gcc-m68k/bin/../m68k-unknown-elf/sysroot/lib/m54455\libstdc++.a(eh_globals.o)
 .debug_ranges  0x0000e840       0x40 c:/nburn/gcc-m68k/bin/../m68k-unknown-elf/sysroot/lib/m54455\libstdc++.a(vterminate.o)
 .debug_ranges  0x0000e880       0x58 c:/nburn/gcc-m68k/bin/../m68k-unknown-elf/sysroot/lib/m54455\libstdc++.a(eh_alloc.o)
 .debug_ranges  0x0000e8d8      0x4f8 c:/nburn/gcc-m68k/bin/../m68k-unknown-elf/sysroot/lib/m54455\libstdc++.a(cp-demangle.o)
 .debug_ranges  0x0000edd0       0x20 c:/nburn/gcc-m68k/bin/../m68k-unknown-elf/sysroot/lib/m54455\libstdc++.a(eh_throw.o)
 .debug_ranges  0x0000edf0       0x10 c:/nburn/gcc-m68k/bin/../m68k-unknown-elf/sysroot/lib/m54455\libstdc++.a(eh_type.o)
 .debug_ranges  0x0000ee00       0x78 c:/nburn/gcc-m68k/bin/../m68k-unknown-elf/sysroot/lib/m54455\libstdc++.a(si_class_type_info.o)
 .debug_ranges  0x0000ee78       0x10 c:/nburn/gcc-m68k/bin/../m68k-unknown-elf/sysroot/lib/m54455\libstdc++.a(eh_call.o)
 .debug_ranges  0x0000ee88       0x90 c:/nburn/gcc-m68k/bin/../m68k-unknown-elf/sysroot/lib/m54455\libstdc++.a(class_type_info.o)
 .debug_ranges  0x0000ef18       0x30 c:/nburn/gcc-m68k/bin/../m68k-unknown-elf/sysroot/lib/m54455\libstdc++.a(tinfo.o)
 .debug_ranges  0x0000ef48      0x9a0 C:\Nburn/lib/NANO54415.a(ethernet.o)
 .debug_ranges  0x0000f8e8       0xa8 C:\Nburn/lib/NANO54415.a(etherprint.o)
 .debug_ranges  0x0000f990       0xb0 C:\Nburn/lib/NANO54415.a(emulticast.o)
 .debug_ranges  0x0000fa40       0x68 C:\Nburn/lib/NANO54415.a(ether2nd.o)
 .debug_ranges  0x0000faa8      0x190 C:\Nburn/lib/NANO54415.a(etherswitch.o)
 .debug_ranges  0x0000fc38       0xd0 C:\Nburn/lib/NetBurner.a(multiconfig.o)
 .debug_ranges  0x0000fd08       0x48 c:/nburn/gcc-m68k/bin/../m68k-unknown-elf/sysroot/lib/m54455\libm.a(lib_a-s_modf.o)
 .debug_ranges  0x0000fd50       0x18 c:/nburn/gcc-m68k/bin/../m68k-unknown-elf/sysroot/lib/m54455\libm.a(lib_a-s_round.o)
 .debug_ranges  0x0000fd68      0x1a0 c:/nburn/gcc-m68k/bin/../m68k-unknown-elf/sysroot/lib/m54455\libm.a(lib_a-e_pow.o)
 .debug_ranges  0x0000ff08       0x20 c:/nburn/gcc-m68k/bin/../m68k-unknown-elf/sysroot/lib/m54455\libm.a(lib_a-e_rem_pio2.o)
 .debug_ranges  0x0000ff28       0x18 c:/nburn/gcc-m68k/bin/../m68k-unknown-elf/sysroot/lib/m54455\libm.a(lib_a-e_sqrt.o)
 .debug_ranges  0x0000ff40       0x18 c:/nburn/gcc-m68k/bin/../m68k-unknown-elf/sysroot/lib/m54455\libm.a(lib_a-ef_asin.o)
 .debug_ranges  0x0000ff58       0x20 c:/nburn/gcc-m68k/bin/../m68k-unknown-elf/sysroot/lib/m54455\libm.a(lib_a-ef_sqrt.o)
 .debug_ranges  0x0000ff78       0x18 c:/nburn/gcc-m68k/bin/../m68k-unknown-elf/sysroot/lib/m54455\libm.a(lib_a-s_fabs.o)
 .debug_ranges  0x0000ff90       0x38 c:/nburn/gcc-m68k/bin/../m68k-unknown-elf/sysroot/lib/m54455\libm.a(lib_a-s_rint.o)
 .debug_ranges  0x0000ffc8       0x18 c:/nburn/gcc-m68k/bin/../m68k-unknown-elf/sysroot/lib/m54455\libm.a(lib_a-s_scalbn.o)
 .debug_ranges  0x0000ffe0       0x18 c:/nburn/gcc-m68k/bin/../m68k-unknown-elf/sysroot/lib/m54455\libm.a(lib_a-sf_fabs.o)
 .debug_ranges  0x0000fff8       0x20 c:/nburn/gcc-m68k/bin/../m68k-unknown-elf/sysroot/lib/m54455\libm.a(lib_a-s_copysign.o)
 .debug_ranges  0x00010018       0xf8 c:/nburn/gcc-m68k/bin/../lib/gcc/m68k-unknown-elf/5.2.0/m54455\libgcc.a(_udivdi3.o)
 .debug_ranges  0x00010110       0xb0 c:/nburn/gcc-m68k/bin/../lib/gcc/m68k-unknown-elf/5.2.0/m54455\libgcc.a(_umoddi3.o)
 .debug_ranges  0x000101c0       0x30 c:/nburn/gcc-m68k/bin/../lib/gcc/m68k-unknown-elf/5.2.0/m54455\libgcc.a(fpgnulib.o)
 .debug_ranges  0x000101f0      0x898 c:/nburn/gcc-m68k/bin/../lib/gcc/m68k-unknown-elf/5.2.0/m54455\libgcc.a(unwind-dw2.o)
 .debug_ranges  0x00010a88      0x3d0 c:/nburn/gcc-m68k/bin/../lib/gcc/m68k-unknown-elf/5.2.0/m54455\libgcc.a(unwind-dw2-fde.o)
 .debug_ranges  0x00010e58       0x18 c:/nburn/gcc-m68k/bin/../m68k-unknown-elf/sysroot/lib/m54455\libc.a(lib_a-fputs.o)
 .debug_ranges  0x00010e70       0x60 c:/nburn/gcc-m68k/bin/../m68k-unknown-elf/sysroot/lib/m54455\libc.a(lib_a-reallocr.o)
 .debug_ranges  0x00010ed0       0x18 c:/nburn/gcc-m68k/bin/../m68k-unknown-elf/sysroot/lib/m54455\libc.a(lib_a-signalr.o)
 .debug_ranges  0x00010ee8       0x18 c:/nburn/gcc-m68k/bin/../m68k-unknown-elf/sysroot/lib/m54455\libc.a(lib_a-wsetup.o)
 .debug_ranges  0x00010f00       0x18 c:/nburn/gcc-m68k/bin/../m68k-unknown-elf/sysroot/lib/m54455\libc.a(lib_a-fflush.o)
